ARM GAS  C:\Users\jaohe\AppData\Local\Temp\ccqEk3Yv.s 			page 1


   1              		.syntax unified
   2              		.cpu cortex-m3
   3              		.fpu softvfp
   4              		.eabi_attribute 20, 1
   5              		.eabi_attribute 21, 1
   6              		.eabi_attribute 23, 3
   7              		.eabi_attribute 24, 1
   8              		.eabi_attribute 25, 1
   9              		.eabi_attribute 26, 1
  10              		.eabi_attribute 30, 1
  11              		.eabi_attribute 34, 1
  12              		.eabi_attribute 18, 4
  13              		.thumb
  14              		.file	"action_select.c"
  15              		.text
  16              	.Ltext0:
  17              		.cfi_sections	.debug_frame
  18              		.section	.text.createActionList,"ax",%progbits
  19              		.align	2
  20              		.global	createActionList
  21              		.thumb
  22              		.thumb_func
  23              		.type	createActionList, %function
  24              	createActionList:
  25              	.LFB64:
  26              		.file 1 ".\\action_select.c"
   1:.\action_select.c **** /* ========================================
   2:.\action_select.c ****  *
   3:.\action_select.c ****  * Copyright YOUR COMPANY, THE YEAR
   4:.\action_select.c ****  * All Rights Reserved
   5:.\action_select.c ****  * UNPUBLISHED, LICENSED SOFTWARE.
   6:.\action_select.c ****  *
   7:.\action_select.c ****  * CONFIDENTIAL AND PROPRIETARY INFORMATION
   8:.\action_select.c ****  * WHICH IS THE PROPERTY OF your company.
   9:.\action_select.c ****  *
  10:.\action_select.c ****  * ========================================
  11:.\action_select.c **** */
  12:.\action_select.c **** 
  13:.\action_select.c **** /* [] END OF FILE */
  14:.\action_select.c **** /* ========================================
  15:.\action_select.c ****  *
  16:.\action_select.c ****  * Copyright YOUR COMPANY, THE YEAR
  17:.\action_select.c ****  * All Rights Reserved
  18:.\action_select.c ****  * UNPUBLISHED, LICENSED SOFTWARE.
  19:.\action_select.c ****  *
  20:.\action_select.c ****  * CONFIDENTIAL AND PROPRIETARY INFORMATION
  21:.\action_select.c ****  * WHICH IS THE PROPERTY OF your company.
  22:.\action_select.c ****  *
  23:.\action_select.c ****  * ========================================
  24:.\action_select.c **** */
  25:.\action_select.c **** 
  26:.\action_select.c **** 
  27:.\action_select.c **** /* ========================================
  28:.\action_select.c **** *
  29:.\action_select.c **** * Copyright YOUR COMPANY, THE YEAR
  30:.\action_select.c **** * All Rights Reserved
  31:.\action_select.c **** * UNPUBLISHED, LICENSED SOFTWARE.
ARM GAS  C:\Users\jaohe\AppData\Local\Temp\ccqEk3Yv.s 			page 2


  32:.\action_select.c **** *
  33:.\action_select.c **** * CONFIDENTIAL AND PROPRIETARY INFORMATION
  34:.\action_select.c **** * WHICH IS THE PROPERTY OF your company.
  35:.\action_select.c **** *
  36:.\action_select.c **** * ========================================
  37:.\action_select.c **** */
  38:.\action_select.c **** 
  39:.\action_select.c **** 
  40:.\action_select.c **** /* [] END OF FILE */
  41:.\action_select.c **** 
  42:.\action_select.c **** 
  43:.\action_select.c **** #include "GUI.h"
  44:.\action_select.c **** #include "DIALOG.h"
  45:.\action_select.c **** #include <project.h>
  46:.\action_select.c **** #include "tft.h"
  47:.\action_select.c **** #include "screens.h"
  48:.\action_select.c **** #include "WM.h" 
  49:.\action_select.c **** 
  50:.\action_select.c **** 
  51:.\action_select.c **** // --- Action Definitions ---
  52:.\action_select.c **** 
  53:.\action_select.c **** 
  54:.\action_select.c **** // --- Global variable for the Listwheel Handle ---
  55:.\action_select.c **** static WM_HWIN hActionListWheel;
  56:.\action_select.c **** 
  57:.\action_select.c **** 
  58:.\action_select.c **** // --- Function Prototypes ---
  59:.\action_select.c **** void updateSelection(WM_HWIN hListWheel, int inputValue,  char* actions[], int num_actions);
  60:.\action_select.c **** 
  61:.\action_select.c **** 
  62:.\action_select.c **** 
  63:.\action_select.c **** // --- Functions ---
  64:.\action_select.c **** 
  65:.\action_select.c **** 
  66:.\action_select.c **** //GUI_DispStringHCenterAt("Start Screen \nshows how to use a WINDOW widget", CENTERX, 5)
  67:.\action_select.c **** uint16 adcResult = 0;
  68:.\action_select.c **** 
  69:.\action_select.c **** 
  70:.\action_select.c **** 
  71:.\action_select.c **** 
  72:.\action_select.c **** int mainTask2(char* actions[], int num_actions) {
  73:.\action_select.c **** 
  74:.\action_select.c ****    GUI_Clear(); // Clear the screen before displaying new content
  75:.\action_select.c ****    int status = createActionList(actions, num_actions); // Setup the UI elements
  76:.\action_select.c ****    if (status != 0) {
  77:.\action_select.c ****        // Handle error if screen creation fails
  78:.\action_select.c ****        GUI_DispStringHCenterAt("Error: Screen Creation Failed!", CENTERX, CENTERY);
  79:.\action_select.c ****        return ERROR;
  80:.\action_select.c ****    }
  81:.\action_select.c ****    int inputValue = 0; // Initialize the input value (0-5)
  82:.\action_select.c ****    GUI_SetFont(GUI_FONT_16_1);
  83:.\action_select.c ****    GUI_DispStringHCenterAt("Select Action based on Input", CENTERX, 10);
  84:.\action_select.c ****    char statusBuffer[50]; // Buffer for displaying input/selection status
  85:.\action_select.c ****    while(1){
  86:.\action_select.c ****        if( ADC_DelSig_1_IsEndConversion(ADC_DelSig_1_WAIT_FOR_RESULT) )
  87:.\action_select.c **** 		{
  88:.\action_select.c ****             if( BACK_BTN_Read() == 0){
ARM GAS  C:\Users\jaohe\AppData\Local\Temp\ccqEk3Yv.s 			page 3


  89:.\action_select.c ****                 return HOME;								// delay in milliseconds
  90:.\action_select.c ****             }
  91:.\action_select.c **** 			
  92:.\action_select.c **** 			adcResult = ADC_DelSig_1_GetResult16();		// read the adc and assign the value adcResult 
  93:.\action_select.c ****        		if (adcResult & 0x8000)
  94:.\action_select.c ****        		{
  95:.\action_select.c ****         		adcResult = 0;       // ignore negative ADC results
  96:.\action_select.c ****        		}
  97:.\action_select.c ****        		else if (adcResult >= 0xfff)
  98:.\action_select.c ****        		{
  99:.\action_select.c ****         		adcResult = 0xfff;      // ignore high ADC results
 100:.\action_select.c ****        		}
 101:.\action_select.c ****             updateSelection(hActionListWheel, adcResult, actions, num_actions); // Update the listw
 102:.\action_select.c ****         }
 103:.\action_select.c ****     
 104:.\action_select.c ****    }
 105:.\action_select.c ****    error("Error in start.c");
 106:.\action_select.c ****    return ERROR;
 107:.\action_select.c **** }
 108:.\action_select.c **** 
 109:.\action_select.c **** 
 110:.\action_select.c **** // --- Function to Create the ListWheel and Supporting UI ---
 111:.\action_select.c **** int createActionList( char* actions[], int num_actions) {
  27              		.loc 1 111 0
  28              		.cfi_startproc
  29              		@ args = 0, pretend = 0, frame = 0
  30              		@ frame_needed = 0, uses_anonymous_args = 0
  31              	.LVL0:
  32 0000 70B5     		push	{r4, r5, r6, lr}
  33              		.cfi_def_cfa_offset 16
  34              		.cfi_offset 4, -16
  35              		.cfi_offset 5, -12
  36              		.cfi_offset 6, -8
  37              		.cfi_offset 14, -4
  38 0002 86B0     		sub	sp, sp, #24
  39              		.cfi_def_cfa_offset 40
  40 0004 0646     		mov	r6, r0
  41 0006 0C46     		mov	r4, r1
 112:.\action_select.c ****  
 113:.\action_select.c ****    // --- Create the ListWheel Widget ---
 114:.\action_select.c ****    // Define position (x0, y0) and size (xSize, ySize)
 115:.\action_select.c ****    int x0 = (GUI_GetScreenSizeX() / 2); // Center horizontally
  42              		.loc 1 115 0
  43 0008 FFF7FEFF 		bl	GUI_GetScreenSizeX
  44              	.LVL1:
  45 000c 00EBD070 		add	r0, r0, r0, lsr #31
  46 0010 4510     		asrs	r5, r0, #1
  47              	.LVL2:
 116:.\action_select.c ****    int y0 = 40;                              // Position vertically from top
 117:.\action_select.c ****    int xSize = 120;                          // Width of the listwheel
 118:.\action_select.c ****    int ySize =  20 * num_actions;                          // Height - affects how many items are v
  48              		.loc 1 118 0
  49 0012 04EB8404 		add	r4, r4, r4, lsl #2
  50              	.LVL3:
  51 0016 A400     		lsls	r4, r4, #2
  52              	.LVL4:
 119:.\action_select.c **** 
ARM GAS  C:\Users\jaohe\AppData\Local\Temp\ccqEk3Yv.s 			page 4


 120:.\action_select.c **** 
 121:.\action_select.c ****    // Create the listwheel attached to the background window (WM_HBKWIN)
 122:.\action_select.c ****    // WM_CF_SHOW makes it visible immediately. ID is GUI_ID_LISTWHEEL0 (or any unique ID).
 123:.\action_select.c ****    hActionListWheel = LISTWHEEL_CreateEx(x0, y0, xSize, ySize, WM_HBKWIN, WM_CF_SHOW, 0, GUI_ID_LIS
  53              		.loc 1 123 0
  54 0018 FFF7FEFF 		bl	WM_GetDesktopWindow
  55              	.LVL5:
  56 001c 0090     		str	r0, [sp]
  57 001e 0223     		movs	r3, #2
  58 0020 0193     		str	r3, [sp, #4]
  59 0022 0023     		movs	r3, #0
  60 0024 0293     		str	r3, [sp, #8]
  61 0026 4FF41873 		mov	r3, #608
  62 002a 0393     		str	r3, [sp, #12]
  63 002c 0496     		str	r6, [sp, #16]
  64 002e 2846     		mov	r0, r5
  65 0030 2821     		movs	r1, #40
  66 0032 7822     		movs	r2, #120
  67 0034 2346     		mov	r3, r4
  68 0036 FFF7FEFF 		bl	LISTWHEEL_CreateEx
  69              	.LVL6:
  70 003a 144B     		ldr	r3, .L5
  71 003c 1860     		str	r0, [r3]
 124:.\action_select.c **** 
 125:.\action_select.c **** 
 126:.\action_select.c ****    if (!hActionListWheel) {
  72              		.loc 1 126 0
  73 003e 10B3     		cbz	r0, .L3
 127:.\action_select.c ****        // Handle error if widget creation fails (e.g., out of memory)
 128:.\action_select.c ****        return 1; // Or handle more robustly
 129:.\action_select.c ****    }
 130:.\action_select.c **** 
 131:.\action_select.c **** 
 132:.\action_select.c **** //    // --- Configure the ListWheel ---
 133:.\action_select.c **** //    // Add the action strings from the screenActions array to the listwheel.
 134:.\action_select.c **** //     int i;
 135:.\action_select.c **** //    for (i = 0; i < NUM_ACTIONS; i++) {
 136:.\action_select.c **** //        LISTWHEEL_AddString(hActionListWheel, screenActions[i]);
 137:.\action_select.c **** //    }
 138:.\action_select.c **** 
 139:.\action_select.c **** 
 140:.\action_select.c ****    // Set visual properties for the listwheel:
 141:.\action_select.c ****    LISTWHEEL_SetTextAlign(hActionListWheel, GUI_TA_HCENTER);      // Center text horizontally
  74              		.loc 1 141 0
  75 0040 0221     		movs	r1, #2
  76 0042 FFF7FEFF 		bl	LISTWHEEL_SetTextAlign
  77              	.LVL7:
 142:.\action_select.c ****    LISTWHEEL_SetSnapPosition(hActionListWheel, ySize / 2);        // Center the selected item verti
  78              		.loc 1 142 0
  79 0046 114D     		ldr	r5, .L5
  80              	.LVL8:
  81 0048 2868     		ldr	r0, [r5]
  82 004a 6110     		asrs	r1, r4, #1
  83 004c FFF7FEFF 		bl	LISTWHEEL_SetSnapPosition
  84              	.LVL9:
 143:.\action_select.c ****    LISTWHEEL_SetBkColor(hActionListWheel, LISTWHEEL_CI_SEL, GUI_MAKE_COLOR(COLOR_BG_LIGHT)); // Set
  85              		.loc 1 143 0
ARM GAS  C:\Users\jaohe\AppData\Local\Temp\ccqEk3Yv.s 			page 5


  86 0050 2868     		ldr	r0, [r5]
  87 0052 0121     		movs	r1, #1
  88 0054 0E4A     		ldr	r2, .L5+4
  89 0056 FFF7FEFF 		bl	LISTWHEEL_SetBkColor
  90              	.LVL10:
 144:.\action_select.c ****    LISTWHEEL_SetBkColor(hActionListWheel, LISTWHEEL_CI_UNSEL, GUI_MAKE_COLOR(COLOR_BG_NEUTRAL));
  91              		.loc 1 144 0
  92 005a 2868     		ldr	r0, [r5]
  93 005c 0021     		movs	r1, #0
  94 005e 0D4A     		ldr	r2, .L5+8
  95 0060 FFF7FEFF 		bl	LISTWHEEL_SetBkColor
  96              	.LVL11:
 145:.\action_select.c ****    LISTWHEEL_SetTextColor(hActionListWheel, LISTWHEEL_CI_SEL, GUI_WHITE); // Color for the selected
  97              		.loc 1 145 0
  98 0064 2868     		ldr	r0, [r5]
  99 0066 0121     		movs	r1, #1
 100 0068 6FF07F42 		mvn	r2, #-16777216
 101 006c FFF7FEFF 		bl	LISTWHEEL_SetTextColor
 102              	.LVL12:
 146:.\action_select.c ****    LISTWHEEL_SetTextColor(hActionListWheel, LISTWHEEL_CI_UNSEL, GUI_MAKE_COLOR(0x4b4b4b4)); // Colo
 103              		.loc 1 146 0
 104 0070 2868     		ldr	r0, [r5]
 105 0072 0021     		movs	r1, #0
 106 0074 084A     		ldr	r2, .L5+12
 107 0076 FFF7FEFF 		bl	LISTWHEEL_SetTextColor
 108              	.LVL13:
 147:.\action_select.c ****    
 148:.\action_select.c ****    // Set the initial selection (optional, defaults to 0)
 149:.\action_select.c ****    LISTWHEEL_SetSel(hActionListWheel, 0);
 109              		.loc 1 149 0
 110 007a 2868     		ldr	r0, [r5]
 111 007c 0021     		movs	r1, #0
 112 007e FFF7FEFF 		bl	LISTWHEEL_SetSel
 113              	.LVL14:
 150:.\action_select.c ****    return 0;
 114              		.loc 1 150 0
 115 0082 0020     		movs	r0, #0
 116 0084 00E0     		b	.L2
 117              	.LVL15:
 118              	.L3:
 128:.\action_select.c ****    }
 119              		.loc 1 128 0
 120 0086 0120     		movs	r0, #1
 121              	.LVL16:
 122              	.L2:
 151:.\action_select.c **** }
 123              		.loc 1 151 0
 124 0088 06B0     		add	sp, sp, #24
 125              		.cfi_def_cfa_offset 16
 126              		@ sp needed
 127 008a 70BD     		pop	{r4, r5, r6, pc}
 128              	.LVL17:
 129              	.L6:
 130              		.align	2
 131              	.L5:
 132 008c 00000000 		.word	.LANCHOR0
 133 0090 FFF9F700 		.word	16251391
ARM GAS  C:\Users\jaohe\AppData\Local\Temp\ccqEk3Yv.s 			page 6


 134 0094 E1D8E200 		.word	14866657
 135 0098 B4B4B404 		.word	78951604
 136              		.cfi_endproc
 137              	.LFE64:
 138              		.size	createActionList, .-createActionList
 139              		.section	.text.mainTask2,"ax",%progbits
 140              		.align	2
 141              		.global	mainTask2
 142              		.thumb
 143              		.thumb_func
 144              		.type	mainTask2, %function
 145              	mainTask2:
 146              	.LFB63:
  72:.\action_select.c **** 
 147              		.loc 1 72 0
 148              		.cfi_startproc
 149              		@ args = 0, pretend = 0, frame = 0
 150              		@ frame_needed = 0, uses_anonymous_args = 0
 151              	.LVL18:
 152 0000 38B5     		push	{r3, r4, r5, lr}
 153              		.cfi_def_cfa_offset 16
 154              		.cfi_offset 3, -16
 155              		.cfi_offset 4, -12
 156              		.cfi_offset 5, -8
 157              		.cfi_offset 14, -4
 158 0002 0446     		mov	r4, r0
 159 0004 0D46     		mov	r5, r1
  74:.\action_select.c ****    int status = createActionList(actions, num_actions); // Setup the UI elements
 160              		.loc 1 74 0
 161 0006 FFF7FEFF 		bl	GUI_Clear
 162              	.LVL19:
  75:.\action_select.c ****    if (status != 0) {
 163              		.loc 1 75 0
 164 000a 2046     		mov	r0, r4
 165 000c 2946     		mov	r1, r5
 166 000e FFF7FEFF 		bl	createActionList
 167              	.LVL20:
  76:.\action_select.c ****        // Handle error if screen creation fails
 168              		.loc 1 76 0
 169 0012 30B1     		cbz	r0, .L8
  78:.\action_select.c ****        return ERROR;
 170              		.loc 1 78 0
 171 0014 1948     		ldr	r0, .L16
 172              	.LVL21:
 173 0016 7821     		movs	r1, #120
 174 0018 A022     		movs	r2, #160
 175 001a FFF7FEFF 		bl	GUI_DispStringHCenterAt
 176              	.LVL22:
  79:.\action_select.c ****    }
 177              		.loc 1 79 0
 178 001e 0420     		movs	r0, #4
 179 0020 38BD     		pop	{r3, r4, r5, pc}
 180              	.LVL23:
 181              	.L8:
  82:.\action_select.c ****    GUI_DispStringHCenterAt("Select Action based on Input", CENTERX, 10);
 182              		.loc 1 82 0
 183 0022 1748     		ldr	r0, .L16+4
ARM GAS  C:\Users\jaohe\AppData\Local\Temp\ccqEk3Yv.s 			page 7


 184              	.LVL24:
 185 0024 FFF7FEFF 		bl	GUI_SetFont
 186              	.LVL25:
  83:.\action_select.c ****    char statusBuffer[50]; // Buffer for displaying input/selection status
 187              		.loc 1 83 0
 188 0028 1648     		ldr	r0, .L16+8
 189 002a 7821     		movs	r1, #120
 190 002c 0A22     		movs	r2, #10
 191 002e FFF7FEFF 		bl	GUI_DispStringHCenterAt
 192              	.LVL26:
 193              	.L10:
  86:.\action_select.c **** 		{
 194              		.loc 1 86 0
 195 0032 0020     		movs	r0, #0
 196 0034 FFF7FEFF 		bl	ADC_DelSig_1_IsEndConversion
 197              	.LVL27:
 198 0038 0028     		cmp	r0, #0
 199 003a FAD0     		beq	.L10
  88:.\action_select.c ****                 return HOME;								// delay in milliseconds
 200              		.loc 1 88 0
 201 003c FFF7FEFF 		bl	BACK_BTN_Read
 202              	.LVL28:
 203 0040 D0B1     		cbz	r0, .L14
  92:.\action_select.c ****        		if (adcResult & 0x8000)
 204              		.loc 1 92 0
 205 0042 FFF7FEFF 		bl	ADC_DelSig_1_GetResult16
 206              	.LVL29:
 207 0046 83B2     		uxth	r3, r0
 208 0048 0F4A     		ldr	r2, .L16+12
 209 004a 9380     		strh	r3, [r2, #4]	@ movhi
  93:.\action_select.c ****        		{
 210              		.loc 1 93 0
 211 004c 0028     		cmp	r0, #0
 212 004e 03DA     		bge	.L11
  95:.\action_select.c ****        		}
 213              		.loc 1 95 0
 214 0050 0022     		movs	r2, #0
 215 0052 0D4B     		ldr	r3, .L16+12
 216 0054 9A80     		strh	r2, [r3, #4]	@ movhi
 217 0056 07E0     		b	.L12
 218              	.L11:
  97:.\action_select.c ****        		{
 219              		.loc 1 97 0
 220 0058 40F6FE72 		movw	r2, #4094
 221 005c 9342     		cmp	r3, r2
 222 005e 03D9     		bls	.L12
  99:.\action_select.c ****        		}
 223              		.loc 1 99 0
 224 0060 40F6FF72 		movw	r2, #4095
 225 0064 084B     		ldr	r3, .L16+12
 226 0066 9A80     		strh	r2, [r3, #4]	@ movhi
 227              	.L12:
 101:.\action_select.c ****         }
 228              		.loc 1 101 0
 229 0068 074B     		ldr	r3, .L16+12
 230 006a 1868     		ldr	r0, [r3]
 231 006c 9988     		ldrh	r1, [r3, #4]
ARM GAS  C:\Users\jaohe\AppData\Local\Temp\ccqEk3Yv.s 			page 8


 232 006e 2246     		mov	r2, r4
 233 0070 2B46     		mov	r3, r5
 234 0072 FFF7FEFF 		bl	updateSelection
 235              	.LVL30:
 236 0076 DCE7     		b	.L10
 237              	.L14:
  89:.\action_select.c ****             }
 238              		.loc 1 89 0
 239 0078 0120     		movs	r0, #1
 107:.\action_select.c **** 
 240              		.loc 1 107 0
 241 007a 38BD     		pop	{r3, r4, r5, pc}
 242              	.LVL31:
 243              	.L17:
 244              		.align	2
 245              	.L16:
 246 007c 00000000 		.word	.LC0
 247 0080 00000000 		.word	GUI_Font16_1
 248 0084 20000000 		.word	.LC1
 249 0088 00000000 		.word	.LANCHOR0
 250              		.cfi_endproc
 251              	.LFE63:
 252              		.size	mainTask2, .-mainTask2
 253              		.section	.text.updateListWheelSelection,"ax",%progbits
 254              		.align	2
 255              		.global	updateListWheelSelection
 256              		.thumb
 257              		.thumb_func
 258              		.type	updateListWheelSelection, %function
 259              	updateListWheelSelection:
 260              	.LFB65:
 152:.\action_select.c **** void updateListWheelSelection(WM_HWIN hListWheel, int inputValue, char* actions[], int num_actions)
 261              		.loc 1 152 0
 262              		.cfi_startproc
 263              		@ args = 0, pretend = 0, frame = 0
 264              		@ frame_needed = 0, uses_anonymous_args = 0
 265              	.LVL32:
 153:.\action_select.c ****     // Map the ADC value to the range of listwheel items (0 to NUM_ACTIONS - 1)
 154:.\action_select.c ****     if (!hListWheel) {
 266              		.loc 1 154 0
 267 0000 70B1     		cbz	r0, .L21
 152:.\action_select.c **** void updateListWheelSelection(WM_HWIN hListWheel, int inputValue, char* actions[], int num_actions)
 268              		.loc 1 152 0
 269 0002 10B5     		push	{r4, lr}
 270              		.cfi_def_cfa_offset 8
 271              		.cfi_offset 4, -8
 272              		.cfi_offset 14, -4
 155:.\action_select.c ****         return; // Handle error if listwheel handle is invalid
 156:.\action_select.c ****     }
 157:.\action_select.c ****     int i = inputValue % num_actions; // Assuming ADC value is between 0 and 4095
 273              		.loc 1 157 0
 274 0004 91FBF3F4 		sdiv	r4, r1, r3
 275 0008 03FB1411 		mls	r1, r3, r4, r1
 276              	.LVL33:
 158:.\action_select.c ****     char * selectedAction = actions[i];
 277              		.loc 1 158 0
 278 000c 52F82140 		ldr	r4, [r2, r1, lsl #2]
ARM GAS  C:\Users\jaohe\AppData\Local\Temp\ccqEk3Yv.s 			page 9


 279              	.LVL34:
 159:.\action_select.c ****     LISTWHEEL_SetSel(hListWheel, i); // Update the selection in the listwheel
 280              		.loc 1 159 0
 281 0010 FFF7FEFF 		bl	LISTWHEEL_SetSel
 282              	.LVL35:
 160:.\action_select.c ****     
 161:.\action_select.c ****     GUI_DispStringHCenterAt(selectedAction, CENTERX, CENTERY + 50); // Display the status below the
 283              		.loc 1 161 0
 284 0014 2046     		mov	r0, r4
 285 0016 7821     		movs	r1, #120
 286 0018 D222     		movs	r2, #210
 287 001a FFF7FEFF 		bl	GUI_DispStringHCenterAt
 288              	.LVL36:
 289 001e 10BD     		pop	{r4, pc}
 290              	.LVL37:
 291              	.L21:
 292              		.cfi_def_cfa_offset 0
 293              		.cfi_restore 4
 294              		.cfi_restore 14
 295 0020 7047     		bx	lr
 296              		.cfi_endproc
 297              	.LFE65:
 298              		.size	updateListWheelSelection, .-updateListWheelSelection
 299 0022 00BF     		.section	.text.action_select,"ax",%progbits
 300              		.align	2
 301              		.global	action_select
 302              		.thumb
 303              		.thumb_func
 304              		.type	action_select, %function
 305              	action_select:
 306              	.LFB66:
 162:.\action_select.c **** }
 163:.\action_select.c **** 
 164:.\action_select.c **** 
 165:.\action_select.c **** 
 166:.\action_select.c **** // --- Entry Point ---
 167:.\action_select.c **** int action_select(char* actions[], int num_actions){
 307              		.loc 1 167 0
 308              		.cfi_startproc
 309              		@ args = 0, pretend = 0, frame = 0
 310              		@ frame_needed = 0, uses_anonymous_args = 0
 311              	.LVL38:
 312 0000 08B5     		push	{r3, lr}
 313              		.cfi_def_cfa_offset 8
 314              		.cfi_offset 3, -8
 315              		.cfi_offset 14, -4
 168:.\action_select.c **** 
 169:.\action_select.c **** 
 170:.\action_select.c ****    return mainTask2(actions, num_actions);
 316              		.loc 1 170 0
 317 0002 FFF7FEFF 		bl	mainTask2
 318              	.LVL39:
 171:.\action_select.c **** }
 319              		.loc 1 171 0
 320 0006 08BD     		pop	{r3, pc}
 321              		.cfi_endproc
 322              	.LFE66:
ARM GAS  C:\Users\jaohe\AppData\Local\Temp\ccqEk3Yv.s 			page 10


 323              		.size	action_select, .-action_select
 324              		.global	adcResult
 325              		.section	.rodata.str1.4,"aMS",%progbits,1
 326              		.align	2
 327              	.LC0:
 328 0000 4572726F 		.ascii	"Error: Screen Creation Failed!\000"
 328      723A2053 
 328      63726565 
 328      6E204372 
 328      65617469 
 329 001f 00       		.space	1
 330              	.LC1:
 331 0020 53656C65 		.ascii	"Select Action based on Input\000"
 331      63742041 
 331      6374696F 
 331      6E206261 
 331      73656420 
 332 003d 000000   		.bss
 333              		.align	2
 334              		.set	.LANCHOR0,. + 0
 335              		.type	hActionListWheel, %object
 336              		.size	hActionListWheel, 4
 337              	hActionListWheel:
 338 0000 00000000 		.space	4
 339              		.type	adcResult, %object
 340              		.size	adcResult, 2
 341              	adcResult:
 342 0004 0000     		.space	2
 343 0006 0000     		.text
 344              	.Letext0:
 345              		.file 2 "..\\..\\emWinGraphics_v5_46\\Code\\Include\\PSoC4_5/LCD.h"
 346              		.file 3 "..\\..\\emWinGraphics_v5_46\\Code\\Include\\PSoC4_5/GUI_Type.h"
 347              		.file 4 "..\\..\\emWinGraphics_v5_46\\Code\\Include\\PSoC4_5/LISTWHEEL.h"
 348              		.file 5 "c:\\program files (x86)\\cypress\\psoc creator\\3.3\\psoc creator\\import\\gnu\\arm\\4.9.
 349              		.file 6 "c:\\program files (x86)\\cypress\\psoc creator\\3.3\\psoc creator\\import\\gnu\\arm\\4.9.
 350              		.file 7 "Generated_Source\\PSoC5/cytypes.h"
 351              		.file 8 "..\\..\\emWinGraphics_v5_46\\Code\\Include\\PSoC4_5/GUI.h"
 352              		.file 9 "Generated_Source\\PSoC5/core_cm3.h"
 353              		.file 10 "..\\..\\emWinGraphics_v5_46\\Code\\Include\\PSoC4_5/WM.h"
 354              		.file 11 "Generated_Source\\PSoC5/ADC_DelSig_1.h"
 355              		.file 12 "Generated_Source\\PSoC5/BACK_BTN.h"
 356              		.file 13 ".\\screens.h"