ARM GAS  C:\Users\jaohe\AppData\Local\Temp\ccBfMVgu.s 			page 1


   1              		.syntax unified
   2              		.cpu cortex-m3
   3              		.fpu softvfp
   4              		.eabi_attribute 20, 1
   5              		.eabi_attribute 21, 1
   6              		.eabi_attribute 23, 3
   7              		.eabi_attribute 24, 1
   8              		.eabi_attribute 25, 1
   9              		.eabi_attribute 26, 1
  10              		.eabi_attribute 30, 1
  11              		.eabi_attribute 34, 1
  12              		.eabi_attribute 18, 4
  13              		.thumb
  14              		.file	"ds3231.c"
  15              		.text
  16              	.Ltext0:
  17              		.cfi_sections	.debug_frame
  18              		.section	.text.dt_getYear,"ax",%progbits
  19              		.align	2
  20              		.global	dt_getYear
  21              		.thumb
  22              		.thumb_func
  23              		.type	dt_getYear, %function
  24              	dt_getYear:
  25              	.LFB63:
  26              		.file 1 ".\\ds3231.c"
   1:.\ds3231.c    **** /* ========================================
   2:.\ds3231.c    ****  *
   3:.\ds3231.c    ****  * Copyright YOUR COMPANY, THE YEAR
   4:.\ds3231.c    ****  * All Rights Reserved
   5:.\ds3231.c    ****  * UNPUBLISHED, LICENSED SOFTWARE.
   6:.\ds3231.c    ****  *
   7:.\ds3231.c    ****  * CONFIDENTIAL AND PROPRIETARY INFORMATION
   8:.\ds3231.c    ****  * WHICH IS THE PROPERTY OF your company.
   9:.\ds3231.c    ****  *
  10:.\ds3231.c    ****  * ========================================
  11:.\ds3231.c    **** */
  12:.\ds3231.c    **** 
  13:.\ds3231.c    **** /* Very simple library for DS3231
  14:.\ds3231.c    ****     on PSoC, inspired by Adafruit's
  15:.\ds3231.c    ****     RTClib. Only crucial functionality
  16:.\ds3231.c    ****     is ported over.
  17:.\ds3231.c    **** */
  18:.\ds3231.c    **** 
  19:.\ds3231.c    **** #include <project.h>
  20:.\ds3231.c    **** #include <stdlib.h>
  21:.\ds3231.c    **** #include <stdbool.h>
  22:.\ds3231.c    **** #include "stdio.h"
  23:.\ds3231.c    **** 
  24:.\ds3231.c    **** #include <ds3231.h>
  25:.\ds3231.c    **** #include "screens.h"
  26:.\ds3231.c    **** 
  27:.\ds3231.c    **** #define pgm_read_byte(addr) (*(const unsigned char *)(addr))
  28:.\ds3231.c    **** 
  29:.\ds3231.c    **** // this stuff should go in the header but that's not working
  30:.\ds3231.c    **** uint8 RTC_read_buff[10];
  31:.\ds3231.c    **** 
ARM GAS  C:\Users\jaohe\AppData\Local\Temp\ccBfMVgu.s 			page 2


  32:.\ds3231.c    **** // return the year from a DateTime struct
  33:.\ds3231.c    **** uint16_t dt_getYear(DateTime dt) { return 2000 + dt.yOff; }
  27              		.loc 1 33 0
  28              		.cfi_startproc
  29              		@ args = 0, pretend = 0, frame = 8
  30              		@ frame_needed = 0, uses_anonymous_args = 0
  31              		@ link register save eliminated.
  32 0000 82B0     		sub	sp, sp, #8
  33              		.cfi_def_cfa_offset 8
  34 0002 02AB     		add	r3, sp, #8
  35 0004 03E90300 		stmdb	r3, {r0, r1}
  36              		.loc 1 33 0
  37 0008 9DF80000 		ldrb	r0, [sp]	@ zero_extendqisi2
  38 000c 00F5FA60 		add	r0, r0, #2000
  39 0010 02B0     		add	sp, sp, #8
  40              		.cfi_def_cfa_offset 0
  41              		@ sp needed
  42 0012 7047     		bx	lr
  43              		.cfi_endproc
  44              	.LFE63:
  45              		.size	dt_getYear, .-dt_getYear
  46              		.section	.text.dt_getMonth,"ax",%progbits
  47              		.align	2
  48              		.global	dt_getMonth
  49              		.thumb
  50              		.thumb_func
  51              		.type	dt_getMonth, %function
  52              	dt_getMonth:
  53              	.LFB64:
  34:.\ds3231.c    **** // return the month from a DateTime struct
  35:.\ds3231.c    **** uint8_t dt_getMonth(DateTime dt) { return dt.m; }
  54              		.loc 1 35 0
  55              		.cfi_startproc
  56              		@ args = 0, pretend = 0, frame = 8
  57              		@ frame_needed = 0, uses_anonymous_args = 0
  58              		@ link register save eliminated.
  59 0000 82B0     		sub	sp, sp, #8
  60              		.cfi_def_cfa_offset 8
  61 0002 02AB     		add	r3, sp, #8
  62 0004 03E90300 		stmdb	r3, {r0, r1}
  63              		.loc 1 35 0
  64 0008 9DF80100 		ldrb	r0, [sp, #1]	@ zero_extendqisi2
  65 000c 02B0     		add	sp, sp, #8
  66              		.cfi_def_cfa_offset 0
  67              		@ sp needed
  68 000e 7047     		bx	lr
  69              		.cfi_endproc
  70              	.LFE64:
  71              		.size	dt_getMonth, .-dt_getMonth
  72              		.section	.text.dt_getDay,"ax",%progbits
  73              		.align	2
  74              		.global	dt_getDay
  75              		.thumb
  76              		.thumb_func
  77              		.type	dt_getDay, %function
  78              	dt_getDay:
  79              	.LFB65:
ARM GAS  C:\Users\jaohe\AppData\Local\Temp\ccBfMVgu.s 			page 3


  36:.\ds3231.c    **** // return the day from a DateTime struct
  37:.\ds3231.c    **** uint8_t dt_getDay(DateTime dt) { return dt.d; }
  80              		.loc 1 37 0
  81              		.cfi_startproc
  82              		@ args = 0, pretend = 0, frame = 8
  83              		@ frame_needed = 0, uses_anonymous_args = 0
  84              		@ link register save eliminated.
  85 0000 82B0     		sub	sp, sp, #8
  86              		.cfi_def_cfa_offset 8
  87 0002 02AB     		add	r3, sp, #8
  88 0004 03E90300 		stmdb	r3, {r0, r1}
  89              		.loc 1 37 0
  90 0008 9DF80200 		ldrb	r0, [sp, #2]	@ zero_extendqisi2
  91 000c 02B0     		add	sp, sp, #8
  92              		.cfi_def_cfa_offset 0
  93              		@ sp needed
  94 000e 7047     		bx	lr
  95              		.cfi_endproc
  96              	.LFE65:
  97              		.size	dt_getDay, .-dt_getDay
  98              		.section	.text.dt_getHour,"ax",%progbits
  99              		.align	2
 100              		.global	dt_getHour
 101              		.thumb
 102              		.thumb_func
 103              		.type	dt_getHour, %function
 104              	dt_getHour:
 105              	.LFB66:
  38:.\ds3231.c    **** // return the hour from a DateTime struct
  39:.\ds3231.c    **** uint8_t dt_getHour(DateTime dt) { return dt.hh; }
 106              		.loc 1 39 0
 107              		.cfi_startproc
 108              		@ args = 0, pretend = 0, frame = 8
 109              		@ frame_needed = 0, uses_anonymous_args = 0
 110              		@ link register save eliminated.
 111 0000 82B0     		sub	sp, sp, #8
 112              		.cfi_def_cfa_offset 8
 113 0002 02AB     		add	r3, sp, #8
 114 0004 03E90300 		stmdb	r3, {r0, r1}
 115              		.loc 1 39 0
 116 0008 9DF80300 		ldrb	r0, [sp, #3]	@ zero_extendqisi2
 117 000c 02B0     		add	sp, sp, #8
 118              		.cfi_def_cfa_offset 0
 119              		@ sp needed
 120 000e 7047     		bx	lr
 121              		.cfi_endproc
 122              	.LFE66:
 123              		.size	dt_getHour, .-dt_getHour
 124              		.section	.text.dt_getMinute,"ax",%progbits
 125              		.align	2
 126              		.global	dt_getMinute
 127              		.thumb
 128              		.thumb_func
 129              		.type	dt_getMinute, %function
 130              	dt_getMinute:
 131              	.LFB67:
  40:.\ds3231.c    **** // return the minute from a DateTime struct
ARM GAS  C:\Users\jaohe\AppData\Local\Temp\ccBfMVgu.s 			page 4


  41:.\ds3231.c    **** uint8_t dt_getMinute(DateTime dt) { return dt.mm; }
 132              		.loc 1 41 0
 133              		.cfi_startproc
 134              		@ args = 0, pretend = 0, frame = 8
 135              		@ frame_needed = 0, uses_anonymous_args = 0
 136              		@ link register save eliminated.
 137 0000 82B0     		sub	sp, sp, #8
 138              		.cfi_def_cfa_offset 8
 139 0002 02AB     		add	r3, sp, #8
 140 0004 03E90300 		stmdb	r3, {r0, r1}
 141              		.loc 1 41 0
 142 0008 9DF80400 		ldrb	r0, [sp, #4]	@ zero_extendqisi2
 143 000c 02B0     		add	sp, sp, #8
 144              		.cfi_def_cfa_offset 0
 145              		@ sp needed
 146 000e 7047     		bx	lr
 147              		.cfi_endproc
 148              	.LFE67:
 149              		.size	dt_getMinute, .-dt_getMinute
 150              		.section	.text.dt_getSecond,"ax",%progbits
 151              		.align	2
 152              		.global	dt_getSecond
 153              		.thumb
 154              		.thumb_func
 155              		.type	dt_getSecond, %function
 156              	dt_getSecond:
 157              	.LFB68:
  42:.\ds3231.c    **** // return the second from a DateTime struct
  43:.\ds3231.c    **** uint8_t dt_getSecond(DateTime dt) { return dt.ss; }
 158              		.loc 1 43 0
 159              		.cfi_startproc
 160              		@ args = 0, pretend = 0, frame = 8
 161              		@ frame_needed = 0, uses_anonymous_args = 0
 162              		@ link register save eliminated.
 163 0000 82B0     		sub	sp, sp, #8
 164              		.cfi_def_cfa_offset 8
 165 0002 02AB     		add	r3, sp, #8
 166 0004 03E90300 		stmdb	r3, {r0, r1}
 167              		.loc 1 43 0
 168 0008 9DF80500 		ldrb	r0, [sp, #5]	@ zero_extendqisi2
 169 000c 02B0     		add	sp, sp, #8
 170              		.cfi_def_cfa_offset 0
 171              		@ sp needed
 172 000e 7047     		bx	lr
 173              		.cfi_endproc
 174              	.LFE68:
 175              		.size	dt_getSecond, .-dt_getSecond
 176              		.section	.text.dt_isPM,"ax",%progbits
 177              		.align	2
 178              		.global	dt_isPM
 179              		.thumb
 180              		.thumb_func
 181              		.type	dt_isPM, %function
 182              	dt_isPM:
 183              	.LFB69:
  44:.\ds3231.c    **** // return whether the time is PM from a DateTime struct
  45:.\ds3231.c    **** uint8_t dt_isPM(DateTime dt) { return dt.hh >= 12; }
ARM GAS  C:\Users\jaohe\AppData\Local\Temp\ccBfMVgu.s 			page 5


 184              		.loc 1 45 0
 185              		.cfi_startproc
 186              		@ args = 0, pretend = 0, frame = 8
 187              		@ frame_needed = 0, uses_anonymous_args = 0
 188              		@ link register save eliminated.
 189 0000 82B0     		sub	sp, sp, #8
 190              		.cfi_def_cfa_offset 8
 191 0002 02AB     		add	r3, sp, #8
 192 0004 03E90300 		stmdb	r3, {r0, r1}
 193              		.loc 1 45 0
 194 0008 9DF80300 		ldrb	r0, [sp, #3]	@ zero_extendqisi2
 195 000c 0B28     		cmp	r0, #11
 196 000e 94BF     		ite	ls
 197 0010 0020     		movls	r0, #0
 198 0012 0120     		movhi	r0, #1
 199 0014 02B0     		add	sp, sp, #8
 200              		.cfi_def_cfa_offset 0
 201              		@ sp needed
 202 0016 7047     		bx	lr
 203              		.cfi_endproc
 204              	.LFE69:
 205              		.size	dt_isPM, .-dt_isPM
 206              		.section	.text.read_i2c_register,"ax",%progbits
 207              		.align	2
 208              		.global	read_i2c_register
 209              		.thumb
 210              		.thumb_func
 211              		.type	read_i2c_register, %function
 212              	read_i2c_register:
 213              	.LFB70:
  46:.\ds3231.c    **** 
  47:.\ds3231.c    **** /**************************************************************************/
  48:.\ds3231.c    **** /*!
  49:.\ds3231.c    ****     @brief  Read a byte from an I2C register
  50:.\ds3231.c    ****     @param addr I2C address
  51:.\ds3231.c    ****     @param reg Register address
  52:.\ds3231.c    ****     @return Register value
  53:.\ds3231.c    **** */
  54:.\ds3231.c    **** /**************************************************************************/
  55:.\ds3231.c    **** uint8_t read_i2c_register(uint8_t addr, uint8_t reg) {
 214              		.loc 1 55 0
 215              		.cfi_startproc
 216              		@ args = 0, pretend = 0, frame = 0
 217              		@ frame_needed = 0, uses_anonymous_args = 0
 218              	.LVL0:
 219 0000 38B5     		push	{r3, r4, r5, lr}
 220              		.cfi_def_cfa_offset 16
 221              		.cfi_offset 3, -16
 222              		.cfi_offset 4, -12
 223              		.cfi_offset 5, -8
 224              		.cfi_offset 14, -4
 225 0002 0546     		mov	r5, r0
 226 0004 0C46     		mov	r4, r1
  56:.\ds3231.c    ****     I2CRTC_MasterSendStart(addr,0); // send write command to addr
 227              		.loc 1 56 0
 228 0006 0021     		movs	r1, #0
 229              	.LVL1:
ARM GAS  C:\Users\jaohe\AppData\Local\Temp\ccBfMVgu.s 			page 6


 230 0008 FFF7FEFF 		bl	I2CRTC_MasterSendStart
 231              	.LVL2:
  57:.\ds3231.c    ****     I2CRTC_MasterWriteByte(reg);
 232              		.loc 1 57 0
 233 000c 2046     		mov	r0, r4
 234 000e FFF7FEFF 		bl	I2CRTC_MasterWriteByte
 235              	.LVL3:
  58:.\ds3231.c    ****     I2CRTC_MasterSendStop();
 236              		.loc 1 58 0
 237 0012 FFF7FEFF 		bl	I2CRTC_MasterSendStop
 238              	.LVL4:
  59:.\ds3231.c    **** 
  60:.\ds3231.c    ****     I2CRTC_MasterReadBuf(addr, RTC_read_buff, 1, I2CRTC_MODE_COMPLETE_XFER);
 239              		.loc 1 60 0
 240 0016 044C     		ldr	r4, .L17
 241 0018 2846     		mov	r0, r5
 242 001a 2146     		mov	r1, r4
 243 001c 0122     		movs	r2, #1
 244 001e 0023     		movs	r3, #0
 245 0020 FFF7FEFF 		bl	I2CRTC_MasterReadBuf
 246              	.LVL5:
  61:.\ds3231.c    ****     return RTC_read_buff[0];
  62:.\ds3231.c    **** }
 247              		.loc 1 62 0
 248 0024 2078     		ldrb	r0, [r4]	@ zero_extendqisi2
 249 0026 38BD     		pop	{r3, r4, r5, pc}
 250              	.L18:
 251              		.align	2
 252              	.L17:
 253 0028 00000000 		.word	RTC_read_buff
 254              		.cfi_endproc
 255              	.LFE70:
 256              		.size	read_i2c_register, .-read_i2c_register
 257              		.section	.text.write_i2c_register,"ax",%progbits
 258              		.align	2
 259              		.global	write_i2c_register
 260              		.thumb
 261              		.thumb_func
 262              		.type	write_i2c_register, %function
 263              	write_i2c_register:
 264              	.LFB71:
  63:.\ds3231.c    **** 
  64:.\ds3231.c    **** /**************************************************************************/
  65:.\ds3231.c    **** /*!
  66:.\ds3231.c    ****     @brief  Write a byte to an I2C register
  67:.\ds3231.c    ****     @param addr I2C address
  68:.\ds3231.c    ****     @param reg Register address
  69:.\ds3231.c    ****     @param val Value to write
  70:.\ds3231.c    **** */
  71:.\ds3231.c    **** /**************************************************************************/
  72:.\ds3231.c    **** void write_i2c_register(uint8_t addr, uint8_t reg, uint8_t val) {
 265              		.loc 1 72 0
 266              		.cfi_startproc
 267              		@ args = 0, pretend = 0, frame = 0
 268              		@ frame_needed = 0, uses_anonymous_args = 0
 269              	.LVL6:
 270 0000 38B5     		push	{r3, r4, r5, lr}
ARM GAS  C:\Users\jaohe\AppData\Local\Temp\ccBfMVgu.s 			page 7


 271              		.cfi_def_cfa_offset 16
 272              		.cfi_offset 3, -16
 273              		.cfi_offset 4, -12
 274              		.cfi_offset 5, -8
 275              		.cfi_offset 14, -4
 276 0002 0D46     		mov	r5, r1
 277 0004 1446     		mov	r4, r2
  73:.\ds3231.c    ****   I2CRTC_MasterSendStart(addr,0); // send write command to addr
 278              		.loc 1 73 0
 279 0006 0021     		movs	r1, #0
 280              	.LVL7:
 281 0008 FFF7FEFF 		bl	I2CRTC_MasterSendStart
 282              	.LVL8:
  74:.\ds3231.c    ****   I2CRTC_MasterWriteByte(reg);
 283              		.loc 1 74 0
 284 000c 2846     		mov	r0, r5
 285 000e FFF7FEFF 		bl	I2CRTC_MasterWriteByte
 286              	.LVL9:
  75:.\ds3231.c    ****   I2CRTC_MasterWriteByte(val);
 287              		.loc 1 75 0
 288 0012 2046     		mov	r0, r4
 289 0014 FFF7FEFF 		bl	I2CRTC_MasterWriteByte
 290              	.LVL10:
  76:.\ds3231.c    ****   I2CRTC_MasterSendStop();
 291              		.loc 1 76 0
 292 0018 FFF7FEFF 		bl	I2CRTC_MasterSendStop
 293              	.LVL11:
 294 001c 38BD     		pop	{r3, r4, r5, pc}
 295              		.cfi_endproc
 296              	.LFE71:
 297              		.size	write_i2c_register, .-write_i2c_register
 298 001e 00BF     		.section	.text.date2days,"ax",%progbits
 299              		.align	2
 300              		.global	date2days
 301              		.thumb
 302              		.thumb_func
 303              		.type	date2days, %function
 304              	date2days:
 305              	.LFB72:
  77:.\ds3231.c    **** }
  78:.\ds3231.c    **** 
  79:.\ds3231.c    **** 
  80:.\ds3231.c    **** 
  81:.\ds3231.c    **** /**************************************************************************/
  82:.\ds3231.c    **** // utility code, some of this could be exposed in the DateTime API if needed
  83:.\ds3231.c    **** /**************************************************************************/
  84:.\ds3231.c    **** 
  85:.\ds3231.c    **** /**
  86:.\ds3231.c    ****   Number of days in each month, from January to November. December is not
  87:.\ds3231.c    ****   needed. Omitting it avoids an incompatibility with Paul Stoffregen's Time
  88:.\ds3231.c    ****   library. C.f. https://github.com/adafruit/RTClib/issues/114
  89:.\ds3231.c    **** */
  90:.\ds3231.c    **** const uint8_t daysInMonth[] = {31, 28, 31, 30, 31, 30, 31, 31, 30, 31, 30};
  91:.\ds3231.c    **** 
  92:.\ds3231.c    **** /**************************************************************************/
  93:.\ds3231.c    **** /*!
  94:.\ds3231.c    ****     @brief  Given a date, return number of days since 2000/01/01,
ARM GAS  C:\Users\jaohe\AppData\Local\Temp\ccBfMVgu.s 			page 8


  95:.\ds3231.c    ****             valid for 2000--2099
  96:.\ds3231.c    ****     @param y Year
  97:.\ds3231.c    ****     @param m Month
  98:.\ds3231.c    ****     @param d Day
  99:.\ds3231.c    ****     @return Number of days
 100:.\ds3231.c    **** */
 101:.\ds3231.c    **** /**************************************************************************/
 102:.\ds3231.c    **** uint16_t date2days(uint16_t y, uint8_t m, uint8_t d) {
 306              		.loc 1 102 0
 307              		.cfi_startproc
 308              		@ args = 0, pretend = 0, frame = 0
 309              		@ frame_needed = 0, uses_anonymous_args = 0
 310              		@ link register save eliminated.
 311              	.LVL12:
 312 0000 30B4     		push	{r4, r5}
 313              		.cfi_def_cfa_offset 8
 314              		.cfi_offset 4, -8
 315              		.cfi_offset 5, -4
 103:.\ds3231.c    ****   if (y >= 2000)
 316              		.loc 1 103 0
 317 0002 B0F5FA6F 		cmp	r0, #2000
 318 0006 02D3     		bcc	.L22
 104:.\ds3231.c    ****     y -= 2000;
 319              		.loc 1 104 0
 320 0008 A0F5FA60 		sub	r0, r0, #2000
 321              	.LVL13:
 322 000c 80B2     		uxth	r0, r0
 323              	.LVL14:
 324              	.L22:
 105:.\ds3231.c    ****   uint16_t days = d;
 325              		.loc 1 105 0
 326 000e 92B2     		uxth	r2, r2
 327              	.LVL15:
 106:.\ds3231.c    ****   uint8_t i;
 107:.\ds3231.c    ****   for (i = 1; i < m; ++i)
 328              		.loc 1 107 0
 329 0010 0123     		movs	r3, #1
 330 0012 06E0     		b	.L23
 331              	.LVL16:
 332              	.L24:
 108:.\ds3231.c    ****     days += pgm_read_byte(daysInMonth + i - 1);
 333              		.loc 1 108 0 discriminator 3
 334 0014 5C1E     		subs	r4, r3, #1
 335 0016 0E4D     		ldr	r5, .L28
 336 0018 2C5D     		ldrb	r4, [r5, r4]	@ zero_extendqisi2
 337 001a 2244     		add	r2, r2, r4
 338              	.LVL17:
 339 001c 92B2     		uxth	r2, r2
 340              	.LVL18:
 107:.\ds3231.c    ****     days += pgm_read_byte(daysInMonth + i - 1);
 341              		.loc 1 107 0 discriminator 3
 342 001e 0133     		adds	r3, r3, #1
 343              	.LVL19:
 344 0020 DBB2     		uxtb	r3, r3
 345              	.LVL20:
 346              	.L23:
 107:.\ds3231.c    ****     days += pgm_read_byte(daysInMonth + i - 1);
ARM GAS  C:\Users\jaohe\AppData\Local\Temp\ccBfMVgu.s 			page 9


 347              		.loc 1 107 0 is_stmt 0 discriminator 1
 348 0022 8B42     		cmp	r3, r1
 349 0024 F6D3     		bcc	.L24
 109:.\ds3231.c    ****   if (m > 2 && y % 4 == 0)
 350              		.loc 1 109 0 is_stmt 1
 351 0026 0229     		cmp	r1, #2
 352 0028 04D9     		bls	.L25
 353              		.loc 1 109 0 is_stmt 0 discriminator 1
 354 002a 10F0030F 		tst	r0, #3
 355 002e 01D1     		bne	.L25
 110:.\ds3231.c    ****     ++days;
 356              		.loc 1 110 0 is_stmt 1
 357 0030 0132     		adds	r2, r2, #1
 358              	.LVL21:
 359 0032 92B2     		uxth	r2, r2
 360              	.LVL22:
 361              	.L25:
 111:.\ds3231.c    ****   return days + 365 * y + (y + 3) / 4 - 1;
 362              		.loc 1 111 0
 363 0034 C31C     		adds	r3, r0, #3
 364              	.LVL23:
 365 0036 00EBC001 		add	r1, r0, r0, lsl #3
 366              	.LVL24:
 367 003a 00EBC100 		add	r0, r0, r1, lsl #3
 368              	.LVL25:
 369 003e 00EB8000 		add	r0, r0, r0, lsl #2
 370 0042 0244     		add	r2, r2, r0
 371              	.LVL26:
 372 0044 02EBA300 		add	r0, r2, r3, asr #2
 373 0048 0138     		subs	r0, r0, #1
 112:.\ds3231.c    **** }
 374              		.loc 1 112 0
 375 004a 80B2     		uxth	r0, r0
 376 004c 30BC     		pop	{r4, r5}
 377              		.cfi_restore 5
 378              		.cfi_restore 4
 379              		.cfi_def_cfa_offset 0
 380 004e 7047     		bx	lr
 381              	.L29:
 382              		.align	2
 383              	.L28:
 384 0050 00000000 		.word	.LANCHOR0
 385              		.cfi_endproc
 386              	.LFE72:
 387              		.size	date2days, .-date2days
 388              		.section	.text.time2ulong,"ax",%progbits
 389              		.align	2
 390              		.global	time2ulong
 391              		.thumb
 392              		.thumb_func
 393              		.type	time2ulong, %function
 394              	time2ulong:
 395              	.LFB73:
 113:.\ds3231.c    **** 
 114:.\ds3231.c    **** /**************************************************************************/
 115:.\ds3231.c    **** /*!
 116:.\ds3231.c    ****     @brief  Given a number of days, hours, minutes, and seconds, return the
ARM GAS  C:\Users\jaohe\AppData\Local\Temp\ccBfMVgu.s 			page 10


 117:.\ds3231.c    ****    total seconds
 118:.\ds3231.c    ****     @param days Days
 119:.\ds3231.c    ****     @param h Hours
 120:.\ds3231.c    ****     @param m Minutes
 121:.\ds3231.c    ****     @param s Seconds
 122:.\ds3231.c    ****     @return Number of seconds total
 123:.\ds3231.c    **** */
 124:.\ds3231.c    **** /**************************************************************************/
 125:.\ds3231.c    **** uint32_t time2ulong(uint16_t days, uint8_t h, uint8_t m, uint8_t s) {
 396              		.loc 1 125 0
 397              		.cfi_startproc
 398              		@ args = 0, pretend = 0, frame = 0
 399              		@ frame_needed = 0, uses_anonymous_args = 0
 400              		@ link register save eliminated.
 401              	.LVL27:
 126:.\ds3231.c    ****   return ((days * 24UL + h) * 60 + m) * 60 + s;
 402              		.loc 1 126 0
 403 0000 00EB4000 		add	r0, r0, r0, lsl #1
 404              	.LVL28:
 405 0004 C000     		lsls	r0, r0, #3
 406 0006 0144     		add	r1, r1, r0
 407              	.LVL29:
 408 0008 C1EB0110 		rsb	r0, r1, r1, lsl #4
 409 000c 8000     		lsls	r0, r0, #2
 410 000e 0244     		add	r2, r2, r0
 411              	.LVL30:
 412 0010 C2EB0210 		rsb	r0, r2, r2, lsl #4
 413 0014 8000     		lsls	r0, r0, #2
 127:.\ds3231.c    **** }
 414              		.loc 1 127 0
 415 0016 1844     		add	r0, r0, r3
 416 0018 7047     		bx	lr
 417              		.cfi_endproc
 418              	.LFE73:
 419              		.size	time2ulong, .-time2ulong
 420 001a 00BF     		.section	.text.dt_fromUnix,"ax",%progbits
 421              		.align	2
 422              		.global	dt_fromUnix
 423              		.thumb
 424              		.thumb_func
 425              		.type	dt_fromUnix, %function
 426              	dt_fromUnix:
 427              	.LFB74:
 128:.\ds3231.c    **** 
 129:.\ds3231.c    **** // these were adapted from DateTime classes to build DateTime structs
 130:.\ds3231.c    **** /**************************************************************************/
 131:.\ds3231.c    **** /*!
 132:.\ds3231.c    ****     @brief  Constructor from
 133:.\ds3231.c    ****         [Unix time](https://en.wikipedia.org/wiki/Unix_time).
 134:.\ds3231.c    ****     This builds a DateTime from an integer specifying the number of seconds
 135:.\ds3231.c    ****     elapsed since the epoch: 1970-01-01 00:00:00. This number is analogous
 136:.\ds3231.c    ****     to Unix time, with two small differences:
 137:.\ds3231.c    ****      - The Unix epoch is specified to be at 00:00:00
 138:.\ds3231.c    ****        [UTC](https://en.wikipedia.org/wiki/Coordinated_Universal_Time),
 139:.\ds3231.c    ****        whereas this class has no notion of time zones. The epoch used in
 140:.\ds3231.c    ****        this class is then at 00:00:00 on whatever time zone the user chooses
 141:.\ds3231.c    ****        to use, ignoring changes in DST.
ARM GAS  C:\Users\jaohe\AppData\Local\Temp\ccBfMVgu.s 			page 11


 142:.\ds3231.c    ****      - Unix time is conventionally represented with signed numbers, whereas
 143:.\ds3231.c    ****        this constructor takes an unsigned argument. Because of this, it does
 144:.\ds3231.c    ****        _not_ suffer from the
 145:.\ds3231.c    ****        [year 2038 problem](https://en.wikipedia.org/wiki/Year_2038_problem).
 146:.\ds3231.c    ****     If called without argument, it returns the earliest time representable
 147:.\ds3231.c    ****     by this class: 2000-01-01 00:00:00.
 148:.\ds3231.c    ****     @see The `unixtime()` method is the converse of this constructor.
 149:.\ds3231.c    ****     @param t Time elapsed in seconds since 1970-01-01 00:00:00.
 150:.\ds3231.c    **** */
 151:.\ds3231.c    **** /**************************************************************************/
 152:.\ds3231.c    **** DateTime dt_fromUnix(uint32_t t) {
 428              		.loc 1 152 0
 429              		.cfi_startproc
 430              		@ args = 0, pretend = 0, frame = 0
 431              		@ frame_needed = 0, uses_anonymous_args = 0
 432              		@ link register save eliminated.
 433              	.LVL31:
 434 0000 30B4     		push	{r4, r5}
 435              		.cfi_def_cfa_offset 8
 436              		.cfi_offset 4, -8
 437              		.cfi_offset 5, -4
 153:.\ds3231.c    ****   t -= SECONDS_FROM_1970_TO_2000; // bring to 2000 timestamp from 1970
 438              		.loc 1 153 0
 439 0002 2B4C     		ldr	r4, .L39
 440 0004 0C44     		add	r4, r4, r1
 441              	.LVL32:
 154:.\ds3231.c    **** 
 155:.\ds3231.c    ****   DateTime dt = {};
 442              		.loc 1 155 0
 443 0006 0346     		mov	r3, r0
 444 0008 0022     		movs	r2, #0
 445 000a 03F8012B 		strb	r2, [r3], #1
 446 000e 4270     		strb	r2, [r0, #1]
 447 0010 0133     		adds	r3, r3, #1
 448 0012 03F8012B 		strb	r2, [r3], #1
 449 0016 03F8012B 		strb	r2, [r3], #1
 450 001a 03F8012B 		strb	r2, [r3], #1
 451 001e 1A70     		strb	r2, [r3]
 156:.\ds3231.c    ****   dt.ss = t % 60;
 452              		.loc 1 156 0
 453 0020 244B     		ldr	r3, .L39+4
 454 0022 A3FB0412 		umull	r1, r2, r3, r4
 455 0026 5209     		lsrs	r2, r2, #5
 456 0028 1546     		mov	r5, r2
 457 002a C2EB0212 		rsb	r2, r2, r2, lsl #4
 458 002e 9200     		lsls	r2, r2, #2
 459 0030 A21A     		subs	r2, r4, r2
 460 0032 4271     		strb	r2, [r0, #5]
 461              	.LVL33:
 157:.\ds3231.c    ****   t /= 60;
 158:.\ds3231.c    ****   dt.mm = t % 60;
 462              		.loc 1 158 0
 463 0034 A3FB0523 		umull	r2, r3, r3, r5
 464 0038 5B09     		lsrs	r3, r3, #5
 465 003a 1946     		mov	r1, r3
 466 003c C3EB0313 		rsb	r3, r3, r3, lsl #4
 467 0040 9B00     		lsls	r3, r3, #2
ARM GAS  C:\Users\jaohe\AppData\Local\Temp\ccBfMVgu.s 			page 12


 468 0042 EB1A     		subs	r3, r5, r3
 469 0044 0371     		strb	r3, [r0, #4]
 470              	.LVL34:
 159:.\ds3231.c    ****   t /= 60;
 160:.\ds3231.c    ****   dt.hh = t % 24;
 471              		.loc 1 160 0
 472 0046 1C4A     		ldr	r2, .L39+8
 473 0048 A2FB0132 		umull	r3, r2, r2, r1
 474 004c 1209     		lsrs	r2, r2, #4
 475 004e 1346     		mov	r3, r2
 476 0050 02EB4202 		add	r2, r2, r2, lsl #1
 477 0054 D200     		lsls	r2, r2, #3
 478 0056 8A1A     		subs	r2, r1, r2
 479 0058 C270     		strb	r2, [r0, #3]
 161:.\ds3231.c    ****   uint16_t days = t / 24;
 480              		.loc 1 161 0
 481 005a 9BB2     		uxth	r3, r3
 482              	.LVL35:
 483              	.L33:
 162:.\ds3231.c    ****   uint8_t leap;
 163:.\ds3231.c    ****   for (dt.yOff = 0;; ++dt.yOff) {
 164:.\ds3231.c    ****     leap = dt.yOff % 4 == 0;
 484              		.loc 1 164 0
 485 005c 0278     		ldrb	r2, [r0]	@ zero_extendqisi2
 486 005e 12F0030F 		tst	r2, #3
 487 0062 0CBF     		ite	eq
 488 0064 0124     		moveq	r4, #1
 489 0066 0024     		movne	r4, #0
 490              	.LVL36:
 165:.\ds3231.c    ****     if (days < 365U + leap)
 491              		.loc 1 165 0
 492 0068 04F26D11 		addw	r1, r4, #365
 493 006c 8B42     		cmp	r3, r1
 494 006e 06D3     		bcc	.L32
 166:.\ds3231.c    ****       break;
 167:.\ds3231.c    ****     days -= 365 + leap;
 495              		.loc 1 167 0
 496 0070 1B1B     		subs	r3, r3, r4
 497              	.LVL37:
 498 0072 A3F26D13 		subw	r3, r3, #365
 499 0076 9BB2     		uxth	r3, r3
 500              	.LVL38:
 163:.\ds3231.c    ****     leap = dt.yOff % 4 == 0;
 501              		.loc 1 163 0
 502 0078 0132     		adds	r2, r2, #1
 503 007a 0270     		strb	r2, [r0]
 168:.\ds3231.c    ****   }
 504              		.loc 1 168 0
 505 007c EEE7     		b	.L33
 506              	.L32:
 169:.\ds3231.c    ****   for (dt.m = 1; dt.m < 12; ++dt.m) {
 507              		.loc 1 169 0
 508 007e 0122     		movs	r2, #1
 509 0080 4270     		strb	r2, [r0, #1]
 510 0082 0EE0     		b	.L34
 511              	.LVL39:
 512              	.L37:
ARM GAS  C:\Users\jaohe\AppData\Local\Temp\ccBfMVgu.s 			page 13


 513              	.LBB2:
 170:.\ds3231.c    ****     uint8_t daysPerMonth = pgm_read_byte(daysInMonth + dt.m - 1);
 514              		.loc 1 170 0
 515 0084 4A1E     		subs	r2, r1, #1
 516 0086 0D4D     		ldr	r5, .L39+12
 517 0088 AA5C     		ldrb	r2, [r5, r2]	@ zero_extendqisi2
 518              	.LVL40:
 171:.\ds3231.c    ****     if (leap && dt.m == 2)
 519              		.loc 1 171 0
 520 008a 1CB1     		cbz	r4, .L35
 521              		.loc 1 171 0 is_stmt 0 discriminator 1
 522 008c 0229     		cmp	r1, #2
 523 008e 01D1     		bne	.L35
 172:.\ds3231.c    ****       ++daysPerMonth;
 524              		.loc 1 172 0 is_stmt 1
 525 0090 0132     		adds	r2, r2, #1
 526              	.LVL41:
 527 0092 D2B2     		uxtb	r2, r2
 528              	.LVL42:
 529              	.L35:
 173:.\ds3231.c    ****     if (days < daysPerMonth)
 530              		.loc 1 173 0
 531 0094 92B2     		uxth	r2, r2
 532              	.LVL43:
 533 0096 9A42     		cmp	r2, r3
 534 0098 06D8     		bhi	.L36
 174:.\ds3231.c    ****       break;
 175:.\ds3231.c    ****     days -= daysPerMonth;
 535              		.loc 1 175 0 discriminator 2
 536 009a 9B1A     		subs	r3, r3, r2
 537              	.LVL44:
 538 009c 9BB2     		uxth	r3, r3
 539              	.LVL45:
 540              	.LBE2:
 169:.\ds3231.c    ****     uint8_t daysPerMonth = pgm_read_byte(daysInMonth + dt.m - 1);
 541              		.loc 1 169 0 discriminator 2
 542 009e 0131     		adds	r1, r1, #1
 543 00a0 4170     		strb	r1, [r0, #1]
 544              	.L34:
 169:.\ds3231.c    ****     uint8_t daysPerMonth = pgm_read_byte(daysInMonth + dt.m - 1);
 545              		.loc 1 169 0 is_stmt 0 discriminator 1
 546 00a2 4178     		ldrb	r1, [r0, #1]	@ zero_extendqisi2
 547 00a4 0B29     		cmp	r1, #11
 548 00a6 EDD9     		bls	.L37
 549              	.L36:
 176:.\ds3231.c    ****   }
 177:.\ds3231.c    ****   dt.d = days + 1;
 550              		.loc 1 177 0 is_stmt 1
 551 00a8 0133     		adds	r3, r3, #1
 552              	.LVL46:
 553 00aa 8370     		strb	r3, [r0, #2]
 178:.\ds3231.c    **** 
 179:.\ds3231.c    ****   return dt;
 180:.\ds3231.c    **** }
 554              		.loc 1 180 0
 555 00ac 30BC     		pop	{r4, r5}
 556              		.cfi_restore 5
ARM GAS  C:\Users\jaohe\AppData\Local\Temp\ccBfMVgu.s 			page 14


 557              		.cfi_restore 4
 558              		.cfi_def_cfa_offset 0
 559              	.LVL47:
 560 00ae 7047     		bx	lr
 561              	.L40:
 562              		.align	2
 563              	.L39:
 564 00b0 80BC92C7 		.word	-946684800
 565 00b4 89888888 		.word	-2004318071
 566 00b8 ABAAAAAA 		.word	-1431655765
 567 00bc 00000000 		.word	.LANCHOR0
 568              		.cfi_endproc
 569              	.LFE74:
 570              		.size	dt_fromUnix, .-dt_fromUnix
 571              		.section	.text.dt_fromYMD,"ax",%progbits
 572              		.align	2
 573              		.global	dt_fromYMD
 574              		.thumb
 575              		.thumb_func
 576              		.type	dt_fromYMD, %function
 577              	dt_fromYMD:
 578              	.LFB75:
 181:.\ds3231.c    **** 
 182:.\ds3231.c    **** /**************************************************************************/
 183:.\ds3231.c    **** /*!
 184:.\ds3231.c    ****     @brief  Constructor from (year, month, day, hour, minute, second).
 185:.\ds3231.c    ****     @warning If the provided parameters are not valid (e.g. 31 February),
 186:.\ds3231.c    ****            the constructed DateTime will be invalid.
 187:.\ds3231.c    ****     @see   The `isValid()` method can be used to test whether the
 188:.\ds3231.c    ****            constructed DateTime is valid.
 189:.\ds3231.c    ****     @param year Either the full year (range: 2000--2099) or the offset from
 190:.\ds3231.c    ****         year 2000 (range: 0--99).
 191:.\ds3231.c    ****     @param month Month number (1--12).
 192:.\ds3231.c    ****     @param day Day of the month (1--31).
 193:.\ds3231.c    ****     @param hour,min,sec Hour (0--23), minute (0--59) and second (0--59).
 194:.\ds3231.c    **** */
 195:.\ds3231.c    **** /**************************************************************************/
 196:.\ds3231.c    **** DateTime dt_fromYMD(uint16_t year, uint8_t month, uint8_t day, uint8_t hour,
 197:.\ds3231.c    ****                    uint8_t min, uint8_t sec) {
 579              		.loc 1 197 0
 580              		.cfi_startproc
 581              		@ args = 12, pretend = 0, frame = 0
 582              		@ frame_needed = 0, uses_anonymous_args = 0
 583              		@ link register save eliminated.
 584              	.LVL48:
 585 0000 30B4     		push	{r4, r5}
 586              		.cfi_def_cfa_offset 8
 587              		.cfi_offset 4, -8
 588              		.cfi_offset 5, -4
 198:.\ds3231.c    ****   DateTime dt = {};
 589              		.loc 1 198 0
 590 0002 0446     		mov	r4, r0
 591 0004 0025     		movs	r5, #0
 592 0006 04F8015B 		strb	r5, [r4], #1
 593 000a 4570     		strb	r5, [r0, #1]
 594 000c 0134     		adds	r4, r4, #1
 595 000e 04F8015B 		strb	r5, [r4], #1
ARM GAS  C:\Users\jaohe\AppData\Local\Temp\ccBfMVgu.s 			page 15


 596 0012 04F8015B 		strb	r5, [r4], #1
 597 0016 04F8015B 		strb	r5, [r4], #1
 598 001a 2570     		strb	r5, [r4]
 199:.\ds3231.c    ****   if (year >= 2000)
 599              		.loc 1 199 0
 600 001c B1F5FA6F 		cmp	r1, #2000
 601 0020 02D3     		bcc	.L42
 200:.\ds3231.c    ****     year -= 2000;
 602              		.loc 1 200 0
 603 0022 A1F5FA61 		sub	r1, r1, #2000
 604              	.LVL49:
 605 0026 89B2     		uxth	r1, r1
 606              	.LVL50:
 607              	.L42:
 201:.\ds3231.c    ****   dt.yOff = year;
 608              		.loc 1 201 0
 609 0028 0170     		strb	r1, [r0]
 202:.\ds3231.c    ****   dt.m = month;
 610              		.loc 1 202 0
 611 002a 4270     		strb	r2, [r0, #1]
 203:.\ds3231.c    ****   dt.d = day;
 612              		.loc 1 203 0
 613 002c 8370     		strb	r3, [r0, #2]
 204:.\ds3231.c    ****   dt.hh = hour;
 614              		.loc 1 204 0
 615 002e 9DF80830 		ldrb	r3, [sp, #8]	@ zero_extendqisi2
 616              	.LVL51:
 617 0032 C370     		strb	r3, [r0, #3]
 205:.\ds3231.c    ****   dt.mm = min;
 618              		.loc 1 205 0
 619 0034 9DF80C30 		ldrb	r3, [sp, #12]	@ zero_extendqisi2
 620 0038 0371     		strb	r3, [r0, #4]
 206:.\ds3231.c    ****   dt.ss = sec;
 621              		.loc 1 206 0
 622 003a 9DF81030 		ldrb	r3, [sp, #16]	@ zero_extendqisi2
 623 003e 4371     		strb	r3, [r0, #5]
 207:.\ds3231.c    ****   return dt;
 208:.\ds3231.c    **** }
 624              		.loc 1 208 0
 625 0040 30BC     		pop	{r4, r5}
 626              		.cfi_restore 5
 627              		.cfi_restore 4
 628              		.cfi_def_cfa_offset 0
 629              	.LVL52:
 630 0042 7047     		bx	lr
 631              		.cfi_endproc
 632              	.LFE75:
 633              		.size	dt_fromYMD, .-dt_fromYMD
 634              		.section	.text.dt_getUnixtime,"ax",%progbits
 635              		.align	2
 636              		.global	dt_getUnixtime
 637              		.thumb
 638              		.thumb_func
 639              		.type	dt_getUnixtime, %function
 640              	dt_getUnixtime:
 641              	.LFB76:
 209:.\ds3231.c    ****                
ARM GAS  C:\Users\jaohe\AppData\Local\Temp\ccBfMVgu.s 			page 16


 210:.\ds3231.c    **** /**************************************************************************/
 211:.\ds3231.c    **** /*!
 212:.\ds3231.c    ****     @brief  Return Unix time: seconds since 1 Jan 1970.
 213:.\ds3231.c    ****     @see The `DateTime::DateTime(uint32_t)` constructor is the converse of
 214:.\ds3231.c    ****         this method.
 215:.\ds3231.c    ****     @return Number of seconds since 1970-01-01 00:00:00.
 216:.\ds3231.c    **** */
 217:.\ds3231.c    **** /**************************************************************************/
 218:.\ds3231.c    **** uint32_t dt_getUnixtime(DateTime dt) {
 642              		.loc 1 218 0
 643              		.cfi_startproc
 644              		@ args = 0, pretend = 0, frame = 8
 645              		@ frame_needed = 0, uses_anonymous_args = 0
 646 0000 00B5     		push	{lr}
 647              		.cfi_def_cfa_offset 4
 648              		.cfi_offset 14, -4
 649 0002 83B0     		sub	sp, sp, #12
 650              		.cfi_def_cfa_offset 16
 651 0004 02AB     		add	r3, sp, #8
 652 0006 03E90300 		stmdb	r3, {r0, r1}
 219:.\ds3231.c    ****   uint32_t t;
 220:.\ds3231.c    ****   uint16_t days = date2days(dt.yOff, dt.m, dt.d);
 653              		.loc 1 220 0
 654 000a 9DF80000 		ldrb	r0, [sp]	@ zero_extendqisi2
 655 000e 9DF80110 		ldrb	r1, [sp, #1]	@ zero_extendqisi2
 656 0012 9DF80220 		ldrb	r2, [sp, #2]	@ zero_extendqisi2
 657 0016 FFF7FEFF 		bl	date2days
 658              	.LVL53:
 221:.\ds3231.c    ****   t = time2ulong(days, dt.hh, dt.mm, dt.ss);
 659              		.loc 1 221 0
 660 001a 9DF80310 		ldrb	r1, [sp, #3]	@ zero_extendqisi2
 661 001e 9DF80420 		ldrb	r2, [sp, #4]	@ zero_extendqisi2
 662 0022 9DF80530 		ldrb	r3, [sp, #5]	@ zero_extendqisi2
 663 0026 FFF7FEFF 		bl	time2ulong
 664              	.LVL54:
 222:.\ds3231.c    ****   t += SECONDS_FROM_1970_TO_2000; // seconds from 1970 to 2000
 223:.\ds3231.c    **** 
 224:.\ds3231.c    ****   return t;
 225:.\ds3231.c    **** }
 665              		.loc 1 225 0
 666 002a 00F16150 		add	r0, r0, #943718400
 667              	.LVL55:
 668 002e 00F53510 		add	r0, r0, #2965504
 669              	.LVL56:
 670 0032 00F56070 		add	r0, r0, #896
 671              	.LVL57:
 672 0036 03B0     		add	sp, sp, #12
 673              		.cfi_def_cfa_offset 4
 674              		@ sp needed
 675 0038 5DF804FB 		ldr	pc, [sp], #4
 676              		.cfi_endproc
 677              	.LFE76:
 678              		.size	dt_getUnixtime, .-dt_getUnixtime
 679              		.section	.text.dt_getSecondstime,"ax",%progbits
 680              		.align	2
 681              		.global	dt_getSecondstime
 682              		.thumb
ARM GAS  C:\Users\jaohe\AppData\Local\Temp\ccBfMVgu.s 			page 17


 683              		.thumb_func
 684              		.type	dt_getSecondstime, %function
 685              	dt_getSecondstime:
 686              	.LFB77:
 226:.\ds3231.c    **** 
 227:.\ds3231.c    **** /**************************************************************************/
 228:.\ds3231.c    **** /*!
 229:.\ds3231.c    ****     @brief  Convert the DateTime to seconds since 1 Jan 2000
 230:.\ds3231.c    ****     The result can be converted back to a DateTime with:
 231:.\ds3231.c    ****     ```cpp
 232:.\ds3231.c    ****     DateTime(SECONDS_FROM_1970_TO_2000 + value)
 233:.\ds3231.c    ****     ```
 234:.\ds3231.c    ****     @return Number of seconds since 2000-01-01 00:00:00.
 235:.\ds3231.c    **** */
 236:.\ds3231.c    **** /**************************************************************************/
 237:.\ds3231.c    **** uint32_t dt_getSecondstime(DateTime dt) {
 687              		.loc 1 237 0
 688              		.cfi_startproc
 689              		@ args = 0, pretend = 0, frame = 8
 690              		@ frame_needed = 0, uses_anonymous_args = 0
 691 0000 00B5     		push	{lr}
 692              		.cfi_def_cfa_offset 4
 693              		.cfi_offset 14, -4
 694 0002 83B0     		sub	sp, sp, #12
 695              		.cfi_def_cfa_offset 16
 696 0004 02AB     		add	r3, sp, #8
 697 0006 03E90300 		stmdb	r3, {r0, r1}
 238:.\ds3231.c    ****   uint32_t t;
 239:.\ds3231.c    ****   uint16_t days = date2days(dt.yOff, dt.m, dt.d);
 698              		.loc 1 239 0
 699 000a 9DF80000 		ldrb	r0, [sp]	@ zero_extendqisi2
 700 000e 9DF80110 		ldrb	r1, [sp, #1]	@ zero_extendqisi2
 701 0012 9DF80220 		ldrb	r2, [sp, #2]	@ zero_extendqisi2
 702 0016 FFF7FEFF 		bl	date2days
 703              	.LVL58:
 240:.\ds3231.c    ****   t = time2ulong(days, dt.hh, dt.mm, dt.ss);
 704              		.loc 1 240 0
 705 001a 9DF80310 		ldrb	r1, [sp, #3]	@ zero_extendqisi2
 706 001e 9DF80420 		ldrb	r2, [sp, #4]	@ zero_extendqisi2
 707 0022 9DF80530 		ldrb	r3, [sp, #5]	@ zero_extendqisi2
 708 0026 FFF7FEFF 		bl	time2ulong
 709              	.LVL59:
 241:.\ds3231.c    ****   return t;
 242:.\ds3231.c    **** }
 710              		.loc 1 242 0
 711 002a 03B0     		add	sp, sp, #12
 712              		.cfi_def_cfa_offset 4
 713              		@ sp needed
 714 002c 5DF804FB 		ldr	pc, [sp], #4
 715              		.cfi_endproc
 716              	.LFE77:
 717              		.size	dt_getSecondstime, .-dt_getSecondstime
 718              		.section	.text.bcd2bin,"ax",%progbits
 719              		.align	2
 720              		.global	bcd2bin
 721              		.thumb
 722              		.thumb_func
ARM GAS  C:\Users\jaohe\AppData\Local\Temp\ccBfMVgu.s 			page 18


 723              		.type	bcd2bin, %function
 724              	bcd2bin:
 725              	.LFB78:
 243:.\ds3231.c    **** 
 244:.\ds3231.c    **** /**************************************************************************/
 245:.\ds3231.c    **** /*!
 246:.\ds3231.c    ****     @brief  Convert a binary coded decimal value to binary. RTC stores time/date
 247:.\ds3231.c    ****    values as BCD.
 248:.\ds3231.c    ****     @param val BCD value
 249:.\ds3231.c    ****     @return Binary value
 250:.\ds3231.c    **** */
 251:.\ds3231.c    **** /**************************************************************************/
 252:.\ds3231.c    **** uint8_t bcd2bin(uint8_t val) { return val - 6 * (val >> 4); }
 726              		.loc 1 252 0
 727              		.cfi_startproc
 728              		@ args = 0, pretend = 0, frame = 0
 729              		@ frame_needed = 0, uses_anonymous_args = 0
 730              		@ link register save eliminated.
 731              	.LVL60:
 732              		.loc 1 252 0
 733 0000 0309     		lsrs	r3, r0, #4
 734 0002 A3EB8303 		sub	r3, r3, r3, lsl #2
 735 0006 5A00     		lsls	r2, r3, #1
 736 0008 1044     		add	r0, r0, r2
 737              	.LVL61:
 738 000a C0B2     		uxtb	r0, r0
 739 000c 7047     		bx	lr
 740              		.cfi_endproc
 741              	.LFE78:
 742              		.size	bcd2bin, .-bcd2bin
 743 000e 00BF     		.section	.text.bin2bcd,"ax",%progbits
 744              		.align	2
 745              		.global	bin2bcd
 746              		.thumb
 747              		.thumb_func
 748              		.type	bin2bcd, %function
 749              	bin2bcd:
 750              	.LFB79:
 253:.\ds3231.c    **** 
 254:.\ds3231.c    **** /**************************************************************************/
 255:.\ds3231.c    **** /*!
 256:.\ds3231.c    ****     @brief  Convert a binary value to BCD format for the RTC registers
 257:.\ds3231.c    ****     @param val Binary value
 258:.\ds3231.c    ****     @return BCD value
 259:.\ds3231.c    **** */
 260:.\ds3231.c    **** /**************************************************************************/
 261:.\ds3231.c    **** uint8_t bin2bcd(uint8_t val) { return val + 6 * (val / 10); }
 751              		.loc 1 261 0
 752              		.cfi_startproc
 753              		@ args = 0, pretend = 0, frame = 0
 754              		@ frame_needed = 0, uses_anonymous_args = 0
 755              		@ link register save eliminated.
 756              	.LVL62:
 757              		.loc 1 261 0
 758 0000 044B     		ldr	r3, .L50
 759 0002 A3FB0023 		umull	r2, r3, r3, r0
 760 0006 DB08     		lsrs	r3, r3, #3
ARM GAS  C:\Users\jaohe\AppData\Local\Temp\ccBfMVgu.s 			page 19


 761 0008 03EB4303 		add	r3, r3, r3, lsl #1
 762 000c 5A00     		lsls	r2, r3, #1
 763 000e 1044     		add	r0, r0, r2
 764              	.LVL63:
 765 0010 C0B2     		uxtb	r0, r0
 766 0012 7047     		bx	lr
 767              	.L51:
 768              		.align	2
 769              	.L50:
 770 0014 CDCCCCCC 		.word	-858993459
 771              		.cfi_endproc
 772              	.LFE79:
 773              		.size	bin2bcd, .-bin2bcd
 774              		.section	.text.RTC_setTime,"ax",%progbits
 775              		.align	2
 776              		.global	RTC_setTime
 777              		.thumb
 778              		.thumb_func
 779              		.type	RTC_setTime, %function
 780              	RTC_setTime:
 781              	.LFB80:
 262:.\ds3231.c    **** 
 263:.\ds3231.c    **** // DS3231 stuff!
 264:.\ds3231.c    **** /**************************************************************************/
 265:.\ds3231.c    **** /*!
 266:.\ds3231.c    ****     @brief  Set the date and flip the Oscillator Stop Flag
 267:.\ds3231.c    ****     @param dt DateTime object containing the date/time to set
 268:.\ds3231.c    **** */
 269:.\ds3231.c    **** /**************************************************************************/
 270:.\ds3231.c    **** void RTC_setTime(DateTime dt) {
 782              		.loc 1 270 0
 783              		.cfi_startproc
 784              		@ args = 0, pretend = 0, frame = 16
 785              		@ frame_needed = 0, uses_anonymous_args = 0
 786 0000 30B5     		push	{r4, r5, lr}
 787              		.cfi_def_cfa_offset 12
 788              		.cfi_offset 4, -12
 789              		.cfi_offset 5, -8
 790              		.cfi_offset 14, -4
 791 0002 85B0     		sub	sp, sp, #20
 792              		.cfi_def_cfa_offset 32
 793 0004 8DE80300 		stmia	sp, {r0, r1}
 271:.\ds3231.c    **** //    I2CRTC_MasterSendStart(DS3231_ADDRESS,0); // send write command to addr
 272:.\ds3231.c    **** //    I2CRTC_MasterWriteByte(DS3231_TIME);// start at location 0
 273:.\ds3231.c    ****     uint8 tx_buff[8] = {
 794              		.loc 1 273 0
 795 0008 0025     		movs	r5, #0
 796 000a 8DF80850 		strb	r5, [sp, #8]
 274:.\ds3231.c    ****         0,
 275:.\ds3231.c    ****         bin2bcd(dt_getSecond(dt)),
 797              		.loc 1 275 0
 798 000e 9DE80300 		ldmia	sp, {r0, r1}
 799 0012 FFF7FEFF 		bl	dt_getSecond
 800              	.LVL64:
 801 0016 FFF7FEFF 		bl	bin2bcd
 802              	.LVL65:
 273:.\ds3231.c    ****         0,
ARM GAS  C:\Users\jaohe\AppData\Local\Temp\ccBfMVgu.s 			page 20


 803              		.loc 1 273 0
 804 001a 8DF80900 		strb	r0, [sp, #9]
 276:.\ds3231.c    ****         bin2bcd(dt_getMinute(dt)),
 805              		.loc 1 276 0
 806 001e 9DE80300 		ldmia	sp, {r0, r1}
 807 0022 FFF7FEFF 		bl	dt_getMinute
 808              	.LVL66:
 809 0026 FFF7FEFF 		bl	bin2bcd
 810              	.LVL67:
 273:.\ds3231.c    ****         0,
 811              		.loc 1 273 0
 812 002a 8DF80A00 		strb	r0, [sp, #10]
 277:.\ds3231.c    ****         bin2bcd(dt_getHour(dt)),
 813              		.loc 1 277 0
 814 002e 9DE80300 		ldmia	sp, {r0, r1}
 815 0032 FFF7FEFF 		bl	dt_getHour
 816              	.LVL68:
 817 0036 FFF7FEFF 		bl	bin2bcd
 818              	.LVL69:
 273:.\ds3231.c    ****         0,
 819              		.loc 1 273 0
 820 003a 8DF80B00 		strb	r0, [sp, #11]
 821 003e 8DF80C50 		strb	r5, [sp, #12]
 278:.\ds3231.c    ****         0,
 279:.\ds3231.c    ****         bin2bcd(dt_getDay(dt)),
 822              		.loc 1 279 0
 823 0042 9DE80300 		ldmia	sp, {r0, r1}
 824 0046 FFF7FEFF 		bl	dt_getDay
 825              	.LVL70:
 826 004a FFF7FEFF 		bl	bin2bcd
 827              	.LVL71:
 273:.\ds3231.c    ****         0,
 828              		.loc 1 273 0
 829 004e 8DF80D00 		strb	r0, [sp, #13]
 280:.\ds3231.c    ****         bin2bcd(dt_getMonth(dt)),
 830              		.loc 1 280 0
 831 0052 9DE80300 		ldmia	sp, {r0, r1}
 832 0056 FFF7FEFF 		bl	dt_getMonth
 833              	.LVL72:
 834 005a FFF7FEFF 		bl	bin2bcd
 835              	.LVL73:
 273:.\ds3231.c    ****         0,
 836              		.loc 1 273 0
 837 005e 8DF80E00 		strb	r0, [sp, #14]
 281:.\ds3231.c    ****         bin2bcd(dt_getYear(dt)-2000),
 838              		.loc 1 281 0
 839 0062 9DE80300 		ldmia	sp, {r0, r1}
 840 0066 FFF7FEFF 		bl	dt_getYear
 841              	.LVL74:
 842 006a 3030     		adds	r0, r0, #48
 843 006c C0B2     		uxtb	r0, r0
 844 006e FFF7FEFF 		bl	bin2bcd
 845              	.LVL75:
 273:.\ds3231.c    ****         0,
 846              		.loc 1 273 0
 847 0072 8DF80F00 		strb	r0, [sp, #15]
 282:.\ds3231.c    ****     };
ARM GAS  C:\Users\jaohe\AppData\Local\Temp\ccBfMVgu.s 			page 21


 283:.\ds3231.c    ****     I2CRTC_MasterWriteBuf(DS3231_ADDRESS,tx_buff,8,I2CRTC_MODE_COMPLETE_XFER );   // Send read star
 848              		.loc 1 283 0
 849 0076 6820     		movs	r0, #104
 850 0078 02A9     		add	r1, sp, #8
 851 007a 0822     		movs	r2, #8
 852 007c 2B46     		mov	r3, r5
 853 007e FFF7FEFF 		bl	I2CRTC_MasterWriteBuf
 854              	.LVL76:
 855              	.L53:
 284:.\ds3231.c    ****     while(0u == (I2CRTC_MasterStatus() & I2CRTC_MSTAT_WR_CMPLT));      // Waiting for writing
 856              		.loc 1 284 0 discriminator 1
 857 0082 FFF7FEFF 		bl	I2CRTC_MasterStatus
 858              	.LVL77:
 859 0086 10F0020F 		tst	r0, #2
 860 008a FAD0     		beq	.L53
 285:.\ds3231.c    ****     I2CRTC_MasterClearStatus(); 
 861              		.loc 1 285 0
 862 008c FFF7FEFF 		bl	I2CRTC_MasterClearStatus
 863              	.LVL78:
 286:.\ds3231.c    **** }
 864              		.loc 1 286 0
 865 0090 05B0     		add	sp, sp, #20
 866              		.cfi_def_cfa_offset 12
 867              		@ sp needed
 868 0092 30BD     		pop	{r4, r5, pc}
 869              		.cfi_endproc
 870              	.LFE80:
 871              		.size	RTC_setTime, .-RTC_setTime
 872              		.section	.text.RTC_now,"ax",%progbits
 873              		.align	2
 874              		.global	RTC_now
 875              		.thumb
 876              		.thumb_func
 877              		.type	RTC_now, %function
 878              	RTC_now:
 879              	.LFB81:
 287:.\ds3231.c    **** 
 288:.\ds3231.c    **** /**************************************************************************/
 289:.\ds3231.c    **** /*!
 290:.\ds3231.c    ****     @brief  Get the current date/time
 291:.\ds3231.c    ****     @return DateTime object with the current date/time
 292:.\ds3231.c    **** */
 293:.\ds3231.c    **** /**************************************************************************/
 294:.\ds3231.c    **** DateTime RTC_now() {
 880              		.loc 1 294 0
 881              		.cfi_startproc
 882              		@ args = 0, pretend = 0, frame = 8
 883              		@ frame_needed = 0, uses_anonymous_args = 0
 884              	.LVL79:
 885 0000 2DE9F047 		push	{r4, r5, r6, r7, r8, r9, r10, lr}
 886              		.cfi_def_cfa_offset 32
 887              		.cfi_offset 4, -32
 888              		.cfi_offset 5, -28
 889              		.cfi_offset 6, -24
 890              		.cfi_offset 7, -20
 891              		.cfi_offset 8, -16
 892              		.cfi_offset 9, -12
ARM GAS  C:\Users\jaohe\AppData\Local\Temp\ccBfMVgu.s 			page 22


 893              		.cfi_offset 10, -8
 894              		.cfi_offset 14, -4
 895 0004 82B0     		sub	sp, sp, #8
 896              		.cfi_def_cfa_offset 40
 897 0006 0446     		mov	r4, r0
 295:.\ds3231.c    ****     uint8 tx_buff[1] = {0};
 898              		.loc 1 295 0
 899 0008 0023     		movs	r3, #0
 900 000a 02A9     		add	r1, sp, #8
 901 000c 01F8043D 		strb	r3, [r1, #-4]!
 296:.\ds3231.c    ****     I2CRTC_MasterWriteBuf(DS3231_ADDRESS,tx_buff,1,I2CRTC_MODE_COMPLETE_XFER );   // Send read star
 902              		.loc 1 296 0
 903 0010 6820     		movs	r0, #104
 904              	.LVL80:
 905 0012 0122     		movs	r2, #1
 906 0014 FFF7FEFF 		bl	I2CRTC_MasterWriteBuf
 907              	.LVL81:
 908              	.L56:
 297:.\ds3231.c    ****     while(0u == (I2CRTC_MasterStatus() & I2CRTC_MSTAT_WR_CMPLT));      // Waiting for writing
 909              		.loc 1 297 0 discriminator 1
 910 0018 FFF7FEFF 		bl	I2CRTC_MasterStatus
 911              	.LVL82:
 912 001c 10F0020F 		tst	r0, #2
 913 0020 FAD0     		beq	.L56
 298:.\ds3231.c    ****     I2CRTC_MasterClearStatus();  
 914              		.loc 1 298 0
 915 0022 FFF7FEFF 		bl	I2CRTC_MasterClearStatus
 916              	.LVL83:
 299:.\ds3231.c    ****     
 300:.\ds3231.c    ****     I2CRTC_MasterReadBuf(DS3231_ADDRESS, RTC_read_buff, 7, I2CRTC_MODE_COMPLETE_XFER);
 917              		.loc 1 300 0
 918 0026 6820     		movs	r0, #104
 919 0028 1A49     		ldr	r1, .L59
 920 002a 0722     		movs	r2, #7
 921 002c 0023     		movs	r3, #0
 922 002e FFF7FEFF 		bl	I2CRTC_MasterReadBuf
 923              	.LVL84:
 924              	.L57:
 301:.\ds3231.c    ****     while(0u == (I2CRTC_MasterStatus() & I2CRTC_MSTAT_RD_CMPLT));      // Wait for read to finish
 925              		.loc 1 301 0 discriminator 1
 926 0032 FFF7FEFF 		bl	I2CRTC_MasterStatus
 927              	.LVL85:
 928 0036 10F0010F 		tst	r0, #1
 929 003a FAD0     		beq	.L57
 302:.\ds3231.c    ****     I2CRTC_MasterClearStatus();
 930              		.loc 1 302 0
 931 003c FFF7FEFF 		bl	I2CRTC_MasterClearStatus
 932              	.LVL86:
 303:.\ds3231.c    ****     
 304:.\ds3231.c    ****     uint8_t ss = bcd2bin(RTC_read_buff[0] & 0x7F);
 933              		.loc 1 304 0
 934 0040 144D     		ldr	r5, .L59
 935 0042 2878     		ldrb	r0, [r5]	@ zero_extendqisi2
 936 0044 00F07F00 		and	r0, r0, #127
 937 0048 FFF7FEFF 		bl	bcd2bin
 938              	.LVL87:
 939 004c 0646     		mov	r6, r0
ARM GAS  C:\Users\jaohe\AppData\Local\Temp\ccBfMVgu.s 			page 23


 940              	.LVL88:
 305:.\ds3231.c    ****     uint8_t mm = bcd2bin(RTC_read_buff[1]);
 941              		.loc 1 305 0
 942 004e 6878     		ldrb	r0, [r5, #1]	@ zero_extendqisi2
 943 0050 FFF7FEFF 		bl	bcd2bin
 944              	.LVL89:
 945 0054 0746     		mov	r7, r0
 946              	.LVL90:
 306:.\ds3231.c    ****     uint8_t hh = bcd2bin(RTC_read_buff[2]);
 947              		.loc 1 306 0
 948 0056 A878     		ldrb	r0, [r5, #2]	@ zero_extendqisi2
 949 0058 FFF7FEFF 		bl	bcd2bin
 950              	.LVL91:
 951 005c 8046     		mov	r8, r0
 952              	.LVL92:
 307:.\ds3231.c    ****     uint8_t d = bcd2bin(RTC_read_buff[4]);
 953              		.loc 1 307 0
 954 005e 2879     		ldrb	r0, [r5, #4]	@ zero_extendqisi2
 955 0060 FFF7FEFF 		bl	bcd2bin
 956              	.LVL93:
 957 0064 8146     		mov	r9, r0
 958              	.LVL94:
 308:.\ds3231.c    ****     uint8_t m = bcd2bin(RTC_read_buff[5]);
 959              		.loc 1 308 0
 960 0066 6879     		ldrb	r0, [r5, #5]	@ zero_extendqisi2
 961 0068 FFF7FEFF 		bl	bcd2bin
 962              	.LVL95:
 963 006c 8246     		mov	r10, r0
 964              	.LVL96:
 309:.\ds3231.c    ****     uint16_t yOff = bcd2bin(RTC_read_buff[6]);
 965              		.loc 1 309 0
 966 006e A879     		ldrb	r0, [r5, #6]	@ zero_extendqisi2
 967 0070 FFF7FEFF 		bl	bcd2bin
 968              	.LVL97:
 969 0074 0546     		mov	r5, r0
 970              	.LVL98:
 310:.\ds3231.c    ****     I2CRTC_MasterClearReadBuf();
 971              		.loc 1 310 0
 972 0076 FFF7FEFF 		bl	I2CRTC_MasterClearReadBuf
 973              	.LVL99:
 311:.\ds3231.c    **** 
 312:.\ds3231.c    ****     DateTime dt = {yOff, m, d, hh, mm, ss};
 974              		.loc 1 312 0
 975 007a 2570     		strb	r5, [r4]
 976 007c 84F801A0 		strb	r10, [r4, #1]
 977 0080 84F80290 		strb	r9, [r4, #2]
 978 0084 84F80380 		strb	r8, [r4, #3]
 979 0088 2771     		strb	r7, [r4, #4]
 980 008a 6671     		strb	r6, [r4, #5]
 313:.\ds3231.c    ****     return dt;
 314:.\ds3231.c    **** }
 981              		.loc 1 314 0
 982 008c 2046     		mov	r0, r4
 983 008e 02B0     		add	sp, sp, #8
 984              		.cfi_def_cfa_offset 32
 985              		@ sp needed
 986 0090 BDE8F087 		pop	{r4, r5, r6, r7, r8, r9, r10, pc}
ARM GAS  C:\Users\jaohe\AppData\Local\Temp\ccBfMVgu.s 			page 24


 987              	.LVL100:
 988              	.L60:
 989              		.align	2
 990              	.L59:
 991 0094 00000000 		.word	RTC_read_buff
 992              		.cfi_endproc
 993              	.LFE81:
 994              		.size	RTC_now, .-RTC_now
 995              		.section	.text.tick_isr_init,"ax",%progbits
 996              		.align	2
 997              		.global	tick_isr_init
 998              		.thumb
 999              		.thumb_func
 1000              		.type	tick_isr_init, %function
 1001              	tick_isr_init:
 1002              	.LFB82:
 315:.\ds3231.c    **** 
 316:.\ds3231.c    **** // sqw, alarm and temperature functionality not ported yet, see adafruit RTClib
 317:.\ds3231.c    **** 
 318:.\ds3231.c    **** /* [] END OF FILE */
 319:.\ds3231.c    **** 
 320:.\ds3231.c    **** // EGHOSA ADDED FUNCTIONS
 321:.\ds3231.c    **** 
 322:.\ds3231.c    **** 
 323:.\ds3231.c    **** int tick_isr_init(){
 1003              		.loc 1 323 0
 1004              		.cfi_startproc
 1005              		@ args = 0, pretend = 0, frame = 8
 1006              		@ frame_needed = 0, uses_anonymous_args = 0
 1007 0000 10B5     		push	{r4, lr}
 1008              		.cfi_def_cfa_offset 8
 1009              		.cfi_offset 4, -8
 1010              		.cfi_offset 14, -4
 1011 0002 82B0     		sub	sp, sp, #8
 1012              		.cfi_def_cfa_offset 16
 324:.\ds3231.c    ****     int status = I2CRTC_MasterWriteBuf(DS3231_ADDRESS,
 325:.\ds3231.c    ****                       (uint8_t[]){DS3231_CONTROL, 0b00000111},  // 0x0E = Control
 1013              		.loc 1 325 0
 1014 0004 0A4B     		ldr	r3, .L64
 1015 0006 1B88     		ldrh	r3, [r3]	@ unaligned
 1016 0008 ADF80430 		strh	r3, [sp, #4]	@ unaligned
 324:.\ds3231.c    ****     int status = I2CRTC_MasterWriteBuf(DS3231_ADDRESS,
 1017              		.loc 1 324 0
 1018 000c 6820     		movs	r0, #104
 1019 000e 01A9     		add	r1, sp, #4
 1020 0010 0222     		movs	r2, #2
 1021 0012 0023     		movs	r3, #0
 1022 0014 FFF7FEFF 		bl	I2CRTC_MasterWriteBuf
 1023              	.LVL101:
 1024 0018 0446     		mov	r4, r0
 1025              	.LVL102:
 1026              	.L62:
 326:.\ds3231.c    ****                       2, I2CRTC_MODE_COMPLETE_XFER);
 327:.\ds3231.c    ****     while(0u == (I2CRTC_MasterStatus() & I2CRTC_MSTAT_WR_CMPLT));      // Waiting for writing
 1027              		.loc 1 327 0 discriminator 1
 1028 001a FFF7FEFF 		bl	I2CRTC_MasterStatus
 1029              	.LVL103:
ARM GAS  C:\Users\jaohe\AppData\Local\Temp\ccBfMVgu.s 			page 25


 1030 001e 10F0020F 		tst	r0, #2
 1031 0022 FAD0     		beq	.L62
 328:.\ds3231.c    ****     I2CRTC_MasterClearStatus();  
 1032              		.loc 1 328 0
 1033 0024 FFF7FEFF 		bl	I2CRTC_MasterClearStatus
 1034              	.LVL104:
 329:.\ds3231.c    ****     return status;
 330:.\ds3231.c    **** }
 1035              		.loc 1 330 0
 1036 0028 2046     		mov	r0, r4
 1037 002a 02B0     		add	sp, sp, #8
 1038              		.cfi_def_cfa_offset 8
 1039              		@ sp needed
 1040 002c 10BD     		pop	{r4, pc}
 1041              	.LVL105:
 1042              	.L65:
 1043 002e 00BF     		.align	2
 1044              	.L64:
 1045 0030 0C000000 		.word	.LANCHOR0+12
 1046              		.cfi_endproc
 1047              	.LFE82:
 1048              		.size	tick_isr_init, .-tick_isr_init
 1049              		.section	.text.RTC_readRegister,"ax",%progbits
 1050              		.align	2
 1051              		.global	RTC_readRegister
 1052              		.thumb
 1053              		.thumb_func
 1054              		.type	RTC_readRegister, %function
 1055              	RTC_readRegister:
 1056              	.LFB83:
 331:.\ds3231.c    **** /*
 332:.\ds3231.c    **** *   Reads 1 byte from the specified RTC register address. 
 333:.\ds3231.c    **** *   Returns the read byte
 334:.\ds3231.c    **** *
 335:.\ds3231.c    **** */
 336:.\ds3231.c    **** uint8_t RTC_readRegister(uint8 address, int offset){
 1057              		.loc 1 336 0
 1058              		.cfi_startproc
 1059              		@ args = 0, pretend = 0, frame = 8
 1060              		@ frame_needed = 0, uses_anonymous_args = 0
 1061              	.LVL106:
 1062 0000 10B5     		push	{r4, lr}
 1063              		.cfi_def_cfa_offset 8
 1064              		.cfi_offset 4, -8
 1065              		.cfi_offset 14, -4
 1066 0002 82B0     		sub	sp, sp, #8
 1067              		.cfi_def_cfa_offset 16
 1068 0004 0C46     		mov	r4, r1
 337:.\ds3231.c    ****     uint8 tx_buff[1] = {address};
 1069              		.loc 1 337 0
 1070 0006 02A9     		add	r1, sp, #8
 1071              	.LVL107:
 1072 0008 01F8040D 		strb	r0, [r1, #-4]!
 338:.\ds3231.c    ****     I2CRTC_MasterWriteBuf(DS3231_ADDRESS,tx_buff,1,I2CRTC_MODE_COMPLETE_XFER );   // Send read star
 1073              		.loc 1 338 0
 1074 000c 6820     		movs	r0, #104
 1075              	.LVL108:
ARM GAS  C:\Users\jaohe\AppData\Local\Temp\ccBfMVgu.s 			page 26


 1076 000e 0122     		movs	r2, #1
 1077 0010 0023     		movs	r3, #0
 1078 0012 FFF7FEFF 		bl	I2CRTC_MasterWriteBuf
 1079              	.LVL109:
 1080              	.L67:
 339:.\ds3231.c    ****     while(0u == (I2CRTC_MasterStatus() & I2CRTC_MSTAT_WR_CMPLT));      // Waiting for writing
 1081              		.loc 1 339 0 discriminator 1
 1082 0016 FFF7FEFF 		bl	I2CRTC_MasterStatus
 1083              	.LVL110:
 1084 001a 10F0020F 		tst	r0, #2
 1085 001e FAD0     		beq	.L67
 340:.\ds3231.c    ****     I2CRTC_MasterClearStatus();  
 1086              		.loc 1 340 0
 1087 0020 FFF7FEFF 		bl	I2CRTC_MasterClearStatus
 1088              	.LVL111:
 341:.\ds3231.c    ****     
 342:.\ds3231.c    ****     I2CRTC_MasterReadBuf(DS3231_ADDRESS,  RTC_read_buff, 1, I2CRTC_MODE_COMPLETE_XFER);
 1089              		.loc 1 342 0
 1090 0024 6820     		movs	r0, #104
 1091 0026 0849     		ldr	r1, .L70
 1092 0028 0122     		movs	r2, #1
 1093 002a 0023     		movs	r3, #0
 1094 002c FFF7FEFF 		bl	I2CRTC_MasterReadBuf
 1095              	.LVL112:
 1096              	.L68:
 343:.\ds3231.c    ****     while(0u == (I2CRTC_MasterStatus() & I2CRTC_MSTAT_RD_CMPLT));      // Wait for read to finish
 1097              		.loc 1 343 0 discriminator 1
 1098 0030 FFF7FEFF 		bl	I2CRTC_MasterStatus
 1099              	.LVL113:
 1100 0034 10F0010F 		tst	r0, #1
 1101 0038 FAD0     		beq	.L68
 344:.\ds3231.c    ****     I2CRTC_MasterClearStatus();
 1102              		.loc 1 344 0
 1103 003a FFF7FEFF 		bl	I2CRTC_MasterClearStatus
 1104              	.LVL114:
 345:.\ds3231.c    ****     
 346:.\ds3231.c    ****     return RTC_read_buff[offset];
 347:.\ds3231.c    **** }
 1105              		.loc 1 347 0
 1106 003e 024B     		ldr	r3, .L70
 1107 0040 185D     		ldrb	r0, [r3, r4]	@ zero_extendqisi2
 1108 0042 02B0     		add	sp, sp, #8
 1109              		.cfi_def_cfa_offset 8
 1110              		@ sp needed
 1111 0044 10BD     		pop	{r4, pc}
 1112              	.LVL115:
 1113              	.L71:
 1114 0046 00BF     		.align	2
 1115              	.L70:
 1116 0048 00000000 		.word	RTC_read_buff
 1117              		.cfi_endproc
 1118              	.LFE83:
 1119              		.size	RTC_readRegister, .-RTC_readRegister
 1120              		.section	.text.RTC_writeRegister,"ax",%progbits
 1121              		.align	2
 1122              		.global	RTC_writeRegister
 1123              		.thumb
ARM GAS  C:\Users\jaohe\AppData\Local\Temp\ccBfMVgu.s 			page 27


 1124              		.thumb_func
 1125              		.type	RTC_writeRegister, %function
 1126              	RTC_writeRegister:
 1127              	.LFB84:
 348:.\ds3231.c    **** int RTC_writeRegister(uint8 address, uint8* data, int num_bytes){
 1128              		.loc 1 348 0
 1129              		.cfi_startproc
 1130              		@ args = 0, pretend = 0, frame = 8
 1131              		@ frame_needed = 0, uses_anonymous_args = 0
 1132              	.LVL116:
 1133 0000 30B5     		push	{r4, r5, lr}
 1134              		.cfi_def_cfa_offset 12
 1135              		.cfi_offset 4, -12
 1136              		.cfi_offset 5, -8
 1137              		.cfi_offset 14, -4
 1138 0002 83B0     		sub	sp, sp, #12
 1139              		.cfi_def_cfa_offset 24
 1140 0004 0D46     		mov	r5, r1
 1141 0006 1446     		mov	r4, r2
 349:.\ds3231.c    ****     // first write the register address we want to send data to
 350:.\ds3231.c    ****     uint8 tx_buff[1] = {address};
 1142              		.loc 1 350 0
 1143 0008 02A9     		add	r1, sp, #8
 1144              	.LVL117:
 1145 000a 01F8040D 		strb	r0, [r1, #-4]!
 351:.\ds3231.c    ****     I2CRTC_MasterWriteBuf(DS3231_ADDRESS,tx_buff,1,I2CRTC_MODE_COMPLETE_XFER );   // Send read star
 1146              		.loc 1 351 0
 1147 000e 6820     		movs	r0, #104
 1148              	.LVL118:
 1149 0010 0122     		movs	r2, #1
 1150              	.LVL119:
 1151 0012 0023     		movs	r3, #0
 1152 0014 FFF7FEFF 		bl	I2CRTC_MasterWriteBuf
 1153              	.LVL120:
 1154              	.L73:
 352:.\ds3231.c    ****     while(0u == (I2CRTC_MasterStatus() & I2CRTC_MSTAT_WR_CMPLT));      // Waiting for writing
 1155              		.loc 1 352 0 discriminator 1
 1156 0018 FFF7FEFF 		bl	I2CRTC_MasterStatus
 1157              	.LVL121:
 1158 001c 10F0020F 		tst	r0, #2
 1159 0020 FAD0     		beq	.L73
 353:.\ds3231.c    ****     I2CRTC_MasterClearStatus();  
 1160              		.loc 1 353 0
 1161 0022 FFF7FEFF 		bl	I2CRTC_MasterClearStatus
 1162              	.LVL122:
 354:.\ds3231.c    ****     
 355:.\ds3231.c    ****  
 356:.\ds3231.c    ****     int status = I2CRTC_MasterWriteBuf(DS3231_ADDRESS,data,num_bytes,I2CRTC_MODE_COMPLETE_XFER );  
 1163              		.loc 1 356 0
 1164 0026 6820     		movs	r0, #104
 1165 0028 2946     		mov	r1, r5
 1166 002a E2B2     		uxtb	r2, r4
 1167 002c 0023     		movs	r3, #0
 1168 002e FFF7FEFF 		bl	I2CRTC_MasterWriteBuf
 1169              	.LVL123:
 1170 0032 0446     		mov	r4, r0
 1171              	.LVL124:
ARM GAS  C:\Users\jaohe\AppData\Local\Temp\ccBfMVgu.s 			page 28


 1172              	.L74:
 357:.\ds3231.c    ****     while(0u == (I2CRTC_MasterStatus() & I2CRTC_MSTAT_WR_CMPLT));      // Waiting for writing
 1173              		.loc 1 357 0 discriminator 1
 1174 0034 FFF7FEFF 		bl	I2CRTC_MasterStatus
 1175              	.LVL125:
 1176 0038 10F0020F 		tst	r0, #2
 1177 003c FAD0     		beq	.L74
 358:.\ds3231.c    ****     return status;
 359:.\ds3231.c    **** }
 1178              		.loc 1 359 0
 1179 003e 2046     		mov	r0, r4
 1180 0040 03B0     		add	sp, sp, #12
 1181              		.cfi_def_cfa_offset 12
 1182              		@ sp needed
 1183 0042 30BD     		pop	{r4, r5, pc}
 1184              		.cfi_endproc
 1185              	.LFE84:
 1186              		.size	RTC_writeRegister, .-RTC_writeRegister
 1187              		.section	.text.RTC_clearAlarmFlags,"ax",%progbits
 1188              		.align	2
 1189              		.global	RTC_clearAlarmFlags
 1190              		.thumb
 1191              		.thumb_func
 1192              		.type	RTC_clearAlarmFlags, %function
 1193              	RTC_clearAlarmFlags:
 1194              	.LFB85:
 360:.\ds3231.c    **** int RTC_clearAlarmFlags()
 361:.\ds3231.c    **** {
 1195              		.loc 1 361 0
 1196              		.cfi_startproc
 1197              		@ args = 0, pretend = 0, frame = 8
 1198              		@ frame_needed = 0, uses_anonymous_args = 0
 1199 0000 00B5     		push	{lr}
 1200              		.cfi_def_cfa_offset 4
 1201              		.cfi_offset 14, -4
 1202 0002 83B0     		sub	sp, sp, #12
 1203              		.cfi_def_cfa_offset 16
 362:.\ds3231.c    ****     
 363:.\ds3231.c    ****     
 364:.\ds3231.c    ****     uint8_t status = RTC_readRegister(DS3231_STATUSREG, 0);
 1204              		.loc 1 364 0
 1205 0004 0F20     		movs	r0, #15
 1206 0006 0021     		movs	r1, #0
 1207 0008 FFF7FEFF 		bl	RTC_readRegister
 1208              	.LVL126:
 365:.\ds3231.c    **** 
 366:.\ds3231.c    ****     
 367:.\ds3231.c    ****     // 3. Clear A1F and A2F bits (bits 0 and 1)
 368:.\ds3231.c    ****     status &= ~(0x03);   // Clear bits 0 and 1
 1209              		.loc 1 368 0
 1210 000c 00F0FC00 		and	r0, r0, #252
 1211              	.LVL127:
 369:.\ds3231.c    **** 
 370:.\ds3231.c    ****     // 4. Write the cleared value back
 371:.\ds3231.c    ****     uint8_t data_buff[1] = {status};
 1212              		.loc 1 371 0
 1213 0010 02A9     		add	r1, sp, #8
ARM GAS  C:\Users\jaohe\AppData\Local\Temp\ccBfMVgu.s 			page 29


 1214 0012 01F8040D 		strb	r0, [r1, #-4]!
 372:.\ds3231.c    ****     int success = RTC_writeRegister(DS3231_STATUSREG, data_buff,1);
 1215              		.loc 1 372 0
 1216 0016 0F20     		movs	r0, #15
 1217              	.LVL128:
 1218 0018 0122     		movs	r2, #1
 1219 001a FFF7FEFF 		bl	RTC_writeRegister
 1220              	.LVL129:
 373:.\ds3231.c    ****     
 374:.\ds3231.c    ****     return success;
 375:.\ds3231.c    **** }
 1221              		.loc 1 375 0
 1222 001e 03B0     		add	sp, sp, #12
 1223              		.cfi_def_cfa_offset 4
 1224              		@ sp needed
 1225 0020 5DF804FB 		ldr	pc, [sp], #4
 1226              		.cfi_endproc
 1227              	.LFE85:
 1228              		.size	RTC_clearAlarmFlags, .-RTC_clearAlarmFlags
 1229              		.section	.text.i2c_status,"ax",%progbits
 1230              		.align	2
 1231              		.global	i2c_status
 1232              		.thumb
 1233              		.thumb_func
 1234              		.type	i2c_status, %function
 1235              	i2c_status:
 1236              	.LFB86:
 376:.\ds3231.c    **** void i2c_status(int status){
 1237              		.loc 1 376 0
 1238              		.cfi_startproc
 1239              		@ args = 0, pretend = 0, frame = 32
 1240              		@ frame_needed = 0, uses_anonymous_args = 0
 1241              	.LVL130:
 1242 0000 00B5     		push	{lr}
 1243              		.cfi_def_cfa_offset 4
 1244              		.cfi_offset 14, -4
 1245 0002 89B0     		sub	sp, sp, #36
 1246              		.cfi_def_cfa_offset 40
 1247 0004 0246     		mov	r2, r0
 377:.\ds3231.c    ****     
 378:.\ds3231.c    ****     switch (status) {
 1248              		.loc 1 378 0
 1249 0006 0528     		cmp	r0, #5
 1250 0008 1CD8     		bhi	.L79
 1251 000a DFE800F0 		tbb	[pc, r0]
 1252              	.L81:
 1253 000e 03       		.byte	(.L80-.L81)/2
 1254 000f 07       		.byte	(.L82-.L81)/2
 1255 0010 0B       		.byte	(.L83-.L81)/2
 1256 0011 0F       		.byte	(.L84-.L81)/2
 1257 0012 13       		.byte	(.L85-.L81)/2
 1258 0013 17       		.byte	(.L86-.L81)/2
 1259              		.p2align 1
 1260              	.L80:
 379:.\ds3231.c    ****         case I2CRTC_MSTR_NO_ERROR:
 380:.\ds3231.c    ****             print("I2C: W/R success");
 1261              		.loc 1 380 0
ARM GAS  C:\Users\jaohe\AppData\Local\Temp\ccBfMVgu.s 			page 30


 1262 0014 1048     		ldr	r0, .L89
 1263              	.LVL131:
 1264 0016 FFF7FEFF 		bl	print
 1265              	.LVL132:
 381:.\ds3231.c    ****             break;
 1266              		.loc 1 381 0
 1267 001a 1AE0     		b	.L78
 1268              	.LVL133:
 1269              	.L82:
 382:.\ds3231.c    **** 
 383:.\ds3231.c    ****         case I2CRTC_MSTR_BUS_BUSY:
 384:.\ds3231.c    ****             error("I2C Error: Bus busy");
 1270              		.loc 1 384 0
 1271 001c 0F48     		ldr	r0, .L89+4
 1272              	.LVL134:
 1273 001e FFF7FEFF 		bl	error
 1274              	.LVL135:
 385:.\ds3231.c    ****             break;
 1275              		.loc 1 385 0
 1276 0022 16E0     		b	.L78
 1277              	.LVL136:
 1278              	.L83:
 386:.\ds3231.c    **** 
 387:.\ds3231.c    ****         case I2CRTC_MSTR_NOT_READY:
 388:.\ds3231.c    ****             error("I2C Error: Master not ready");
 1279              		.loc 1 388 0
 1280 0024 0E48     		ldr	r0, .L89+8
 1281              	.LVL137:
 1282 0026 FFF7FEFF 		bl	error
 1283              	.LVL138:
 389:.\ds3231.c    ****             break;
 1284              		.loc 1 389 0
 1285 002a 12E0     		b	.L78
 1286              	.LVL139:
 1287              	.L84:
 390:.\ds3231.c    **** 
 391:.\ds3231.c    ****         case I2CRTC_MSTR_ERR_LB_NAK:
 392:.\ds3231.c    ****             error("I2C Error: Last byte NAKed");
 1288              		.loc 1 392 0
 1289 002c 0D48     		ldr	r0, .L89+12
 1290              	.LVL140:
 1291 002e FFF7FEFF 		bl	error
 1292              	.LVL141:
 393:.\ds3231.c    ****             break;
 1293              		.loc 1 393 0
 1294 0032 0EE0     		b	.L78
 1295              	.LVL142:
 1296              	.L85:
 394:.\ds3231.c    **** 
 395:.\ds3231.c    ****         case I2CRTC_MSTR_ERR_ARB_LOST:
 396:.\ds3231.c    ****             error("I2C Error: Arbitration lost");
 1297              		.loc 1 396 0
 1298 0034 0C48     		ldr	r0, .L89+16
 1299              	.LVL143:
 1300 0036 FFF7FEFF 		bl	error
 1301              	.LVL144:
 397:.\ds3231.c    ****             break;
ARM GAS  C:\Users\jaohe\AppData\Local\Temp\ccBfMVgu.s 			page 31


 1302              		.loc 1 397 0
 1303 003a 0AE0     		b	.L78
 1304              	.LVL145:
 1305              	.L86:
 398:.\ds3231.c    **** 
 399:.\ds3231.c    ****         case I2CRTC_MSTR_ERR_ABORT_START_GEN:
 400:.\ds3231.c    ****             error("I2C Error: Start condition aborted");
 1306              		.loc 1 400 0
 1307 003c 0B48     		ldr	r0, .L89+20
 1308              	.LVL146:
 1309 003e FFF7FEFF 		bl	error
 1310              	.LVL147:
 401:.\ds3231.c    ****             break;
 1311              		.loc 1 401 0
 1312 0042 06E0     		b	.L78
 1313              	.LVL148:
 1314              	.L79:
 1315              	.LBB3:
 402:.\ds3231.c    **** 
 403:.\ds3231.c    ****         default: {
 404:.\ds3231.c    ****             char msg[32];
 405:.\ds3231.c    ****             sprintf(msg, "I2C: Unknown error 0x%02X", status);
 1316              		.loc 1 405 0
 1317 0044 6846     		mov	r0, sp
 1318              	.LVL149:
 1319 0046 0A49     		ldr	r1, .L89+24
 1320 0048 FFF7FEFF 		bl	sprintf
 1321              	.LVL150:
 406:.\ds3231.c    ****             error(msg);
 1322              		.loc 1 406 0
 1323 004c 6846     		mov	r0, sp
 1324 004e FFF7FEFF 		bl	error
 1325              	.LVL151:
 1326              	.L78:
 1327              	.LBE3:
 407:.\ds3231.c    ****             break;
 408:.\ds3231.c    ****         }
 409:.\ds3231.c    ****     }
 410:.\ds3231.c    **** }
 1328              		.loc 1 410 0
 1329 0052 09B0     		add	sp, sp, #36
 1330              		.cfi_def_cfa_offset 4
 1331              		@ sp needed
 1332 0054 5DF804FB 		ldr	pc, [sp], #4
 1333              	.L90:
 1334              		.align	2
 1335              	.L89:
 1336 0058 00000000 		.word	.LC1
 1337 005c 14000000 		.word	.LC2
 1338 0060 28000000 		.word	.LC3
 1339 0064 44000000 		.word	.LC4
 1340 0068 60000000 		.word	.LC5
 1341 006c 7C000000 		.word	.LC6
 1342 0070 A0000000 		.word	.LC7
 1343              		.cfi_endproc
 1344              	.LFE86:
 1345              		.size	i2c_status, .-i2c_status
ARM GAS  C:\Users\jaohe\AppData\Local\Temp\ccBfMVgu.s 			page 32


 1346              		.section	.text.RTC_setAlarmTime,"ax",%progbits
 1347              		.align	2
 1348              		.global	RTC_setAlarmTime
 1349              		.thumb
 1350              		.thumb_func
 1351              		.type	RTC_setAlarmTime, %function
 1352              	RTC_setAlarmTime:
 1353              	.LFB87:
 411:.\ds3231.c    **** /*
 412:.\ds3231.c    **** *   sets up an alarm for the RTC DS3231
 413:.\ds3231.c    **** *   uint8_t sec: the second that the alarm should fire at (1 - 59)
 414:.\ds3231.c    **** *   uint8_t min: the minute that the alarm should fire at (1 - 59)
 415:.\ds3231.c    **** *   bool dayOrDate: 
 416:.\ds3231.c    **** *                1: use day -> dayDate (1-7)
 417:.\ds3231.c    **** *                0: use date -> dayDate (1-31)
 418:.\ds3231.c    **** *   RETURNS: whether the write to the RTC was successful (status = 0) or not 
 419:.\ds3231.c    **** */
 420:.\ds3231.c    **** int RTC_setAlarmTime(uint8_t sec, uint8_t min, uint8_t hr,
 421:.\ds3231.c    ****                        uint8_t dayDate, bool dayOrDate,
 422:.\ds3231.c    ****                        bool m1, bool m2, bool m3, bool m4, uint16_t address)
 423:.\ds3231.c    **** {
 1354              		.loc 1 423 0
 1355              		.cfi_startproc
 1356              		@ args = 24, pretend = 0, frame = 32
 1357              		@ frame_needed = 0, uses_anonymous_args = 0
 1358              	.LVL152:
 1359 0000 F0B5     		push	{r4, r5, r6, r7, lr}
 1360              		.cfi_def_cfa_offset 20
 1361              		.cfi_offset 4, -20
 1362              		.cfi_offset 5, -16
 1363              		.cfi_offset 6, -12
 1364              		.cfi_offset 7, -8
 1365              		.cfi_offset 14, -4
 1366 0002 89B0     		sub	sp, sp, #36
 1367              		.cfi_def_cfa_offset 56
 1368 0004 0F46     		mov	r7, r1
 1369 0006 1646     		mov	r6, r2
 1370 0008 1D46     		mov	r5, r3
 424:.\ds3231.c    ****     
 425:.\ds3231.c    ****     uint8_t tx_buff[5] = {
 1371              		.loc 1 425 0
 1372 000a 0023     		movs	r3, #0
 1373              	.LVL153:
 1374 000c 8DF81C30 		strb	r3, [sp, #28]
 426:.\ds3231.c    ****         (bin2bcd(sec) | (m1 ? 0x80 : 0)),  //
 1375              		.loc 1 426 0
 1376 0010 FFF7FEFF 		bl	bin2bcd
 1377              	.LVL154:
 425:.\ds3231.c    ****         (bin2bcd(sec) | (m1 ? 0x80 : 0)),  //
 1378              		.loc 1 425 0
 1379 0014 C0B2     		uxtb	r0, r0
 1380 0016 9DF83C30 		ldrb	r3, [sp, #60]	@ zero_extendqisi2
 1381 001a 0BB1     		cbz	r3, .L97
 1382 001c 8023     		movs	r3, #128
 1383 001e 00E0     		b	.L92
 1384              	.L97:
 1385 0020 0023     		movs	r3, #0
ARM GAS  C:\Users\jaohe\AppData\Local\Temp\ccBfMVgu.s 			page 33


 1386              	.L92:
 425:.\ds3231.c    ****         (bin2bcd(sec) | (m1 ? 0x80 : 0)),  //
 1387              		.loc 1 425 0 is_stmt 0 discriminator 4
 1388 0022 40EA0304 		orr	r4, r0, r3
 1389 0026 8DF81840 		strb	r4, [sp, #24]
 427:.\ds3231.c    ****         (bin2bcd(min) | (m2 ? 0x80 : 0)),
 1390              		.loc 1 427 0 is_stmt 1 discriminator 4
 1391 002a 3846     		mov	r0, r7
 1392 002c FFF7FEFF 		bl	bin2bcd
 1393              	.LVL155:
 425:.\ds3231.c    ****         (bin2bcd(sec) | (m1 ? 0x80 : 0)),  //
 1394              		.loc 1 425 0 discriminator 4
 1395 0030 C0B2     		uxtb	r0, r0
 1396 0032 9DF84030 		ldrb	r3, [sp, #64]	@ zero_extendqisi2
 1397 0036 0BB1     		cbz	r3, .L98
 425:.\ds3231.c    ****         (bin2bcd(sec) | (m1 ? 0x80 : 0)),  //
 1398              		.loc 1 425 0 is_stmt 0
 1399 0038 8023     		movs	r3, #128
 1400 003a 00E0     		b	.L93
 1401              	.L98:
 1402 003c 0023     		movs	r3, #0
 1403              	.L93:
 425:.\ds3231.c    ****         (bin2bcd(sec) | (m1 ? 0x80 : 0)),  //
 1404              		.loc 1 425 0 discriminator 8
 1405 003e 1843     		orrs	r0, r0, r3
 1406 0040 8DF81900 		strb	r0, [sp, #25]
 428:.\ds3231.c    ****         (bin2bcd(hr)  | (m3 ? 0x80 : 0)),
 1407              		.loc 1 428 0 is_stmt 1 discriminator 8
 1408 0044 3046     		mov	r0, r6
 1409 0046 FFF7FEFF 		bl	bin2bcd
 1410              	.LVL156:
 425:.\ds3231.c    ****         (bin2bcd(sec) | (m1 ? 0x80 : 0)),  //
 1411              		.loc 1 425 0 discriminator 8
 1412 004a C0B2     		uxtb	r0, r0
 1413 004c 9DF84430 		ldrb	r3, [sp, #68]	@ zero_extendqisi2
 1414 0050 0BB1     		cbz	r3, .L99
 425:.\ds3231.c    ****         (bin2bcd(sec) | (m1 ? 0x80 : 0)),  //
 1415              		.loc 1 425 0 is_stmt 0
 1416 0052 8023     		movs	r3, #128
 1417 0054 00E0     		b	.L94
 1418              	.L99:
 1419 0056 0023     		movs	r3, #0
 1420              	.L94:
 425:.\ds3231.c    ****         (bin2bcd(sec) | (m1 ? 0x80 : 0)),  //
 1421              		.loc 1 425 0 discriminator 12
 1422 0058 1843     		orrs	r0, r0, r3
 1423 005a 8DF81A00 		strb	r0, [sp, #26]
 429:.\ds3231.c    ****         (bin2bcd(dayDate) | (dayOrDate ? 0x40 : 0) | (m4 ? 0x80 : 0))
 1424              		.loc 1 429 0 is_stmt 1 discriminator 12
 1425 005e 2846     		mov	r0, r5
 1426 0060 FFF7FEFF 		bl	bin2bcd
 1427              	.LVL157:
 425:.\ds3231.c    ****         (bin2bcd(sec) | (m1 ? 0x80 : 0)),  //
 1428              		.loc 1 425 0 discriminator 12
 1429 0064 C0B2     		uxtb	r0, r0
 1430 0066 9DF83830 		ldrb	r3, [sp, #56]	@ zero_extendqisi2
 1431 006a 0BB1     		cbz	r3, .L100
ARM GAS  C:\Users\jaohe\AppData\Local\Temp\ccBfMVgu.s 			page 34


 425:.\ds3231.c    ****         (bin2bcd(sec) | (m1 ? 0x80 : 0)),  //
 1432              		.loc 1 425 0 is_stmt 0
 1433 006c 4023     		movs	r3, #64
 1434 006e 00E0     		b	.L95
 1435              	.L100:
 1436 0070 0023     		movs	r3, #0
 1437              	.L95:
 425:.\ds3231.c    ****         (bin2bcd(sec) | (m1 ? 0x80 : 0)),  //
 1438              		.loc 1 425 0 discriminator 16
 1439 0072 1843     		orrs	r0, r0, r3
 1440 0074 9DF84830 		ldrb	r3, [sp, #72]	@ zero_extendqisi2
 1441 0078 0BB1     		cbz	r3, .L101
 425:.\ds3231.c    ****         (bin2bcd(sec) | (m1 ? 0x80 : 0)),  //
 1442              		.loc 1 425 0
 1443 007a 8023     		movs	r3, #128
 1444 007c 00E0     		b	.L96
 1445              	.L101:
 1446 007e 0023     		movs	r3, #0
 1447              	.L96:
 425:.\ds3231.c    ****         (bin2bcd(sec) | (m1 ? 0x80 : 0)),  //
 1448              		.loc 1 425 0 discriminator 20
 1449 0080 1843     		orrs	r0, r0, r3
 1450 0082 8DF81B00 		strb	r0, [sp, #27]
 430:.\ds3231.c    ****     };
 431:.\ds3231.c    ****     char line[24];
 432:.\ds3231.c    ****     sprintf(line, "tx0: %02X", tx_buff[0]);
 1451              		.loc 1 432 0 is_stmt 1 discriminator 20
 1452 0086 6846     		mov	r0, sp
 1453 0088 0749     		ldr	r1, .L103
 1454 008a 2246     		mov	r2, r4
 1455 008c FFF7FEFF 		bl	sprintf
 1456              	.LVL158:
 433:.\ds3231.c    ****     error(line);
 1457              		.loc 1 433 0 discriminator 20
 1458 0090 6846     		mov	r0, sp
 1459 0092 FFF7FEFF 		bl	error
 1460              	.LVL159:
 434:.\ds3231.c    ****     int status = RTC_writeRegister( address, tx_buff, 5);
 1461              		.loc 1 434 0 discriminator 20
 1462 0096 9DF84C00 		ldrb	r0, [sp, #76]	@ zero_extendqisi2
 1463 009a 06A9     		add	r1, sp, #24
 1464 009c 0522     		movs	r2, #5
 1465 009e FFF7FEFF 		bl	RTC_writeRegister
 1466              	.LVL160:
 435:.\ds3231.c    ****     
 436:.\ds3231.c    ****     return status;
 437:.\ds3231.c    **** }
 1467              		.loc 1 437 0 discriminator 20
 1468 00a2 09B0     		add	sp, sp, #36
 1469              		.cfi_def_cfa_offset 20
 1470              		@ sp needed
 1471 00a4 F0BD     		pop	{r4, r5, r6, r7, pc}
 1472              	.LVL161:
 1473              	.L104:
 1474 00a6 00BF     		.align	2
 1475              	.L103:
 1476 00a8 BC000000 		.word	.LC8
ARM GAS  C:\Users\jaohe\AppData\Local\Temp\ccBfMVgu.s 			page 35


 1477              		.cfi_endproc
 1478              	.LFE87:
 1479              		.size	RTC_setAlarmTime, .-RTC_setAlarmTime
 1480              		.global	daysInMonth
 1481              		.comm	RTC_read_buff,10,4
 1482              		.section	.rodata
 1483              		.align	2
 1484              		.set	.LANCHOR0,. + 0
 1485              		.type	daysInMonth, %object
 1486              		.size	daysInMonth, 11
 1487              	daysInMonth:
 1488 0000 1F       		.byte	31
 1489 0001 1C       		.byte	28
 1490 0002 1F       		.byte	31
 1491 0003 1E       		.byte	30
 1492 0004 1F       		.byte	31
 1493 0005 1E       		.byte	30
 1494 0006 1F       		.byte	31
 1495 0007 1F       		.byte	31
 1496 0008 1E       		.byte	30
 1497 0009 1F       		.byte	31
 1498 000a 1E       		.byte	30
 1499 000b 00       		.space	1
 1500              	.LC0:
 1501 000c 0E       		.byte	14
 1502 000d 07       		.byte	7
 1503 000e 0000     		.section	.rodata.str1.4,"aMS",%progbits,1
 1504              		.align	2
 1505              	.LC1:
 1506 0000 4932433A 		.ascii	"I2C: W/R success\000"
 1506      20572F52 
 1506      20737563 
 1506      63657373 
 1506      00
 1507 0011 000000   		.space	3
 1508              	.LC2:
 1509 0014 49324320 		.ascii	"I2C Error: Bus busy\000"
 1509      4572726F 
 1509      723A2042 
 1509      75732062 
 1509      75737900 
 1510              	.LC3:
 1511 0028 49324320 		.ascii	"I2C Error: Master not ready\000"
 1511      4572726F 
 1511      723A204D 
 1511      61737465 
 1511      72206E6F 
 1512              	.LC4:
 1513 0044 49324320 		.ascii	"I2C Error: Last byte NAKed\000"
 1513      4572726F 
 1513      723A204C 
 1513      61737420 
 1513      62797465 
 1514 005f 00       		.space	1
 1515              	.LC5:
 1516 0060 49324320 		.ascii	"I2C Error: Arbitration lost\000"
 1516      4572726F 
ARM GAS  C:\Users\jaohe\AppData\Local\Temp\ccBfMVgu.s 			page 36


 1516      723A2041 
 1516      72626974 
 1516      72617469 
 1517              	.LC6:
 1518 007c 49324320 		.ascii	"I2C Error: Start condition aborted\000"
 1518      4572726F 
 1518      723A2053 
 1518      74617274 
 1518      20636F6E 
 1519 009f 00       		.space	1
 1520              	.LC7:
 1521 00a0 4932433A 		.ascii	"I2C: Unknown error 0x%02X\000"
 1521      20556E6B 
 1521      6E6F776E 
 1521      20657272 
 1521      6F722030 
 1522 00ba 0000     		.space	2
 1523              	.LC8:
 1524 00bc 7478303A 		.ascii	"tx0: %02X\000"
 1524      20253032 
 1524      5800
 1525 00c6 0000     		.text
 1526              	.Letext0:
 1527              		.file 2 "c:\\program files (x86)\\cypress\\psoc creator\\3.3\\psoc creator\\import\\gnu\\arm\\4.9.
 1528              		.file 3 "c:\\program files (x86)\\cypress\\psoc creator\\3.3\\psoc creator\\import\\gnu\\arm\\4.9.
 1529              		.file 4 "Generated_Source\\PSoC5/cytypes.h"
 1530              		.file 5 "./ds3231.h"
 1531              		.file 6 "Generated_Source\\PSoC5/core_cm3.h"
 1532              		.file 7 "Generated_Source\\PSoC5/I2CRTC.h"
 1533              		.file 8 "c:\\program files (x86)\\cypress\\psoc creator\\3.3\\psoc creator\\import\\gnu\\arm\\4.9.
 1534              		.file 9 ".\\screens.h"