ARM GAS  C:\Users\jaohe\AppData\Local\Temp\cc6boh2Y.s 			page 1


   1              		.syntax unified
   2              		.cpu cortex-m3
   3              		.fpu softvfp
   4              		.eabi_attribute 20, 1
   5              		.eabi_attribute 21, 1
   6              		.eabi_attribute 23, 3
   7              		.eabi_attribute 24, 1
   8              		.eabi_attribute 25, 1
   9              		.eabi_attribute 26, 1
  10              		.eabi_attribute 30, 1
  11              		.eabi_attribute 34, 1
  12              		.eabi_attribute 18, 4
  13              		.thumb
  14              		.file	"main.c"
  15              		.text
  16              	.Ltext0:
  17              		.cfi_sections	.debug_frame
  18              		.section	.text.MainTask,"ax",%progbits
  19              		.align	2
  20              		.global	MainTask
  21              		.thumb
  22              		.thumb_func
  23              		.type	MainTask, %function
  24              	MainTask:
  25              	.LFB64:
  26              		.file 1 ".\\main.c"
   1:.\main.c      **** /* ========================================
   2:.\main.c      ****  *
   3:.\main.c      ****  * Copyright YOUR COMPANY, THE YEAR
   4:.\main.c      ****  * All Rights Reserved
   5:.\main.c      ****  * UNPUBLISHED, LICENSED SOFTWARE.
   6:.\main.c      ****  *
   7:.\main.c      ****  * CONFIDENTIAL AND PROPRIETARY INFORMATION
   8:.\main.c      ****  * WHICH IS THE PROPERTY OF your company.
   9:.\main.c      ****  *
  10:.\main.c      ****  * ========================================
  11:.\main.c      **** */
  12:.\main.c      **** /*********************************************************************
  13:.\main.c      **** *                SEGGER Microcontroller GmbH & Co. KG                *
  14:.\main.c      **** *        Solutions for real time microcontroller applications        *
  15:.\main.c      **** **********************************************************************
  16:.\main.c      **** *                                                                    *
  17:.\main.c      **** *        (c) 1996 - 2017  SEGGER Microcontroller GmbH & Co. KG       *
  18:.\main.c      **** *                                                                    *
  19:.\main.c      **** *        Internet: www.segger.com    Support:  support@segger.com    *
  20:.\main.c      **** *                                                                    *
  21:.\main.c      **** **********************************************************************
  22:.\main.c      **** 
  23:.\main.c      **** ** emWin V5.46 - Graphical user interface for embedded applications **
  24:.\main.c      **** All  Intellectual Property rights  in the Software belongs to  SEGGER.
  25:.\main.c      **** emWin is protected by  international copyright laws.  Knowledge of the
  26:.\main.c      **** source code may not be used to write a similar product.  This file may
  27:.\main.c      **** only be used in accordance with the following terms:
  28:.\main.c      **** 
  29:.\main.c      **** The software  has been licensed to  Cypress Semiconductor Corporation,
  30:.\main.c      **** whose registered  office is situated  at 198 Champion Ct. San Jose, CA 
  31:.\main.c      **** 95134 USA  solely for the  purposes of creating  libraries for Cypress
ARM GAS  C:\Users\jaohe\AppData\Local\Temp\cc6boh2Y.s 			page 2


  32:.\main.c      **** PSoC3 and  PSoC5 processor-based devices,  sublicensed and distributed
  33:.\main.c      **** under  the  terms  and  conditions  of  the  Cypress  End User License
  34:.\main.c      **** Agreement.
  35:.\main.c      **** Full source code is available at: www.segger.com
  36:.\main.c      **** 
  37:.\main.c      **** We appreciate your understanding and fairness.
  38:.\main.c      **** ----------------------------------------------------------------------
  39:.\main.c      **** Licensing information
  40:.\main.c      **** Licensor:                 SEGGER Microcontroller Systems LLC
  41:.\main.c      **** Licensed to:              Cypress Semiconductor Corp, 198 Champion Ct., San Jose, CA 95134, USA
  42:.\main.c      **** Licensed SEGGER software: emWin
  43:.\main.c      **** License number:           GUI-00319
  44:.\main.c      **** License model:            Services and License Agreement, signed June 10th, 2009
  45:.\main.c      **** Licensed platform:        Any Cypress platform (Initial targets are: PSoC3, PSoC5)
  46:.\main.c      **** ----------------------------------------------------------------------
  47:.\main.c      **** Support and Update Agreement (SUA)
  48:.\main.c      **** SUA period:               2009-06-12 - 2022-07-27
  49:.\main.c      **** Contact to extend SUA:    sales@segger.com
  50:.\main.c      **** ----------------------------------------------------------------------
  51:.\main.c      **** File        : WIDGET_Window.c
  52:.\main.c      **** Purpose     : Example demonstrating the use of a WINDOW widget
  53:.\main.c      **** Requirements: WindowManager - (x)
  54:.\main.c      ****               MemoryDevices - ( )
  55:.\main.c      ****               AntiAliasing  - ( )
  56:.\main.c      ****               VNC-Server    - ( )
  57:.\main.c      ****               PNG-Library   - ( )
  58:.\main.c      ****               TrueTypeFonts - ( )
  59:.\main.c      **** ----------------------------------------------------------------------
  60:.\main.c      **** */
  61:.\main.c      **** #include "GUI.h"
  62:.\main.c      **** #include "DIALOG.h"
  63:.\main.c      **** #include <project.h>
  64:.\main.c      **** #include "tft.h"
  65:.\main.c      **** #include "screens.h"
  66:.\main.c      **** #include "stdio.h"
  67:.\main.c      **** #include "ds3231.h"
  68:.\main.c      **** 
  69:.\main.c      **** //#include "start.h"
  70:.\main.c      **** 
  71:.\main.c      **** 
  72:.\main.c      **** void MainTask(void);
  73:.\main.c      **** int home(void);
  74:.\main.c      **** void configure_rtc_tick(void);
  75:.\main.c      **** int fsmState;
  76:.\main.c      **** void MainTask(void);
  77:.\main.c      **** 
  78:.\main.c      **** int main()
  79:.\main.c      **** {
  80:.\main.c      ****     CyGlobalIntEnable;                      // Enable global interrupts
  81:.\main.c      ****     SPIM_1_Start();                         // initialize SPIM component 
  82:.\main.c      ****     MainTask();                             // all of the emWin exmples use MainTask() as the entry
  83:.\main.c      ****     for(;;) {
  84:.\main.c      ****         if (FORWARD_BTN_Read() == 0 || BACK_BTN_Read() == 0){
  85:.\main.c      ****             GUI_Clear();
  86:.\main.c      ****             GUI_DispStringHCenterAt("Dialog has been closed", CENTERX, 5);
  87:.\main.c      ****             GUI_Delay(1000);
  88:.\main.c      ****             action_select();
ARM GAS  C:\Users\jaohe\AppData\Local\Temp\cc6boh2Y.s 			page 3


  89:.\main.c      ****         }
  90:.\main.c      ****     }                              // loop
  91:.\main.c      **** }
  92:.\main.c      **** 
  93:.\main.c      **** void MainTask()
  94:.\main.c      **** {
  27              		.loc 1 94 0
  28              		.cfi_startproc
  29              		@ args = 0, pretend = 0, frame = 32
  30              		@ frame_needed = 0, uses_anonymous_args = 0
  31 0000 30B5     		push	{r4, r5, lr}
  32              		.cfi_def_cfa_offset 12
  33              		.cfi_offset 4, -12
  34              		.cfi_offset 5, -8
  35              		.cfi_offset 14, -4
  36 0002 8BB0     		sub	sp, sp, #44
  37              		.cfi_def_cfa_offset 56
  95:.\main.c      ****     GUI_Init();                             // initilize graphics library
  38              		.loc 1 95 0
  39 0004 FFF7FEFF 		bl	GUI_Init
  40              	.LVL0:
  96:.\main.c      ****     GUI_Clear();
  41              		.loc 1 96 0
  42 0008 FFF7FEFF 		bl	GUI_Clear
  43              	.LVL1:
  97:.\main.c      ****     GUI_SetFont(&GUI_Font8x16);
  44              		.loc 1 97 0
  45 000c 1448     		ldr	r0, .L3
  46 000e FFF7FEFF 		bl	GUI_SetFont
  47              	.LVL2:
  98:.\main.c      ****     GUI_DispStringAt("peepee doodoo", 50, 50);
  48              		.loc 1 98 0
  49 0012 1448     		ldr	r0, .L3+4
  50 0014 3221     		movs	r1, #50
  51 0016 0A46     		mov	r2, r1
  52 0018 FFF7FEFF 		bl	GUI_DispStringAt
  53              	.LVL3:
  99:.\main.c      ****     GUI_DispStringHCenterAt("Dialog has been closed", CENTERX, CENTERY);
  54              		.loc 1 99 0
  55 001c 1248     		ldr	r0, .L3+8
  56 001e 7821     		movs	r1, #120
  57 0020 A022     		movs	r2, #160
  58 0022 FFF7FEFF 		bl	GUI_DispStringHCenterAt
  59              	.LVL4:
 100:.\main.c      ****     GUI_SetBkColor(0x1a1932);
  60              		.loc 1 100 0
  61 0026 1148     		ldr	r0, .L3+12
  62 0028 FFF7FEFF 		bl	GUI_SetBkColor
  63              	.LVL5:
 101:.\main.c      ****     GUI_RECT Rect = {CENTERX/2,  CENTERY*1/2,CENTERX *3/2 ,  CENTERY*3/2};
  64              		.loc 1 101 0
  65 002c 104C     		ldr	r4, .L3+16
  66 002e 08AB     		add	r3, sp, #32
  67 0030 2068     		ldr	r0, [r4]	@ unaligned
  68 0032 6168     		ldr	r1, [r4, #4]	@ unaligned
  69 0034 03C3     		stmia	r3!, {r0, r1}
 102:.\main.c      ****     char acText[] = "Welcome to \nTask Buddy\0";
ARM GAS  C:\Users\jaohe\AppData\Local\Temp\cc6boh2Y.s 			page 4


  70              		.loc 1 102 0
  71 0036 02AD     		add	r5, sp, #8
  72 0038 0834     		adds	r4, r4, #8
  73 003a 0FCC     		ldmia	r4!, {r0, r1, r2, r3}
  74 003c 0FC5     		stmia	r5!, {r0, r1, r2, r3}
  75 003e 94E80300 		ldmia	r4, {r0, r1}
  76 0042 85E80300 		stmia	r5, {r0, r1}
 103:.\main.c      ****     GUI_DispStringInRectEx(acText, &Rect, GUI_TA_HCENTER | GUI_TA_VCENTER, strlen(acText) - 1, GUI_
  77              		.loc 1 103 0
  78 0046 02A8     		add	r0, sp, #8
  79 0048 FFF7FEFF 		bl	strlen
  80              	.LVL6:
  81 004c 431E     		subs	r3, r0, #1
  82 004e 0022     		movs	r2, #0
  83 0050 0092     		str	r2, [sp]
  84 0052 02A8     		add	r0, sp, #8
  85 0054 08A9     		add	r1, sp, #32
  86 0056 0E22     		movs	r2, #14
  87 0058 FFF7FEFF 		bl	GUI_DispStringInRectEx
  88              	.LVL7:
 104:.\main.c      **** }
  89              		.loc 1 104 0
  90 005c 0BB0     		add	sp, sp, #44
  91              		.cfi_def_cfa_offset 12
  92              		@ sp needed
  93 005e 30BD     		pop	{r4, r5, pc}
  94              	.L4:
  95              		.align	2
  96              	.L3:
  97 0060 00000000 		.word	GUI_Font8x16
  98 0064 00000000 		.word	.LC1
  99 0068 10000000 		.word	.LC2
 100 006c 32191A00 		.word	1710386
 101 0070 00000000 		.word	.LANCHOR0
 102              		.cfi_endproc
 103              	.LFE64:
 104              		.size	MainTask, .-MainTask
 105              		.section	.text.main,"ax",%progbits
 106              		.align	2
 107              		.global	main
 108              		.thumb
 109              		.thumb_func
 110              		.type	main, %function
 111              	main:
 112              	.LFB63:
  79:.\main.c      ****     CyGlobalIntEnable;                      // Enable global interrupts
 113              		.loc 1 79 0
 114              		.cfi_startproc
 115              		@ Volatile: function does not return.
 116              		@ args = 0, pretend = 0, frame = 0
 117              		@ frame_needed = 0, uses_anonymous_args = 0
 118 0000 08B5     		push	{r3, lr}
 119              		.cfi_def_cfa_offset 8
 120              		.cfi_offset 3, -8
 121              		.cfi_offset 14, -4
  80:.\main.c      ****     SPIM_1_Start();                         // initialize SPIM component 
 122              		.loc 1 80 0
ARM GAS  C:\Users\jaohe\AppData\Local\Temp\cc6boh2Y.s 			page 5


 123              	@ 80 ".\main.c" 1
 124 0002 62B6     		CPSIE   i
 125              	@ 0 "" 2
  81:.\main.c      ****     MainTask();                             // all of the emWin exmples use MainTask() as the entry
 126              		.loc 1 81 0
 127              		.thumb
 128 0004 FFF7FEFF 		bl	SPIM_1_Start
 129              	.LVL8:
  82:.\main.c      ****     for(;;) {
 130              		.loc 1 82 0
 131 0008 FFF7FEFF 		bl	MainTask
 132              	.LVL9:
 133              	.L6:
  84:.\main.c      ****             GUI_Clear();
 134              		.loc 1 84 0
 135 000c FFF7FEFF 		bl	FORWARD_BTN_Read
 136              	.LVL10:
 137 0010 18B1     		cbz	r0, .L7
  84:.\main.c      ****             GUI_Clear();
 138              		.loc 1 84 0 is_stmt 0 discriminator 1
 139 0012 FFF7FEFF 		bl	BACK_BTN_Read
 140              	.LVL11:
 141 0016 0028     		cmp	r0, #0
 142 0018 F8D1     		bne	.L6
 143              	.L7:
  85:.\main.c      ****             GUI_DispStringHCenterAt("Dialog has been closed", CENTERX, 5);
 144              		.loc 1 85 0 is_stmt 1
 145 001a FFF7FEFF 		bl	GUI_Clear
 146              	.LVL12:
  86:.\main.c      ****             GUI_Delay(1000);
 147              		.loc 1 86 0
 148 001e 0648     		ldr	r0, .L10
 149 0020 7821     		movs	r1, #120
 150 0022 0522     		movs	r2, #5
 151 0024 FFF7FEFF 		bl	GUI_DispStringHCenterAt
 152              	.LVL13:
  87:.\main.c      ****             action_select();
 153              		.loc 1 87 0
 154 0028 4FF47A70 		mov	r0, #1000
 155 002c FFF7FEFF 		bl	GUI_Delay
 156              	.LVL14:
  88:.\main.c      ****         }
 157              		.loc 1 88 0
 158 0030 FFF7FEFF 		bl	action_select
 159              	.LVL15:
 160 0034 EAE7     		b	.L6
 161              	.L11:
 162 0036 00BF     		.align	2
 163              	.L10:
 164 0038 10000000 		.word	.LC2
 165              		.cfi_endproc
 166              	.LFE63:
 167              		.size	main, .-main
 168              		.comm	fsmState,4,4
 169              		.section	.rodata
 170              		.align	2
 171              		.set	.LANCHOR0,. + 0
ARM GAS  C:\Users\jaohe\AppData\Local\Temp\cc6boh2Y.s 			page 6


 172              	.LC0:
 173 0000 3C00     		.short	60
 174 0002 5000     		.short	80
 175 0004 B400     		.short	180
 176 0006 F000     		.short	240
 177              	.LC3:
 178 0008 57656C63 		.ascii	"Welcome to \012Task Buddy\000\000"
 178      6F6D6520 
 178      746F200A 
 178      5461736B 
 178      20427564 
 179              		.section	.rodata.str1.4,"aMS",%progbits,1
 180              		.align	2
 181              	.LC1:
 182 0000 70656570 		.ascii	"peepee doodoo\000"
 182      65652064 
 182      6F6F646F 
 182      6F00
 183 000e 0000     		.space	2
 184              	.LC2:
 185 0010 4469616C 		.ascii	"Dialog has been closed\000"
 185      6F672068 
 185      61732062 
 185      65656E20 
 185      636C6F73 
 186 0027 00       		.text
 187              	.Letext0:
 188              		.file 2 "c:\\program files (x86)\\cypress\\psoc creator\\3.3\\psoc creator\\import\\gnu\\arm\\4.9.
 189              		.file 3 "..\\..\\emWinGraphics_v5_46\\Code\\Include\\PSoC4_5/LCD.h"
 190              		.file 4 "..\\..\\emWinGraphics_v5_46\\Code\\Include\\PSoC4_5/GUI_Type.h"
 191              		.file 5 "c:\\program files (x86)\\cypress\\psoc creator\\3.3\\psoc creator\\import\\gnu\\arm\\4.9.
 192              		.file 6 "c:\\program files (x86)\\cypress\\psoc creator\\3.3\\psoc creator\\import\\gnu\\arm\\4.9.
 193              		.file 7 "Generated_Source\\PSoC5/cytypes.h"
 194              		.file 8 "..\\..\\emWinGraphics_v5_46\\Code\\Include\\PSoC4_5/GUI.h"
 195              		.file 9 "Generated_Source\\PSoC5/core_cm3.h"
 196              		.file 10 "c:\\program files (x86)\\cypress\\psoc creator\\3.3\\psoc creator\\import\\gnu\\arm\\4.9
 197              		.file 11 "Generated_Source\\PSoC5/SPIM_1.h"
 198              		.file 12 "Generated_Source\\PSoC5/FORWARD_BTN.h"
 199              		.file 13 "Generated_Source\\PSoC5/BACK_BTN.h"
 200              		.file 14 ".\\screens.h"