ARM GAS  C:\Users\jaohe\AppData\Local\Temp\ccbQAV2C.s 			page 1


   1              		.syntax unified
   2              		.cpu cortex-m3
   3              		.fpu softvfp
   4              		.eabi_attribute 20, 1
   5              		.eabi_attribute 21, 1
   6              		.eabi_attribute 23, 3
   7              		.eabi_attribute 24, 1
   8              		.eabi_attribute 25, 1
   9              		.eabi_attribute 26, 1
  10              		.eabi_attribute 30, 1
  11              		.eabi_attribute 34, 1
  12              		.eabi_attribute 18, 4
  13              		.thumb
  14              		.file	"main.c"
  15              		.text
  16              	.Ltext0:
  17              		.cfi_sections	.debug_frame
  18              		.section	.text.sendCommand,"ax",%progbits
  19              		.align	2
  20              		.global	sendCommand
  21              		.thumb
  22              		.thumb_func
  23              		.type	sendCommand, %function
  24              	sendCommand:
  25              	.LFB63:
  26              		.file 1 ".\\main.c"
   1:.\main.c      **** /* ========================================
   2:.\main.c      ****  *
   3:.\main.c      ****  * Copyright YOUR COMPANY, THE YEAR
   4:.\main.c      ****  * All Rights Reserved
   5:.\main.c      ****  * UNPUBLISHED, LICENSED SOFTWARE.
   6:.\main.c      ****  *
   7:.\main.c      ****  * CONFIDENTIAL AND PROPRIETARY INFORMATION
   8:.\main.c      ****  * WHICH IS THE PROPERTY OF your company.
   9:.\main.c      ****  *
  10:.\main.c      ****  * ========================================
  11:.\main.c      **** */
  12:.\main.c      **** /*********************************************************************
  13:.\main.c      **** *                SEGGER Microcontroller GmbH & Co. KG                *
  14:.\main.c      **** *        Solutions for real time microcontroller applications        *
  15:.\main.c      **** **********************************************************************
  16:.\main.c      **** *                                                                    *
  17:.\main.c      **** *        (c) 1996 - 2017  SEGGER Microcontroller GmbH & Co. KG       *
  18:.\main.c      **** *                                                                    *
  19:.\main.c      **** *        Internet: www.segger.com    Support:  support@segger.com    *
  20:.\main.c      **** *                                                                    *
  21:.\main.c      **** **********************************************************************
  22:.\main.c      **** 
  23:.\main.c      **** ** emWin V5.46 - Graphical user interface for embedded applications **
  24:.\main.c      **** All  Intellectual Property rights  in the Software belongs to  SEGGER.
  25:.\main.c      **** emWin is protected by  international copyright laws.  Knowledge of the
  26:.\main.c      **** source code may not be used to write a similar product.  This file may
  27:.\main.c      **** only be used in accordance with the following terms:
  28:.\main.c      **** 
  29:.\main.c      **** The software  has been licensed to  Cypress Semiconductor Corporation,
  30:.\main.c      **** whose registered  office is situated  at 198 Champion Ct. San Jose, CA 
  31:.\main.c      **** 95134 USA  solely for the  purposes of creating  libraries for Cypress
ARM GAS  C:\Users\jaohe\AppData\Local\Temp\ccbQAV2C.s 			page 2


  32:.\main.c      **** PSoC3 and  PSoC5 processor-based devices,  sublicensed and distributed
  33:.\main.c      **** under  the  terms  and  conditions  of  the  Cypress  End User License
  34:.\main.c      **** Agreement.
  35:.\main.c      **** Full source code is available at: www.segger.com
  36:.\main.c      **** 
  37:.\main.c      **** We appreciate your understanding and fairness.
  38:.\main.c      **** ----------------------------------------------------------------------
  39:.\main.c      **** Licensing information
  40:.\main.c      **** Licensor:                 SEGGER Microcontroller Systems LLC
  41:.\main.c      **** Licensed to:              Cypress Semiconductor Corp, 198 Champion Ct., San Jose, CA 95134, USA
  42:.\main.c      **** Licensed SEGGER software: emWin
  43:.\main.c      **** License number:           GUI-00319
  44:.\main.c      **** License model:            Services and License Agreement, signed June 10th, 2009
  45:.\main.c      **** Licensed platform:        Any Cypress platform (Initial targets are: PSoC3, PSoC5)
  46:.\main.c      **** ----------------------------------------------------------------------
  47:.\main.c      **** Support and Update Agreement (SUA)
  48:.\main.c      **** SUA period:               2009-06-12 - 2022-07-27
  49:.\main.c      **** Contact to extend SUA:    sales@segger.com
  50:.\main.c      **** ----------------------------------------------------------------------
  51:.\main.c      **** File        : WIDGET_Window.c
  52:.\main.c      **** Purpose     : Example demonstrating the use of a WINDOW widget
  53:.\main.c      **** Requirements: WindowManager - (x)
  54:.\main.c      ****               MemoryDevices - ( )
  55:.\main.c      ****               AntiAliasing  - ( )
  56:.\main.c      ****               VNC-Server    - ( )
  57:.\main.c      ****               PNG-Library   - ( )
  58:.\main.c      ****               TrueTypeFonts - ( )
  59:.\main.c      **** ----------------------------------------------------------------------
  60:.\main.c      **** */
  61:.\main.c      **** #include "GUI.h"
  62:.\main.c      **** #include "DIALOG.h"
  63:.\main.c      **** #include <project.h>
  64:.\main.c      **** #include "tft.h"
  65:.\main.c      **** #include "screens.h"
  66:.\main.c      **** #include "stdio.h"
  67:.\main.c      **** #include "ds3231.h"
  68:.\main.c      **** #include "task.h"
  69:.\main.c      **** 
  70:.\main.c      **** //#include "start.h"
  71:.\main.c      **** # define JUMP_BOUND 5 
  72:.\main.c      **** extern GUI_CONST_STORAGE GUI_BITMAP bmcute_mascot_closed;
  73:.\main.c      **** Alarm alarms[] = {
  74:.\main.c      ****     {{14, 45}, 
  75:.\main.c      ****     BEFORE_TIME}, 
  76:.\main.c      ****     {{3, 48}, 
  77:.\main.c      ****     BEFORE_TIME}
  78:.\main.c      **** };
  79:.\main.c      **** TimedTask tasks[] = {
  80:.\main.c      ****     {"Brush Teeth",
  81:.\main.c      ****         NOT_SET,
  82:.\main.c      ****         {11,00},
  83:.\main.c      ****         {{00,05}, false}
  84:.\main.c      ****     },
  85:.\main.c      ****     {"Clean Room",
  86:.\main.c      ****         NOT_SET,
  87:.\main.c      ****         {22,00},
  88:.\main.c      ****         {{00,15}, true} 
ARM GAS  C:\Users\jaohe\AppData\Local\Temp\ccbQAV2C.s 			page 3


  89:.\main.c      ****     },
  90:.\main.c      ****     {"Do 6.115 Project",
  91:.\main.c      ****         NOT_SET,
  92:.\main.c      ****         {10,00},
  93:.\main.c      ****         {{00,15}, false} 
  94:.\main.c      ****     }
  95:.\main.c      **** };
  96:.\main.c      **** 
  97:.\main.c      **** extern int numAlarms;
  98:.\main.c      **** extern int numTasks;
  99:.\main.c      **** int numAlarms = 2;
 100:.\main.c      **** int numTasks = 3;
 101:.\main.c      **** 
 102:.\main.c      **** void MainTask(void);
 103:.\main.c      **** int home(void);
 104:.\main.c      **** int menu(void);
 105:.\main.c      **** void configure_rtc_tick(void);
 106:.\main.c      **** 
 107:.\main.c      **** int alarmCheck(DateTime now);
 108:.\main.c      **** int fsmState;
 109:.\main.c      **** int task_complete();
 110:.\main.c      **** 
 111:.\main.c      **** Alarm current_alarm;
 112:.\main.c      **** TaskStats current_task;
 113:.\main.c      **** volatile bool isr_flag;
 114:.\main.c      **** // if the alarm is going off
 115:.\main.c      **** // this is seperate from the alarm state of the current alarm 
 116:.\main.c      **** // because alarm sound can be triggered by a task instead 
 117:.\main.c      **** extern volatile bool in_alarm; 
 118:.\main.c      **** 
 119:.\main.c      **** 
 120:.\main.c      **** 
 121:.\main.c      **** void sendCommand(const char* cmd) {
  27              		.loc 1 121 0
  28              		.cfi_startproc
  29              		@ args = 0, pretend = 0, frame = 0
  30              		@ frame_needed = 0, uses_anonymous_args = 0
  31              	.LVL0:
  32 0000 08B5     		push	{r3, lr}
  33              		.cfi_def_cfa_offset 8
  34              		.cfi_offset 3, -8
  35              		.cfi_offset 14, -4
 122:.\main.c      ****     UART_1_PutString(cmd);
  36              		.loc 1 122 0
  37 0002 FFF7FEFF 		bl	UART_1_PutString
  38              	.LVL1:
 123:.\main.c      ****     CyDelay(1000);
  39              		.loc 1 123 0
  40 0006 4FF47A70 		mov	r0, #1000
  41 000a FFF7FEFF 		bl	CyDelay
  42              	.LVL2:
  43 000e 08BD     		pop	{r3, pc}
  44              		.cfi_endproc
  45              	.LFE63:
  46              		.size	sendCommand, .-sendCommand
  47              		.section	.text.printResponse,"ax",%progbits
  48              		.align	2
ARM GAS  C:\Users\jaohe\AppData\Local\Temp\ccbQAV2C.s 			page 4


  49              		.global	printResponse
  50              		.thumb
  51              		.thumb_func
  52              		.type	printResponse, %function
  53              	printResponse:
  54              	.LFB64:
 124:.\main.c      **** }
 125:.\main.c      **** 
 126:.\main.c      **** void printResponse() {
  55              		.loc 1 126 0
  56              		.cfi_startproc
  57              		@ args = 0, pretend = 0, frame = 64
  58              		@ frame_needed = 0, uses_anonymous_args = 0
  59 0000 30B5     		push	{r4, r5, lr}
  60              		.cfi_def_cfa_offset 12
  61              		.cfi_offset 4, -12
  62              		.cfi_offset 5, -8
  63              		.cfi_offset 14, -4
  64 0002 91B0     		sub	sp, sp, #68
  65              		.cfi_def_cfa_offset 80
  66              	.LVL3:
 127:.\main.c      ****     char response[64];
 128:.\main.c      ****     int i = 0;
 129:.\main.c      ****     
 130:.\main.c      ****     CyDelay(100);
  67              		.loc 1 130 0
  68 0004 6420     		movs	r0, #100
  69 0006 FFF7FEFF 		bl	CyDelay
  70              	.LVL4:
 128:.\main.c      ****     
  71              		.loc 1 128 0
  72 000a 0024     		movs	r4, #0
 131:.\main.c      ****         
 132:.\main.c      ****     
 133:.\main.c      ****     while (UART_1_GetRxBufferSize() > 0) {
  73              		.loc 1 133 0
  74 000c 0AE0     		b	.L4
  75              	.LVL5:
  76              	.L5:
 134:.\main.c      ****         response[i++] = UART_1_GetChar();
  77              		.loc 1 134 0
  78 000e 651C     		adds	r5, r4, #1
  79              	.LVL6:
  80 0010 FFF7FEFF 		bl	UART_1_GetChar
  81              	.LVL7:
  82 0014 10AB     		add	r3, sp, #64
  83 0016 1C44     		add	r4, r4, r3
  84 0018 04F8400C 		strb	r0, [r4, #-64]
 135:.\main.c      ****         CyDelay(20);
  85              		.loc 1 135 0
  86 001c 1420     		movs	r0, #20
  87 001e FFF7FEFF 		bl	CyDelay
  88              	.LVL8:
 134:.\main.c      ****         response[i++] = UART_1_GetChar();
  89              		.loc 1 134 0
  90 0022 2C46     		mov	r4, r5
  91              	.LVL9:
ARM GAS  C:\Users\jaohe\AppData\Local\Temp\ccbQAV2C.s 			page 5


  92              	.L4:
 133:.\main.c      ****         response[i++] = UART_1_GetChar();
  93              		.loc 1 133 0
  94 0024 FFF7FEFF 		bl	UART_1_GetRxBufferSize
  95              	.LVL10:
  96 0028 0028     		cmp	r0, #0
  97 002a F0D1     		bne	.L5
 136:.\main.c      ****     }
 137:.\main.c      ****     
 138:.\main.c      ****     response[i] = '\0';
  98              		.loc 1 138 0
  99 002c 10AB     		add	r3, sp, #64
 100 002e 1C44     		add	r4, r4, r3
 101              	.LVL11:
 102 0030 0023     		movs	r3, #0
 103 0032 04F8403C 		strb	r3, [r4, #-64]
 139:.\main.c      ****     UART_1_PutString(response);
 104              		.loc 1 139 0
 105 0036 6846     		mov	r0, sp
 106 0038 FFF7FEFF 		bl	UART_1_PutString
 107              	.LVL12:
 140:.\main.c      **** }
 108              		.loc 1 140 0
 109 003c 11B0     		add	sp, sp, #68
 110              		.cfi_def_cfa_offset 12
 111              		@ sp needed
 112 003e 30BD     		pop	{r4, r5, pc}
 113              		.cfi_endproc
 114              	.LFE64:
 115              		.size	printResponse, .-printResponse
 116              		.section	.text.alarmCheck,"ax",%progbits
 117              		.align	2
 118              		.global	alarmCheck
 119              		.thumb
 120              		.thumb_func
 121              		.type	alarmCheck, %function
 122              	alarmCheck:
 123              	.LFB67:
 141:.\main.c      **** 
 142:.\main.c      **** CY_ISR(Timer_1_Handler)
 143:.\main.c      **** {
 144:.\main.c      ****     // Clear PSoC GPIO interrupt first
 145:.\main.c      ****    
 146:.\main.c      ****     LCD_Char_1_Position(1, 0);
 147:.\main.c      ****     
 148:.\main.c      ****     DateTime now = RTC_now();
 149:.\main.c      ****     char line[24];
 150:.\main.c      ****     sprintf(line, "%02u-%02u %02u:%02u:%02u",
 151:.\main.c      ****              now.m, now.d, now.hh, now.mm, now.ss);
 152:.\main.c      ****     LCD_Char_1_Position(1, 0);
 153:.\main.c      ****     LCD_Char_1_PrintString("                    ");			// clean up the previous display
 154:.\main.c      ****     
 155:.\main.c      **** 	LCD_Char_1_Position(1, 0);
 156:.\main.c      ****     LCD_Char_1_PrintString(line);
 157:.\main.c      ****     
 158:.\main.c      ****     if (alarmCheck(now) && current_alarm.state != HANDLED){
 159:.\main.c      ****         LED_1_Write(~LED_1_Read());
ARM GAS  C:\Users\jaohe\AppData\Local\Temp\ccbQAV2C.s 			page 6


 160:.\main.c      ****         current_alarm.state = ON;
 161:.\main.c      ****         
 162:.\main.c      ****         alarmHandler();
 163:.\main.c      ****         print("Alarm !!!");
 164:.\main.c      ****         if (current_task.time_left <= 0 && current_task.task.time_est.isOn){
 165:.\main.c      ****             current_task.overtime++;
 166:.\main.c      ****         }
 167:.\main.c      ****         
 168:.\main.c      ****         
 169:.\main.c      ****     }
 170:.\main.c      ****     // if there happens to be an user set alarm during a task, push the alarm 
 171:.\main.c      ****     if (current_task.task.status == IN_PROGRESS && current_task.time_left > 0 && in_alarm){
 172:.\main.c      ****         if (current_alarm.state == ON){
 173:.\main.c      ****             current_alarm.state = BEFORE_TIME;
 174:.\main.c      ****             current_alarm.dt = snooze_alarm(current_alarm.dt, 5); // snooze for 5 minutes
 175:.\main.c      ****         }
 176:.\main.c      ****         in_alarm = false; 
 177:.\main.c      ****         endAlarm();
 178:.\main.c      **** 
 179:.\main.c      ****     }
 180:.\main.c      ****     if(current_task.task.status == IN_PROGRESS && in_alarm == false){
 181:.\main.c      ****         current_task.time_left -= 1;
 182:.\main.c      ****         // if the task is finished and the task is a countdown we need to set the task to finished 
 183:.\main.c      ****         if (current_task.time_left <= 0 && current_task.task.time_est.isOn == true){
 184:.\main.c      ****             current_task.time_left = 0;
 185:.\main.c      ****             in_alarm = true;
 186:.\main.c      ****             
 187:.\main.c      ****         } else if (current_task.time_left <= 0 && current_task.task.time_est.isOn == false){
 188:.\main.c      ****             // if the task is not a countdown well IDEA is to count up and make the text red ...
 189:.\main.c      ****             // TODO 
 190:.\main.c      ****             current_task.overtime++;
 191:.\main.c      **** 
 192:.\main.c      ****         }
 193:.\main.c      ****     // if the task is finished and the alarm is going off we need to 
 194:.\main.c      ****     // 1. count the time taken to acknowledge the alarm in the task time 
 195:.\main.c      ****     }else if (current_task.task.status == FINISHED && in_alarm){
 196:.\main.c      ****         current_task.time_left += 1;
 197:.\main.c      ****     }
 198:.\main.c      ****     Timer_1_ReadStatusRegister();
 199:.\main.c      ****     
 200:.\main.c      ****    
 201:.\main.c      **** }
 202:.\main.c      **** CY_ISR(Snooze_Btn_Handler)
 203:.\main.c      **** {
 204:.\main.c      ****     // Clear PSoC GPIO interrupt first
 205:.\main.c      ****     if (in_alarm){
 206:.\main.c      ****         in_alarm = false;
 207:.\main.c      ****         endAlarm();
 208:.\main.c      ****         LED_3_Write(0);
 209:.\main.c      ****         
 210:.\main.c      ****         
 211:.\main.c      ****         if (current_alarm.state == ON){
 212:.\main.c      ****             current_alarm.state = HANDLED;
 213:.\main.c      ****             print("Stop Alarm !!!");
 214:.\main.c      ****             
 215:.\main.c      ****     
 216:.\main.c      ****         }else{
ARM GAS  C:\Users\jaohe\AppData\Local\Temp\ccbQAV2C.s 			page 7


 217:.\main.c      ****             print("Ended Task !!!");
 218:.\main.c      ****             current_task.task.status = FINISHED;
 219:.\main.c      ****             // TODO handle the extra logic 
 220:.\main.c      ****         }
 221:.\main.c      ****         
 222:.\main.c      ****         
 223:.\main.c      ****     }else if (current_task.task.status == IN_PROGRESS){
 224:.\main.c      ****         current_task.task.status = FINISHED;
 225:.\main.c      ****         print("Ended Task !!!");
 226:.\main.c      ****     }
 227:.\main.c      ****     
 228:.\main.c      ****     
 229:.\main.c      ****     
 230:.\main.c      **** }
 231:.\main.c      ****    
 232:.\main.c      **** 
 233:.\main.c      **** int alarmCheck(DateTime now){
 124              		.loc 1 233 0
 125              		.cfi_startproc
 126              		@ args = 0, pretend = 0, frame = 8
 127              		@ frame_needed = 0, uses_anonymous_args = 0
 128 0000 10B5     		push	{r4, lr}
 129              		.cfi_def_cfa_offset 8
 130              		.cfi_offset 4, -8
 131              		.cfi_offset 14, -4
 132 0002 82B0     		sub	sp, sp, #8
 133              		.cfi_def_cfa_offset 16
 134 0004 02AB     		add	r3, sp, #8
 135 0006 03E90300 		stmdb	r3, {r0, r1}
 136              	.LVL13:
 234:.\main.c      ****     int i = 0;
 235:.\main.c      ****     if (in_alarm){
 137              		.loc 1 235 0
 138 000a 1A4B     		ldr	r3, .L14
 139 000c 1B78     		ldrb	r3, [r3]	@ zero_extendqisi2
 140 000e 13F0FF0F 		tst	r3, #255
 141 0012 2BD1     		bne	.L12
 142 0014 0023     		movs	r3, #0
 143 0016 23E0     		b	.L9
 144              	.LVL14:
 145              	.L11:
 236:.\main.c      ****         return 1;
 237:.\main.c      ****     }
 238:.\main.c      ****     for(i = 0; i < numAlarms; i++){
 239:.\main.c      ****         // if the hours and the minutes of the alarm match then ring the alarm 
 240:.\main.c      ****         if ((now.hh == alarms[i].dt.hh) && (now.mm == alarms[i].dt.mm)){
 146              		.loc 1 240 0
 147 0018 9DF80310 		ldrb	r1, [sp, #3]	@ zero_extendqisi2
 148 001c 03EB4302 		add	r2, r3, r3, lsl #1
 149 0020 1548     		ldr	r0, .L14+4
 150 0022 825C     		ldrb	r2, [r0, r2]	@ zero_extendqisi2
 151 0024 9142     		cmp	r1, r2
 152 0026 1AD1     		bne	.L10
 153              		.loc 1 240 0 is_stmt 0 discriminator 1
 154 0028 9DF80410 		ldrb	r1, [sp, #4]	@ zero_extendqisi2
 155 002c 03EB4302 		add	r2, r3, r3, lsl #1
 156 0030 0244     		add	r2, r2, r0
ARM GAS  C:\Users\jaohe\AppData\Local\Temp\ccbQAV2C.s 			page 8


 157 0032 5278     		ldrb	r2, [r2, #1]	@ zero_extendqisi2
 158 0034 9142     		cmp	r1, r2
 159 0036 12D1     		bne	.L10
 241:.\main.c      ****             current_alarm = alarms[i];
 160              		.loc 1 241 0 is_stmt 1
 161 0038 104A     		ldr	r2, .L14+8
 162 003a 03EB4303 		add	r3, r3, r3, lsl #1
 163              	.LVL15:
 164 003e 0344     		add	r3, r3, r0
 165 0040 1988     		ldrh	r1, [r3]	@ unaligned
 166 0042 9B78     		ldrb	r3, [r3, #2]	@ zero_extendqisi2
 167 0044 1180     		strh	r1, [r2]	@ unaligned
 168 0046 9370     		strb	r3, [r2, #2]
 242:.\main.c      ****             in_alarm = true;
 169              		.loc 1 242 0
 170 0048 0124     		movs	r4, #1
 171 004a 0A4B     		ldr	r3, .L14
 172 004c 1C70     		strb	r4, [r3]
 243:.\main.c      ****             LED_3_Write(~LED_3_Read());
 173              		.loc 1 243 0
 174 004e FFF7FEFF 		bl	LED_3_Read
 175              	.LVL16:
 176 0052 C043     		mvns	r0, r0
 177 0054 C0B2     		uxtb	r0, r0
 178 0056 FFF7FEFF 		bl	LED_3_Write
 179              	.LVL17:
 244:.\main.c      ****             
 245:.\main.c      ****             return 1;
 180              		.loc 1 245 0
 181 005a 2046     		mov	r0, r4
 182 005c 07E0     		b	.L8
 183              	.LVL18:
 184              	.L10:
 238:.\main.c      ****         // if the hours and the minutes of the alarm match then ring the alarm 
 185              		.loc 1 238 0 discriminator 2
 186 005e 0133     		adds	r3, r3, #1
 187              	.LVL19:
 188              	.L9:
 238:.\main.c      ****         // if the hours and the minutes of the alarm match then ring the alarm 
 189              		.loc 1 238 0 is_stmt 0 discriminator 1
 190 0060 054A     		ldr	r2, .L14+4
 191 0062 9268     		ldr	r2, [r2, #8]
 192 0064 9342     		cmp	r3, r2
 193 0066 D7DB     		blt	.L11
 246:.\main.c      ****         }
 247:.\main.c      ****     }
 248:.\main.c      ****     return 0;
 194              		.loc 1 248 0 is_stmt 1
 195 0068 0020     		movs	r0, #0
 196 006a 00E0     		b	.L8
 197              	.LVL20:
 198              	.L12:
 236:.\main.c      ****     }
 199              		.loc 1 236 0
 200 006c 0120     		movs	r0, #1
 201              	.LVL21:
 202              	.L8:
ARM GAS  C:\Users\jaohe\AppData\Local\Temp\ccbQAV2C.s 			page 9


 249:.\main.c      **** }
 203              		.loc 1 249 0
 204 006e 02B0     		add	sp, sp, #8
 205              		.cfi_def_cfa_offset 8
 206              		@ sp needed
 207 0070 10BD     		pop	{r4, pc}
 208              	.L15:
 209 0072 00BF     		.align	2
 210              	.L14:
 211 0074 00000000 		.word	in_alarm
 212 0078 00000000 		.word	.LANCHOR0
 213 007c 00000000 		.word	current_alarm
 214              		.cfi_endproc
 215              	.LFE67:
 216              		.size	alarmCheck, .-alarmCheck
 217              		.section	.text.init_globals,"ax",%progbits
 218              		.align	2
 219              		.global	init_globals
 220              		.thumb
 221              		.thumb_func
 222              		.type	init_globals, %function
 223              	init_globals:
 224              	.LFB68:
 250:.\main.c      **** 
 251:.\main.c      **** void init_globals(void) {
 225              		.loc 1 251 0
 226              		.cfi_startproc
 227              		@ args = 0, pretend = 0, frame = 0
 228              		@ frame_needed = 0, uses_anonymous_args = 0
 229              		@ link register save eliminated.
 252:.\main.c      ****     // Initialize Alarm
 253:.\main.c      ****     current_alarm.state = BEFORE_TIME;  
 230              		.loc 1 253 0
 231 0000 094A     		ldr	r2, .L17
 232 0002 0023     		movs	r3, #0
 233 0004 9370     		strb	r3, [r2, #2]
 254:.\main.c      ****     current_alarm.dt.hh = 0;
 234              		.loc 1 254 0
 235 0006 1370     		strb	r3, [r2]
 255:.\main.c      ****     current_alarm.dt.mm = 0;
 236              		.loc 1 255 0
 237 0008 5370     		strb	r3, [r2, #1]
 256:.\main.c      **** 
 257:.\main.c      ****     // Initialize TaskStats
 258:.\main.c      ****     current_task.task.name[0] = '\0';
 238              		.loc 1 258 0
 239 000a 084A     		ldr	r2, .L17+4
 240 000c 1168     		ldr	r1, [r2]
 241 000e 0B70     		strb	r3, [r1]
 259:.\main.c      ****     current_task.task.time_est.isOn = false;
 242              		.loc 1 259 0
 243 0010 5372     		strb	r3, [r2, #9]
 260:.\main.c      ****     current_task.task.status = NOT_SET;
 244              		.loc 1 260 0
 245 0012 1371     		strb	r3, [r2, #4]
 261:.\main.c      ****     current_task.overtime = 0;
 246              		.loc 1 261 0
ARM GAS  C:\Users\jaohe\AppData\Local\Temp\ccbQAV2C.s 			page 10


 247 0014 5361     		str	r3, [r2, #20]
 262:.\main.c      ****     current_task.time_left = 0;
 248              		.loc 1 262 0
 249 0016 1361     		str	r3, [r2, #16]
 263:.\main.c      ****     current_task.act_start.hh = 0;
 250              		.loc 1 263 0
 251 0018 1373     		strb	r3, [r2, #12]
 264:.\main.c      ****     current_task.act_start.mm = 0;
 252              		.loc 1 264 0
 253 001a 5373     		strb	r3, [r2, #13]
 265:.\main.c      **** 
 266:.\main.c      ****     // ISR flag
 267:.\main.c      ****     in_alarm = false;
 254              		.loc 1 267 0
 255 001c 044A     		ldr	r2, .L17+8
 256 001e 1370     		strb	r3, [r2]
 268:.\main.c      ****     isr_flag = false;
 257              		.loc 1 268 0
 258 0020 044A     		ldr	r2, .L17+12
 259 0022 1370     		strb	r3, [r2]
 260 0024 7047     		bx	lr
 261              	.L18:
 262 0026 00BF     		.align	2
 263              	.L17:
 264 0028 00000000 		.word	current_alarm
 265 002c 00000000 		.word	current_task
 266 0030 00000000 		.word	in_alarm
 267 0034 00000000 		.word	isr_flag
 268              		.cfi_endproc
 269              	.LFE68:
 270              		.size	init_globals, .-init_globals
 271              		.section	.text.menu,"ax",%progbits
 272              		.align	2
 273              		.global	menu
 274              		.thumb
 275              		.thumb_func
 276              		.type	menu, %function
 277              	menu:
 278              	.LFB70:
 269:.\main.c      **** }
 270:.\main.c      **** 
 271:.\main.c      **** int main(){
 272:.\main.c      ****    CyGlobalIntEnable;            // 1. Global interrupts first!
 273:.\main.c      ****    tick_isr_ClearPending();
 274:.\main.c      ****     SwInt_ClearPending();
 275:.\main.c      ****    
 276:.\main.c      ****    Timer_1_Start();       // Start the 1 MHz clock
 277:.\main.c      ****    tick_isr_StartEx(Timer_1_Handler); // Link ISR
 278:.\main.c      ****    
 279:.\main.c      ****     SwInt_StartEx(Snooze_Btn_Handler);
 280:.\main.c      ****     
 281:.\main.c      **** 
 282:.\main.c      ****     I2CRTC_Start();                  // 2. Start I²C for RTC
 283:.\main.c      ****     SPIM_1_Start();                  // 2. Start SPI for TFT
 284:.\main.c      ****     LCD_Char_1_Start();              // 2. Start Character LCD
 285:.\main.c      ****     
 286:.\main.c      ****     
ARM GAS  C:\Users\jaohe\AppData\Local\Temp\ccbQAV2C.s 			page 11


 287:.\main.c      ****     LCD_Char_1_ClearDisplay();
 288:.\main.c      ****     
 289:.\main.c      **** 
 290:.\main.c      ****     LCD_Char_1_PrintString("Time: "); // 6. Print basic layout
 291:.\main.c      ****     UART_1_Init();
 292:.\main.c      ****     UART_1_Start();
 293:.\main.c      ****     
 294:.\main.c      ****     UART_2_Init();
 295:.\main.c      ****     UART_2_Start();
 296:.\main.c      **** //    DateTime now = {
 297:.\main.c      **** //        25, ///< Year offset from 2000
 298:.\main.c      **** //        05,    ///< Month 1-12
 299:.\main.c      **** //        12,    ///< Day 1-31
 300:.\main.c      **** //        11,   ///< Hours 0-23
 301:.\main.c      **** //        15,   ///< Minutes 0-59
 302:.\main.c      **** //        50   ///< Seconds 0-59
 303:.\main.c      **** //    };
 304:.\main.c      **** //
 305:.\main.c      **** //    RTC_setTime(now);
 306:.\main.c      **** 
 307:.\main.c      ****     // int status = RTC_setAlarmTime(0,0,0,0,0,1,1,1,1,DS3231_ALARM1);
 308:.\main.c      ****     // i2c_status(status);
 309:.\main.c      ****     // CyDelay(1000);
 310:.\main.c      ****     GUI_Init();                             // initilize graphics library
 311:.\main.c      ****     GUI_SetBkColor(GUI_MAKE_COLOR(COLOR_BG_LIGHT));
 312:.\main.c      ****     GUI_Clear();
 313:.\main.c      ****     GUI_SetFont(&GUI_Font8x16);
 314:.\main.c      ****     init_globals();
 315:.\main.c      **** //    GUI_SetBkColor(GUI_MAKE_COLOR(COLOR_NEUTRAL_GRAYBLUE));
 316:.\main.c      ****     
 317:.\main.c      ****     fsmState = HOME;
 318:.\main.c      ****     
 319:.\main.c      ****     for(;;) {
 320:.\main.c      ****         
 321:.\main.c      ****         switch(fsmState){
 322:.\main.c      ****             case MENU:
 323:.\main.c      ****                 fsmState = menu();
 324:.\main.c      ****                 //fsmState = start();
 325:.\main.c      ****                 break;
 326:.\main.c      ****             case HOME:
 327:.\main.c      ****                 fsmState = home();
 328:.\main.c      ****                 break;
 329:.\main.c      ****             case TASK_SCHEDULER:
 330:.\main.c      ****                 break;
 331:.\main.c      ****             case TASK_START:
 332:.\main.c      ****                 fsmState = user_start_task();
 333:.\main.c      ****                 break; 
 334:.\main.c      ****             case VIEW_METRICS:
 335:.\main.c      ****                 break;
 336:.\main.c      ****             case SECOND_MOVE:
 337:.\main.c      ****                 fsmState = user_start_task();
 338:.\main.c      ****             case ERROR:
 339:.\main.c      ****                 break;
 340:.\main.c      ****                
 341:.\main.c      ****         }
 342:.\main.c      ****     }                              // loop
 343:.\main.c      **** }
ARM GAS  C:\Users\jaohe\AppData\Local\Temp\ccbQAV2C.s 			page 12


 344:.\main.c      **** int menu(void){
 279              		.loc 1 344 0
 280              		.cfi_startproc
 281              		@ args = 0, pretend = 0, frame = 16
 282              		@ frame_needed = 0, uses_anonymous_args = 0
 283 0000 10B5     		push	{r4, lr}
 284              		.cfi_def_cfa_offset 8
 285              		.cfi_offset 4, -8
 286              		.cfi_offset 14, -4
 287 0002 84B0     		sub	sp, sp, #16
 288              		.cfi_def_cfa_offset 24
 345:.\main.c      ****     GUI_SetBkColor(GUI_MAKE_COLOR(COLOR_BG_LIGHT));
 289              		.loc 1 345 0
 290 0004 3048     		ldr	r0, .L27
 291 0006 FFF7FEFF 		bl	GUI_SetBkColor
 292              	.LVL22:
 346:.\main.c      ****     GUI_Clear();
 293              		.loc 1 346 0
 294 000a FFF7FEFF 		bl	GUI_Clear
 295              	.LVL23:
 347:.\main.c      ****     GUI_SetFont(TITLE_TXT);
 296              		.loc 1 347 0
 297 000e 2F48     		ldr	r0, .L27+4
 298 0010 FFF7FEFF 		bl	GUI_SetFont
 299              	.LVL24:
 348:.\main.c      ****     GUI_SetColor(COLOR_TEXT_PRIMARY);
 300              		.loc 1 348 0
 301 0014 2E48     		ldr	r0, .L27+8
 302 0016 FFF7FEFF 		bl	GUI_SetColor
 303              	.LVL25:
 349:.\main.c      ****     GUI_DispStringAt("Main Menu", 5,5);
 304              		.loc 1 349 0
 305 001a 2E48     		ldr	r0, .L27+12
 306 001c 0521     		movs	r1, #5
 307 001e 0A46     		mov	r2, r1
 308 0020 FFF7FEFF 		bl	GUI_DispStringAt
 309              	.LVL26:
 350:.\main.c      ****     int i;
 351:.\main.c      ****     char *menu_options[3] = {
 310              		.loc 1 351 0
 311 0024 2C4A     		ldr	r2, .L27+16
 312 0026 01AB     		add	r3, sp, #4
 313 0028 07CA     		ldmia	r2, {r0, r1, r2}
 314 002a 83E80700 		stmia	r3, {r0, r1, r2}
 352:.\main.c      ****         "Start Task",
 353:.\main.c      ****         "Move Task 2 Stick",
 354:.\main.c      ****         "Third Option"
 355:.\main.c      ****     };
 356:.\main.c      ****     
 357:.\main.c      ****     DrawTaskList(menu_options);
 315              		.loc 1 357 0
 316 002e 1846     		mov	r0, r3
 317 0030 FFF7FEFF 		bl	DrawTaskList
 318              	.LVL27:
 358:.\main.c      ****     uint8 selected = 0;
 319              		.loc 1 358 0
 320 0034 0024     		movs	r4, #0
ARM GAS  C:\Users\jaohe\AppData\Local\Temp\ccbQAV2C.s 			page 13


 321              	.LVL28:
 322              	.L20:
 359:.\main.c      ****     for (;;){
 360:.\main.c      ****         if (JOYSTICK_U_Read() == 0){
 323              		.loc 1 360 0
 324 0036 FFF7FEFF 		bl	JOYSTICK_U_Read
 325              	.LVL29:
 326 003a D0B9     		cbnz	r0, .L21
 361:.\main.c      ****             DrawUnselectedListItem(selected, menu_options[selected]);
 327              		.loc 1 361 0
 328 003c 04AB     		add	r3, sp, #16
 329 003e 03EB8403 		add	r3, r3, r4, lsl #2
 330 0042 2046     		mov	r0, r4
 331 0044 53F80C1C 		ldr	r1, [r3, #-12]
 332 0048 FFF7FEFF 		bl	DrawUnselectedListItem
 333              	.LVL30:
 362:.\main.c      ****             selected--;
 334              		.loc 1 362 0
 335 004c 013C     		subs	r4, r4, #1
 336              	.LVL31:
 337 004e E4B2     		uxtb	r4, r4
 338              	.LVL32:
 363:.\main.c      ****             selected %=3;
 339              		.loc 1 363 0
 340 0050 224B     		ldr	r3, .L27+20
 341 0052 A3FB0423 		umull	r2, r3, r3, r4
 342 0056 5B08     		lsrs	r3, r3, #1
 343 0058 03EB4303 		add	r3, r3, r3, lsl #1
 344 005c E41A     		subs	r4, r4, r3
 345              	.LVL33:
 346 005e E4B2     		uxtb	r4, r4
 347              	.LVL34:
 364:.\main.c      ****             DrawSelectedListItem(selected, menu_options[selected]);
 348              		.loc 1 364 0
 349 0060 04AB     		add	r3, sp, #16
 350 0062 03EB8403 		add	r3, r3, r4, lsl #2
 351 0066 2046     		mov	r0, r4
 352 0068 53F80C1C 		ldr	r1, [r3, #-12]
 353 006c FFF7FEFF 		bl	DrawSelectedListItem
 354              	.LVL35:
 355 0070 E1E7     		b	.L20
 356              	.L21:
 365:.\main.c      ****         } else if (JOYSTICK_D_Read() == 0){
 357              		.loc 1 365 0
 358 0072 FFF7FEFF 		bl	JOYSTICK_D_Read
 359              	.LVL36:
 360 0076 D0B9     		cbnz	r0, .L23
 366:.\main.c      ****             DrawUnselectedListItem(selected, menu_options[selected]);
 361              		.loc 1 366 0
 362 0078 04AB     		add	r3, sp, #16
 363 007a 03EB8403 		add	r3, r3, r4, lsl #2
 364 007e 2046     		mov	r0, r4
 365 0080 53F80C1C 		ldr	r1, [r3, #-12]
 366 0084 FFF7FEFF 		bl	DrawUnselectedListItem
 367              	.LVL37:
 367:.\main.c      ****             selected++;
 368              		.loc 1 367 0
ARM GAS  C:\Users\jaohe\AppData\Local\Temp\ccbQAV2C.s 			page 14


 369 0088 0134     		adds	r4, r4, #1
 370              	.LVL38:
 371 008a E4B2     		uxtb	r4, r4
 372              	.LVL39:
 368:.\main.c      ****             selected %=3;
 373              		.loc 1 368 0
 374 008c 134B     		ldr	r3, .L27+20
 375 008e A3FB0423 		umull	r2, r3, r3, r4
 376 0092 5B08     		lsrs	r3, r3, #1
 377 0094 03EB4303 		add	r3, r3, r3, lsl #1
 378 0098 E41A     		subs	r4, r4, r3
 379              	.LVL40:
 380 009a E4B2     		uxtb	r4, r4
 381              	.LVL41:
 369:.\main.c      ****             DrawSelectedListItem(selected, menu_options[selected]);
 382              		.loc 1 369 0
 383 009c 04AB     		add	r3, sp, #16
 384 009e 03EB8403 		add	r3, r3, r4, lsl #2
 385 00a2 2046     		mov	r0, r4
 386 00a4 53F80C1C 		ldr	r1, [r3, #-12]
 387 00a8 FFF7FEFF 		bl	DrawSelectedListItem
 388              	.LVL42:
 389 00ac C3E7     		b	.L20
 390              	.L23:
 370:.\main.c      ****         }else if (JOYSTICK_M_Read() == 0){
 391              		.loc 1 370 0
 392 00ae FFF7FEFF 		bl	JOYSTICK_M_Read
 393              	.LVL43:
 394 00b2 0028     		cmp	r0, #0
 395 00b4 BFD1     		bne	.L20
 371:.\main.c      ****             if (selected == 0){
 396              		.loc 1 371 0
 397 00b6 1CB1     		cbz	r4, .L25
 372:.\main.c      ****                 return TASK_START;
 373:.\main.c      ****             } else if (selected == 1){
 398              		.loc 1 373 0
 399 00b8 012C     		cmp	r4, #1
 400 00ba BCD1     		bne	.L20
 374:.\main.c      ****                 return SECOND_MOVE;
 401              		.loc 1 374 0
 402 00bc 0520     		movs	r0, #5
 403 00be 00E0     		b	.L24
 404              	.L25:
 372:.\main.c      ****                 return TASK_START;
 405              		.loc 1 372 0
 406 00c0 0220     		movs	r0, #2
 407              	.L24:
 375:.\main.c      ****             }
 376:.\main.c      ****         }
 377:.\main.c      ****            
 378:.\main.c      ****     }
 379:.\main.c      ****     
 380:.\main.c      ****     
 381:.\main.c      ****     
 382:.\main.c      ****     ADC_DelSig_1_Start();				// start the ADC_DelSig_1
 383:.\main.c      **** 	ADC_DelSig_1_StartConvert();		// start the ADC_DelSig_1 conversion
 384:.\main.c      ****     
ARM GAS  C:\Users\jaohe\AppData\Local\Temp\ccbQAV2C.s 			page 15


 385:.\main.c      **** }
 408              		.loc 1 385 0 discriminator 1
 409 00c2 04B0     		add	sp, sp, #16
 410              		.cfi_def_cfa_offset 8
 411              		@ sp needed
 412 00c4 10BD     		pop	{r4, pc}
 413              	.LVL44:
 414              	.L28:
 415 00c6 00BF     		.align	2
 416              	.L27:
 417 00c8 FFF9F700 		.word	16251391
 418 00cc 00000000 		.word	GUI_Font8x16x2x2
 419 00d0 25141800 		.word	1578021
 420 00d4 00000000 		.word	.LC8
 421 00d8 00000000 		.word	.LANCHOR1
 422 00dc ABAAAAAA 		.word	-1431655765
 423              		.cfi_endproc
 424              	.LFE70:
 425              		.size	menu, .-menu
 426              		.section	.text.send_2_second,"ax",%progbits
 427              		.align	2
 428              		.global	send_2_second
 429              		.thumb
 430              		.thumb_func
 431              		.type	send_2_second, %function
 432              	send_2_second:
 433              	.LFB71:
 386:.\main.c      **** int send_2_second(TimedTask task){
 434              		.loc 1 386 0
 435              		.cfi_startproc
 436              		@ args = 0, pretend = 0, frame = 16
 437              		@ frame_needed = 0, uses_anonymous_args = 0
 438 0000 00B5     		push	{lr}
 439              		.cfi_def_cfa_offset 4
 440              		.cfi_offset 14, -4
 441 0002 85B0     		sub	sp, sp, #20
 442              		.cfi_def_cfa_offset 24
 443 0004 04AB     		add	r3, sp, #16
 444 0006 03E90700 		stmdb	r3, {r0, r1, r2}
 387:.\main.c      ****     UART_1_PutString(task.name);
 445              		.loc 1 387 0
 446 000a 0198     		ldr	r0, [sp, #4]
 447 000c FFF7FEFF 		bl	UART_1_PutString
 448              	.LVL45:
 388:.\main.c      **** }
 449              		.loc 1 388 0
 450 0010 05B0     		add	sp, sp, #20
 451              		.cfi_def_cfa_offset 4
 452              		@ sp needed
 453 0012 5DF804FB 		ldr	pc, [sp], #4
 454              		.cfi_endproc
 455              	.LFE71:
 456              		.size	send_2_second, .-send_2_second
 457 0016 00BF     		.section	.text.DrawButton,"ax",%progbits
 458              		.align	2
 459              		.global	DrawButton
 460              		.thumb
ARM GAS  C:\Users\jaohe\AppData\Local\Temp\ccbQAV2C.s 			page 16


 461              		.thumb_func
 462              		.type	DrawButton, %function
 463              	DrawButton:
 464              	.LFB73:
 389:.\main.c      **** int user_start_task(void){
 390:.\main.c      ****     GUI_SetBkColor(GUI_MAKE_COLOR(COLOR_BG_LIGHT));
 391:.\main.c      ****     GUI_Clear();
 392:.\main.c      ****     GUI_SetFont(TITLE_TXT);
 393:.\main.c      ****     GUI_SetColor(COLOR_TEXT_PRIMARY);
 394:.\main.c      ****     GUI_DispStringAt("Choose a Task", 5,5);
 395:.\main.c      ****     int i;
 396:.\main.c      ****     char * task_names[numTasks];
 397:.\main.c      ****     for(i = 0; i < numTasks; i++){
 398:.\main.c      ****         task_names[i] = tasks[i].name;
 399:.\main.c      ****     }
 400:.\main.c      ****     DrawTaskList(task_names);
 401:.\main.c      ****     uint16 adcResult = 0;
 402:.\main.c      ****     int selected = 0;
 403:.\main.c      ****     
 404:.\main.c      ****     ADC_DelSig_1_Start();				// start the ADC_DelSig_1
 405:.\main.c      **** 	ADC_DelSig_1_StartConvert();		// start the ADC_DelSig_1 conversion
 406:.\main.c      ****     
 407:.\main.c      ****     for (;;){
 408:.\main.c      ****         if (FORWARD_BTN_Read() == 0){
 409:.\main.c      ****             GUI_Clear();
 410:.\main.c      ****             char line[50];
 411:.\main.c      ****             sprintf(line, "Selected Task : %s", task_names[selected]);
 412:.\main.c      ****             notification(line);
 413:.\main.c      ****             CyDelay(1000);
 414:.\main.c      ****             if (fsmState == TASK_START){
 415:.\main.c      ****                 return system_start_task(tasks[selected]);
 416:.\main.c      ****             }else if (fsmState == SECOND_MOVE){
 417:.\main.c      ****                 return send_2_second(tasks[selected]);
 418:.\main.c      ****             }
 419:.\main.c      ****             
 420:.\main.c      ****             for(;;){}
 421:.\main.c      ****            
 422:.\main.c      ****         }
 423:.\main.c      ****         if( ADC_DelSig_1_IsEndConversion(ADC_DelSig_1_WAIT_FOR_RESULT) )
 424:.\main.c      **** 		{
 425:.\main.c      ****             
 426:.\main.c      **** 			DrawUnselectedListItem(selected, task_names[selected]); // first unselect the item
 427:.\main.c      **** 			adcResult = ADC_DelSig_1_GetResult16();		// read the adc and assign the value adcResult 
 428:.\main.c      ****        		if (adcResult & 0x8000)
 429:.\main.c      ****        		{
 430:.\main.c      ****         		adcResult = 0;       // ignore negative ADC results
 431:.\main.c      ****        		}
 432:.\main.c      ****        		else if (adcResult >= 0xfff)
 433:.\main.c      ****        		{
 434:.\main.c      ****         		adcResult = 0xfff;      // ignore high ADC results
 435:.\main.c      ****        		}
 436:.\main.c      ****             uint16 segment = adcResult / 1365;
 437:.\main.c      ****             selected = segment; 
 438:.\main.c      ****             char *line;
 439:.\main.c      ****             sprintf(line, "selected %d", selected);
 440:.\main.c      ****             print(line);
 441:.\main.c      ****             DrawSelectedListItem(selected, task_names[selected]); // select the item
ARM GAS  C:\Users\jaohe\AppData\Local\Temp\ccbQAV2C.s 			page 17


 442:.\main.c      ****             
 443:.\main.c      ****            
 444:.\main.c      ****             
 445:.\main.c      ****             
 446:.\main.c      ****         }
 447:.\main.c      ****     }
 448:.\main.c      ****    
 449:.\main.c      ****     return IN_PROGRESS;
 450:.\main.c      **** }
 451:.\main.c      **** 
 452:.\main.c      **** void DrawButton(int x, int y, int w, int h, char* label) {
 465              		.loc 1 452 0
 466              		.cfi_startproc
 467              		@ args = 4, pretend = 0, frame = 8
 468              		@ frame_needed = 0, uses_anonymous_args = 0
 469              	.LVL46:
 470 0000 2DE9F043 		push	{r4, r5, r6, r7, r8, r9, lr}
 471              		.cfi_def_cfa_offset 28
 472              		.cfi_offset 4, -28
 473              		.cfi_offset 5, -24
 474              		.cfi_offset 6, -20
 475              		.cfi_offset 7, -16
 476              		.cfi_offset 8, -12
 477              		.cfi_offset 9, -8
 478              		.cfi_offset 14, -4
 479 0004 83B0     		sub	sp, sp, #12
 480              		.cfi_def_cfa_offset 40
 481 0006 0746     		mov	r7, r0
 482 0008 0E46     		mov	r6, r1
 483 000a 1546     		mov	r5, r2
 484 000c 1C46     		mov	r4, r3
 453:.\main.c      ****     GUI_SetColor(GUI_MAKE_COLOR(COLOR_ACCENT_PURPLE));
 485              		.loc 1 453 0
 486 000e 1C48     		ldr	r0, .L33
 487              	.LVL47:
 488 0010 FFF7FEFF 		bl	GUI_SetColor
 489              	.LVL48:
 454:.\main.c      ****     GUI_FillRect(x, y, x + w - 1, y + h - 1);
 490              		.loc 1 454 0
 491 0014 07EB0509 		add	r9, r7, r5
 492 0018 09F1FF39 		add	r9, r9, #-1
 493 001c 06EB0408 		add	r8, r6, r4
 494 0020 08F1FF38 		add	r8, r8, #-1
 495 0024 3846     		mov	r0, r7
 496 0026 3146     		mov	r1, r6
 497 0028 4A46     		mov	r2, r9
 498 002a 4346     		mov	r3, r8
 499 002c FFF7FEFF 		bl	GUI_FillRect
 500              	.LVL49:
 455:.\main.c      ****     GUI_SetColor(GUI_WHITE);
 501              		.loc 1 455 0
 502 0030 6FF07F40 		mvn	r0, #-16777216
 503 0034 FFF7FEFF 		bl	GUI_SetColor
 504              	.LVL50:
 456:.\main.c      ****     GUI_SetPenSize(3);
 505              		.loc 1 456 0
 506 0038 0320     		movs	r0, #3
ARM GAS  C:\Users\jaohe\AppData\Local\Temp\ccbQAV2C.s 			page 18


 507 003a FFF7FEFF 		bl	GUI_SetPenSize
 508              	.LVL51:
 457:.\main.c      ****     GUI_DrawRect(x, y, x + w - 1, y + h - 1);
 509              		.loc 1 457 0
 510 003e 3846     		mov	r0, r7
 511 0040 3146     		mov	r1, r6
 512 0042 4A46     		mov	r2, r9
 513 0044 4346     		mov	r3, r8
 514 0046 FFF7FEFF 		bl	GUI_DrawRect
 515              	.LVL52:
 458:.\main.c      ****     GUI_SetPenSize(1);
 516              		.loc 1 458 0
 517 004a 0120     		movs	r0, #1
 518 004c FFF7FEFF 		bl	GUI_SetPenSize
 519              	.LVL53:
 459:.\main.c      ****     GUI_RECT rect = {x, y, x + w - 1, y + h - 1};
 520              		.loc 1 459 0
 521 0050 ADF80070 		strh	r7, [sp]	@ movhi
 522 0054 ADF80260 		strh	r6, [sp, #2]	@ movhi
 523 0058 ADF80490 		strh	r9, [sp, #4]	@ movhi
 524 005c ADF80680 		strh	r8, [sp, #6]	@ movhi
 460:.\main.c      **** 
 461:.\main.c      ****     GUI_SetColor(GUI_WHITE);
 525              		.loc 1 461 0
 526 0060 6FF07F40 		mvn	r0, #-16777216
 527 0064 FFF7FEFF 		bl	GUI_SetColor
 528              	.LVL54:
 462:.\main.c      ****     GUI_SetFont(NORMAL_TXT);
 529              		.loc 1 462 0
 530 0068 0648     		ldr	r0, .L33+4
 531 006a FFF7FEFF 		bl	GUI_SetFont
 532              	.LVL55:
 463:.\main.c      ****     GUI_DispStringInRectWrap(label, &rect, GUI_TA_HCENTER | GUI_TA_VCENTER, GUI_WRAPMODE_WORD);
 533              		.loc 1 463 0
 534 006e 0A98     		ldr	r0, [sp, #40]
 535 0070 6946     		mov	r1, sp
 536 0072 0E22     		movs	r2, #14
 537 0074 0123     		movs	r3, #1
 538 0076 FFF7FEFF 		bl	GUI_DispStringInRectWrap
 539              	.LVL56:
 464:.\main.c      **** }
 540              		.loc 1 464 0
 541 007a 03B0     		add	sp, sp, #12
 542              		.cfi_def_cfa_offset 28
 543              		@ sp needed
 544 007c BDE8F083 		pop	{r4, r5, r6, r7, r8, r9, pc}
 545              	.LVL57:
 546              	.L34:
 547              		.align	2
 548              	.L33:
 549 0080 C44D8300 		.word	8605124
 550 0084 00000000 		.word	GUI_Font8x16_ASCII
 551              		.cfi_endproc
 552              	.LFE73:
 553              		.size	DrawButton, .-DrawButton
 554              		.section	.text.task_complete,"ax",%progbits
 555              		.align	2
ARM GAS  C:\Users\jaohe\AppData\Local\Temp\ccbQAV2C.s 			page 19


 556              		.global	task_complete
 557              		.thumb
 558              		.thumb_func
 559              		.type	task_complete, %function
 560              	task_complete:
 561              	.LFB75:
 465:.\main.c      **** // int createActionList(const char* actions[], int num_actions) {
 466:.\main.c      **** //     GUI_SetFont(NORMAL_TXT);  // Set a legible font
 467:.\main.c      **** //     GUI_SetColor(GUI_WHITE);  // Set text color to white
 468:.\main.c      **** //     GUI_SetBkColor(GUI_MAKE_COLOR(COLOR_BG_LIGHT)); // Set background color
 469:.\main.c      **** 
 470:.\main.c      **** //     int i;
 471:.\main.c      **** //     for (i = 0; i < num_actions; i++) {
 472:.\main.c      **** //         DrawButton(10, 40 + i * 30, 220, 25, actions[i]);
 473:.\main.c      **** //     }
 474:.\main.c      ****     
 475:.\main.c      **** //     return 0; // Return success status
 476:.\main.c      **** // }
 477:.\main.c      **** 
 478:.\main.c      **** int system_start_task(TimedTask task){
 479:.\main.c      ****     extern TaskStats current_task;
 480:.\main.c      ****    DateTime now = RTC_now();
 481:.\main.c      ****    DayTime act_start = {now.hh, now.mm};
 482:.\main.c      ****     
 483:.\main.c      ****     current_task.task = task;
 484:.\main.c      ****     current_task.act_start = act_start;
 485:.\main.c      ****     current_task.time_left = task.time_est.time.hh * 3600 + task.time_est.time.mm * 60;
 486:.\main.c      ****     
 487:.\main.c      ****     // start the task, countdown timer
 488:.\main.c      **** 
 489:.\main.c      ****     GUI_SetBkColor(GUI_MAKE_COLOR(COLOR_BG_DARK));
 490:.\main.c      ****     GUI_Clear();
 491:.\main.c      ****     GUI_SetFont(NORMAL_TXT);
 492:.\main.c      **** 
 493:.\main.c      ****     GUI_RECT Rect = {  UI_PADDING, UI_PADDING, MAX_X - UI_PADDING,  MAX_Y*1/6};
 494:.\main.c      ****     GUI_SetColor(GUI_WHITE);
 495:.\main.c      **** 
 496:.\main.c      **** 
 497:.\main.c      ****     GUI_DispStringInRectWrap("Task in Progress", &Rect, GUI_TA_HCENTER | GUI_TA_VCENTER, GUI_WRAPMO
 498:.\main.c      ****     GUI_SetFont(NORMAL_TXT);
 499:.\main.c      ****     
 500:.\main.c      ****     GUI_RECT rectangle = { UI_PADDING,MAX_Y*1/6, MAX_X - UI_PADDING,  MAX_Y*2/6};
 501:.\main.c      ****     GUI_DispStringInRectWrap(task.name, &rectangle, GUI_TA_HCENTER | GUI_TA_VCENTER, GUI_WRAPMODE_W
 502:.\main.c      ****     
 503:.\main.c      ****     char line[27];
 504:.\main.c      ****     
 505:.\main.c      ****     
 506:.\main.c      ****     
 507:.\main.c      **** 
 508:.\main.c      ****     current_task.task.status = IN_PROGRESS;
 509:.\main.c      **** 
 510:.\main.c      ****     DrawButton(UI_PADDING, MAX_Y *5/6, MAX_X - UI_PADDING, MAX_Y - UI_PADDING, "End Task");
 511:.\main.c      **** 
 512:.\main.c      ****     
 513:.\main.c      ****     while (current_task.task.status == IN_PROGRESS) {
 514:.\main.c      ****         // if the task is not a timed task and we have gotten over the estimated time , make time r
 515:.\main.c      ****         if (current_task.task.time_est.isOn == false && current_task.overtime > 0){
ARM GAS  C:\Users\jaohe\AppData\Local\Temp\ccbQAV2C.s 			page 20


 516:.\main.c      ****             int hours = current_task.overtime / 3600;
 517:.\main.c      ****             int minutes = (current_task.overtime % 3600) / 60;
 518:.\main.c      ****             int seconds = current_task.overtime % 60;
 519:.\main.c      ****             GUI_SetColor(GUI_MAKE_COLOR(COLOR_ERROR));
 520:.\main.c      ****             sprintf(line, "%02d:%02d:%02d", hours, minutes, seconds);
 521:.\main.c      ****         }else{
 522:.\main.c      ****             int hours = current_task.time_left / 3600;
 523:.\main.c      ****             int minutes = (current_task.time_left % 3600) / 60;
 524:.\main.c      ****             int seconds = current_task.time_left % 60;
 525:.\main.c      ****             GUI_SetColor(GUI_WHITE);
 526:.\main.c      ****             sprintf(line, "%02d:%02d:%02d", hours, minutes, seconds);
 527:.\main.c      ****         }
 528:.\main.c      ****         
 529:.\main.c      ****         // Display the countdown text in a defined area
 530:.\main.c      ****         GUI_RECT time_rect = { UI_PADDING,MAX_Y/3, MAX_X - UI_PADDING,  MAX_Y *5/6};
 531:.\main.c      ****         GUI_SetFont(TITLE_TXT);
 532:.\main.c      ****         
 533:.\main.c      ****         
 534:.\main.c      ****         GUI_ClearRectEx(&time_rect);  // Clear just the time area
 535:.\main.c      ****         GUI_DispStringInRectWrap(line, &time_rect, GUI_TA_HCENTER | GUI_TA_VCENTER, GUI_WRAPMODE_WO
 536:.\main.c      **** 
 537:.\main.c      ****     }
 538:.\main.c      ****     // process the tasks stats and send them to the UART once done 
 539:.\main.c      ****     // char line[50];
 540:.\main.c      ****     // sprintf(line, "Task: %s", task.name);
 541:.\main.c      ****     // notification(line);
 542:.\main.c      ****     return task_complete();
 543:.\main.c      ****         
 544:.\main.c      **** 
 545:.\main.c      **** }
 546:.\main.c      **** 
 547:.\main.c      **** 
 548:.\main.c      **** // NOT IMPLEMENTED YET TODO 
 549:.\main.c      **** // process the tasks stats and send them to the UART once done 
 550:.\main.c      **** int task_complete(){
 562              		.loc 1 550 0
 563              		.cfi_startproc
 564              		@ args = 0, pretend = 0, frame = 448
 565              		@ frame_needed = 0, uses_anonymous_args = 0
 566 0000 2DE9F04F 		push	{r4, r5, r6, r7, r8, r9, r10, fp, lr}
 567              		.cfi_def_cfa_offset 36
 568              		.cfi_offset 4, -36
 569              		.cfi_offset 5, -32
 570              		.cfi_offset 6, -28
 571              		.cfi_offset 7, -24
 572              		.cfi_offset 8, -20
 573              		.cfi_offset 9, -16
 574              		.cfi_offset 10, -12
 575              		.cfi_offset 11, -8
 576              		.cfi_offset 14, -4
 577 0004 F7B0     		sub	sp, sp, #476
 578              		.cfi_def_cfa_offset 512
 551:.\main.c      ****     // draw the task complete screen
 552:.\main.c      ****     GUI_SetBkColor(GUI_MAKE_COLOR(COLOR_SUCCESS));
 579              		.loc 1 552 0
 580 0006 4F48     		ldr	r0, .L38
 581 0008 FFF7FEFF 		bl	GUI_SetBkColor
ARM GAS  C:\Users\jaohe\AppData\Local\Temp\ccbQAV2C.s 			page 21


 582              	.LVL58:
 553:.\main.c      ****     GUI_Clear();
 583              		.loc 1 553 0
 584 000c FFF7FEFF 		bl	GUI_Clear
 585              	.LVL59:
 554:.\main.c      **** 
 555:.\main.c      ****     // draw the title and the task name 
 556:.\main.c      ****     GUI_SetFont(TITLE_TXT);
 586              		.loc 1 556 0
 587 0010 4D48     		ldr	r0, .L38+4
 588 0012 FFF7FEFF 		bl	GUI_SetFont
 589              	.LVL60:
 557:.\main.c      ****     GUI_SetColor(GUI_MAKE_COLOR(COLOR_TEXT_PRIMARY));
 590              		.loc 1 557 0
 591 0016 4D48     		ldr	r0, .L38+8
 592 0018 FFF7FEFF 		bl	GUI_SetColor
 593              	.LVL61:
 558:.\main.c      ****     GUI_RECT Rect = {  UI_PADDING, UI_PADDING, MAX_X - UI_PADDING,  MAX_Y*1/6};
 594              		.loc 1 558 0
 595 001c 74AB     		add	r3, sp, #464
 596 001e 4C4A     		ldr	r2, .L38+12
 597 0020 52F80C0F 		ldr	r0, [r2, #12]!	@ unaligned
 598 0024 5168     		ldr	r1, [r2, #4]	@ unaligned
 599 0026 03C3     		stmia	r3!, {r0, r1}
 559:.\main.c      ****     char line[50];
 560:.\main.c      ****     sprintf(line, "Task: %s COMPLETE", current_task.task.name);
 600              		.loc 1 560 0
 601 0028 4A4C     		ldr	r4, .L38+16
 602 002a 2546     		mov	r5, r4
 603 002c 67A8     		add	r0, sp, #412
 604 002e 4A49     		ldr	r1, .L38+20
 605 0030 55F8102B 		ldr	r2, [r5], #16
 606 0034 FFF7FEFF 		bl	sprintf
 607              	.LVL62:
 561:.\main.c      ****     GUI_DispStringInRectWrap("line", &Rect, GUI_TA_HCENTER | GUI_TA_VCENTER, GUI_WRAPMODE_WORD);
 608              		.loc 1 561 0
 609 0038 4848     		ldr	r0, .L38+24
 610 003a 74A9     		add	r1, sp, #464
 611 003c 0E22     		movs	r2, #14
 612 003e 0123     		movs	r3, #1
 613 0040 FFF7FEFF 		bl	GUI_DispStringInRectWrap
 614              	.LVL63:
 562:.\main.c      **** 
 563:.\main.c      ****     GUI_SetFont(NORMAL_TXT);
 615              		.loc 1 563 0
 616 0044 4648     		ldr	r0, .L38+28
 617 0046 FFF7FEFF 		bl	GUI_SetFont
 618              	.LVL64:
 564:.\main.c      ****     GUI_SetColor(GUI_MAKE_COLOR(COLOR_TEXT_SECONDARY)); 
 619              		.loc 1 564 0
 620 004a 4648     		ldr	r0, .L38+32
 621 004c FFF7FEFF 		bl	GUI_SetColor
 622              	.LVL65:
 565:.\main.c      ****     GUI_RECT rectangle = { UI_PADDING,MAX_Y*1/6, MAX_X - UI_PADDING,  MAX_Y/3};
 566:.\main.c      ****     GUI_DispStringInRectWrap("Your Metrics", &Rect, GUI_TA_HCENTER | GUI_TA_TOP, GUI_WRAPMODE_WORD)
 623              		.loc 1 566 0
 624 0050 4548     		ldr	r0, .L38+36
ARM GAS  C:\Users\jaohe\AppData\Local\Temp\ccbQAV2C.s 			page 22


 625 0052 74A9     		add	r1, sp, #464
 626 0054 0222     		movs	r2, #2
 627 0056 0123     		movs	r3, #1
 628 0058 FFF7FEFF 		bl	GUI_DispStringInRectWrap
 629              	.LVL66:
 567:.\main.c      **** 
 568:.\main.c      ****     // calculate the task metrics
 569:.\main.c      ****     char buffer[128];
 570:.\main.c      ****     DayTime t = time_spent(current_task);
 630              		.loc 1 570 0
 631 005c 95E80300 		ldmia	r5, {r0, r1}
 632 0060 8DE80300 		stmia	sp, {r0, r1}
 633 0064 94E80F00 		ldmia	r4, {r0, r1, r2, r3}
 634 0068 FFF7FEFF 		bl	time_spent
 635              	.LVL67:
 571:.\main.c      ****     snprintf(buffer, sizeof(buffer), 
 572:.\main.c      ****         "Estimated Time: %02uh %02um\nActual: %02uh %02um\nOver Time: %02uh %02um\n",
 573:.\main.c      ****         current_task.task.time_est.time.hh, 
 636              		.loc 1 573 0
 637 006c E379     		ldrb	r3, [r4, #7]	@ zero_extendqisi2
 574:.\main.c      ****         current_task.task.time_est.time.mm, 
 638              		.loc 1 574 0
 639 006e 257A     		ldrb	r5, [r4, #8]	@ zero_extendqisi2
 575:.\main.c      ****         t.hh,
 640              		.loc 1 575 0
 641 0070 5FFA80F8 		uxtb	r8, r0
 576:.\main.c      ****         t.mm,
 642              		.loc 1 576 0
 643 0074 C0F30727 		ubfx	r7, r0, #8, #8
 577:.\main.c      ****         current_task.overtime / 3600,
 644              		.loc 1 577 0
 645 0078 6169     		ldr	r1, [r4, #20]
 578:.\main.c      ****         current_task.overtime % 3600 / 60);
 646              		.loc 1 578 0
 647 007a 3C4E     		ldr	r6, .L38+40
 648 007c 81FB06AB 		smull	r10, fp, r1, r6
 649 0080 01EB0B02 		add	r2, r1, fp
 650 0084 C817     		asrs	r0, r1, #31
 651 0086 C0EBE222 		rsb	r2, r0, r2, asr #11
 652 008a 4FF46169 		mov	r9, #3600
 653 008e 09FB1212 		mls	r2, r9, r2, r1
 571:.\main.c      ****         "Estimated Time: %02uh %02um\nActual: %02uh %02um\nOver Time: %02uh %02um\n",
 654              		.loc 1 571 0
 655 0092 0095     		str	r5, [sp]
 656 0094 CDF80480 		str	r8, [sp, #4]
 657 0098 0297     		str	r7, [sp, #8]
 658 009a 86FB01E5 		smull	lr, r5, r6, r1
 659 009e 2944     		add	r1, r1, r5
 660 00a0 C0EBE121 		rsb	r1, r0, r1, asr #11
 661 00a4 0391     		str	r1, [sp, #12]
 662 00a6 324D     		ldr	r5, .L38+44
 663 00a8 85FB0201 		smull	r0, r1, r5, r2
 664 00ac 1144     		add	r1, r1, r2
 665 00ae D217     		asrs	r2, r2, #31
 666 00b0 C2EB6112 		rsb	r2, r2, r1, asr #5
 667 00b4 0492     		str	r2, [sp, #16]
 668 00b6 47A8     		add	r0, sp, #284
ARM GAS  C:\Users\jaohe\AppData\Local\Temp\ccbQAV2C.s 			page 23


 669 00b8 8021     		movs	r1, #128
 670 00ba 2E4A     		ldr	r2, .L38+48
 671 00bc FFF7FEFF 		bl	snprintf
 672              	.LVL68:
 579:.\main.c      ****     DrawTaskMetric(0, buffer, "Time Spent");
 673              		.loc 1 579 0
 674 00c0 0020     		movs	r0, #0
 675 00c2 47A9     		add	r1, sp, #284
 676 00c4 2C4A     		ldr	r2, .L38+52
 677 00c6 FFF7FEFF 		bl	DrawTaskMetric
 678              	.LVL69:
 580:.\main.c      ****     char terminal_buff [256];
 581:.\main.c      **** 
 582:.\main.c      **** 
 583:.\main.c      ****     snprintf(terminal_buff , sizeof(terminal_buff ),
 584:.\main.c      ****         "\r\n==== Task Metrics: Time Spent ====\r\n"
 585:.\main.c      ****         "Task Name      : %s\r\n"
 586:.\main.c      ****         "-------------------------------\r\n"
 587:.\main.c      ****         "Estimated Time : %02uh %02um\r\n"
 588:.\main.c      ****         "Actual Time    : %02uh %02um\r\n"
 589:.\main.c      ****         "Over Time      : %02uh %02um\r\n"
 590:.\main.c      ****         "=================================\r\n",
 591:.\main.c      ****         current_task.task.name,
 592:.\main.c      ****         current_task.task.time_est.time.hh, 
 679              		.loc 1 592 0
 680 00ca 94F807C0 		ldrb	ip, [r4, #7]	@ zero_extendqisi2
 593:.\main.c      ****         current_task.task.time_est.time.mm, 
 681              		.loc 1 593 0
 682 00ce 94F808E0 		ldrb	lr, [r4, #8]	@ zero_extendqisi2
 594:.\main.c      ****         t.hh,
 595:.\main.c      ****         t.mm,
 596:.\main.c      ****         current_task.overtime / 3600,
 683              		.loc 1 596 0
 684 00d2 6169     		ldr	r1, [r4, #20]
 597:.\main.c      ****         (current_task.overtime % 3600) / 60
 685              		.loc 1 597 0
 686 00d4 81FB0623 		smull	r2, r3, r1, r6
 687 00d8 CA18     		adds	r2, r1, r3
 688 00da C817     		asrs	r0, r1, #31
 689 00dc C0EBE222 		rsb	r2, r0, r2, asr #11
 690 00e0 09FB1212 		mls	r2, r9, r2, r1
 583:.\main.c      ****         "\r\n==== Task Metrics: Time Spent ====\r\n"
 691              		.loc 1 583 0
 692 00e4 2368     		ldr	r3, [r4]
 693 00e6 CDF800C0 		str	ip, [sp]
 694 00ea CDF804E0 		str	lr, [sp, #4]
 695 00ee CDF80880 		str	r8, [sp, #8]
 696 00f2 0397     		str	r7, [sp, #12]
 697 00f4 86FB0146 		smull	r4, r6, r6, r1
 698 00f8 3144     		add	r1, r1, r6
 699 00fa C0EBE121 		rsb	r1, r0, r1, asr #11
 700 00fe 0491     		str	r1, [sp, #16]
 701 0100 85FB0215 		smull	r1, r5, r5, r2
 702 0104 1544     		add	r5, r5, r2
 703 0106 D217     		asrs	r2, r2, #31
 704 0108 C2EB6512 		rsb	r2, r2, r5, asr #5
 705 010c 0592     		str	r2, [sp, #20]
ARM GAS  C:\Users\jaohe\AppData\Local\Temp\ccbQAV2C.s 			page 24


 706 010e 06A8     		add	r0, sp, #24
 707 0110 4FF48071 		mov	r1, #256
 708 0114 194A     		ldr	r2, .L38+56
 709 0116 FFF7FEFF 		bl	snprintf
 710              	.LVL70:
 598:.\main.c      ****     );
 599:.\main.c      ****     UART_2_PutString(terminal_buff);
 711              		.loc 1 599 0
 712 011a 06A8     		add	r0, sp, #24
 713 011c FFF7FEFF 		bl	UART_2_PutString
 714              	.LVL71:
 600:.\main.c      ****     UART_2_PutCRLF('\n');
 715              		.loc 1 600 0
 716 0120 0A20     		movs	r0, #10
 717 0122 FFF7FEFF 		bl	UART_2_PutCRLF
 718              	.LVL72:
 601:.\main.c      ****     UART_2_PutCRLF('\n');
 719              		.loc 1 601 0
 720 0126 0A20     		movs	r0, #10
 721 0128 FFF7FEFF 		bl	UART_2_PutCRLF
 722              	.LVL73:
 602:.\main.c      ****     UART_2_PutString("==== PRESS Forward Btn => Home ====\n");
 723              		.loc 1 602 0
 724 012c 1448     		ldr	r0, .L38+60
 725 012e FFF7FEFF 		bl	UART_2_PutString
 726              	.LVL74:
 727              	.L36:
 603:.\main.c      ****     
 604:.\main.c      ****     for(;;){
 605:.\main.c      ****         if (FORWARD_BTN_Read() == 0){
 728              		.loc 1 605 0
 729 0132 FFF7FEFF 		bl	FORWARD_BTN_Read
 730              	.LVL75:
 731 0136 0028     		cmp	r0, #0
 732 0138 FBD1     		bne	.L36
 606:.\main.c      ****             
 607:.\main.c      ****             return HOME;
 608:.\main.c      ****         }
 609:.\main.c      ****     }
 610:.\main.c      **** 
 611:.\main.c      ****     
 612:.\main.c      **** }  
 733              		.loc 1 612 0
 734 013a 0120     		movs	r0, #1
 735 013c 77B0     		add	sp, sp, #476
 736              		.cfi_def_cfa_offset 36
 737              		@ sp needed
 738 013e BDE8F08F 		pop	{r4, r5, r6, r7, r8, r9, r10, fp, pc}
 739              	.L39:
 740 0142 00BF     		.align	2
 741              	.L38:
 742 0144 6CC96B00 		.word	7063916
 743 0148 00000000 		.word	GUI_Font8x16x2x2
 744 014c 25141800 		.word	1578021
 745 0150 00000000 		.word	.LANCHOR1
 746 0154 00000000 		.word	current_task
 747 0158 0C000000 		.word	.LC10
ARM GAS  C:\Users\jaohe\AppData\Local\Temp\ccbQAV2C.s 			page 25


 748 015c 20000000 		.word	.LC11
 749 0160 00000000 		.word	GUI_Font8x16_ASCII
 750 0164 C5AB8D00 		.word	9284549
 751 0168 28000000 		.word	.LC12
 752 016c C5B3A291 		.word	-1851608123
 753 0170 89888888 		.word	-2004318071
 754 0174 38000000 		.word	.LC13
 755 0178 80000000 		.word	.LC14
 756 017c 8C000000 		.word	.LC15
 757 0180 68010000 		.word	.LC16
 758              		.cfi_endproc
 759              	.LFE75:
 760              		.size	task_complete, .-task_complete
 761              		.section	.text.system_start_task,"ax",%progbits
 762              		.align	2
 763              		.global	system_start_task
 764              		.thumb
 765              		.thumb_func
 766              		.type	system_start_task, %function
 767              	system_start_task:
 768              	.LFB74:
 478:.\main.c      ****     extern TaskStats current_task;
 769              		.loc 1 478 0
 770              		.cfi_startproc
 771              		@ args = 0, pretend = 0, frame = 80
 772              		@ frame_needed = 0, uses_anonymous_args = 0
 773 0000 70B5     		push	{r4, r5, r6, lr}
 774              		.cfi_def_cfa_offset 16
 775              		.cfi_offset 4, -16
 776              		.cfi_offset 5, -12
 777              		.cfi_offset 6, -8
 778              		.cfi_offset 14, -4
 779 0002 96B0     		sub	sp, sp, #88
 780              		.cfi_def_cfa_offset 104
 781 0004 03AD     		add	r5, sp, #12
 782 0006 85E80700 		stmia	r5, {r0, r1, r2}
 480:.\main.c      ****    DayTime act_start = {now.hh, now.mm};
 783              		.loc 1 480 0
 784 000a 14A8     		add	r0, sp, #80
 785 000c FFF7FEFF 		bl	RTC_now
 786              	.LVL76:
 481:.\main.c      ****     
 787              		.loc 1 481 0
 788 0010 9DF85330 		ldrb	r3, [sp, #83]	@ zero_extendqisi2
 789 0014 8DF84C30 		strb	r3, [sp, #76]
 790 0018 9DF85430 		ldrb	r3, [sp, #84]	@ zero_extendqisi2
 791 001c 8DF84D30 		strb	r3, [sp, #77]
 483:.\main.c      ****     current_task.act_start = act_start;
 792              		.loc 1 483 0
 793 0020 5C4C     		ldr	r4, .L46
 794 0022 95E80700 		ldmia	r5, {r0, r1, r2}
 795 0026 84E80700 		stmia	r4, {r0, r1, r2}
 484:.\main.c      ****     current_task.time_left = task.time_est.time.hh * 3600 + task.time_est.time.mm * 60;
 796              		.loc 1 484 0
 797 002a BDF84C30 		ldrh	r3, [sp, #76]
 798 002e A381     		strh	r3, [r4, #12]	@ movhi
 485:.\main.c      ****     
ARM GAS  C:\Users\jaohe\AppData\Local\Temp\ccbQAV2C.s 			page 26


 799              		.loc 1 485 0
 800 0030 9DF81320 		ldrb	r2, [sp, #19]	@ zero_extendqisi2
 801 0034 9DF81430 		ldrb	r3, [sp, #20]	@ zero_extendqisi2
 802 0038 C3EB0313 		rsb	r3, r3, r3, lsl #4
 803 003c 9B00     		lsls	r3, r3, #2
 804 003e 4FF46161 		mov	r1, #3600
 805 0042 01FB0233 		mla	r3, r1, r2, r3
 806 0046 2361     		str	r3, [r4, #16]
 489:.\main.c      ****     GUI_Clear();
 807              		.loc 1 489 0
 808 0048 5348     		ldr	r0, .L46+4
 809 004a FFF7FEFF 		bl	GUI_SetBkColor
 810              	.LVL77:
 490:.\main.c      ****     GUI_SetFont(NORMAL_TXT);
 811              		.loc 1 490 0
 812 004e FFF7FEFF 		bl	GUI_Clear
 813              	.LVL78:
 491:.\main.c      **** 
 814              		.loc 1 491 0
 815 0052 524E     		ldr	r6, .L46+8
 816 0054 3046     		mov	r0, r6
 817 0056 FFF7FEFF 		bl	GUI_SetFont
 818              	.LVL79:
 493:.\main.c      ****     GUI_SetColor(GUI_WHITE);
 819              		.loc 1 493 0
 820 005a 514D     		ldr	r5, .L46+12
 821 005c 11AB     		add	r3, sp, #68
 822 005e 2A46     		mov	r2, r5
 823 0060 52F80C0F 		ldr	r0, [r2, #12]!	@ unaligned
 824 0064 5168     		ldr	r1, [r2, #4]	@ unaligned
 825 0066 03C3     		stmia	r3!, {r0, r1}
 494:.\main.c      **** 
 826              		.loc 1 494 0
 827 0068 6FF07F40 		mvn	r0, #-16777216
 828 006c FFF7FEFF 		bl	GUI_SetColor
 829              	.LVL80:
 497:.\main.c      ****     GUI_SetFont(NORMAL_TXT);
 830              		.loc 1 497 0
 831 0070 4C48     		ldr	r0, .L46+16
 832 0072 11A9     		add	r1, sp, #68
 833 0074 0E22     		movs	r2, #14
 834 0076 0123     		movs	r3, #1
 835 0078 FFF7FEFF 		bl	GUI_DispStringInRectWrap
 836              	.LVL81:
 498:.\main.c      ****     
 837              		.loc 1 498 0
 838 007c 3046     		mov	r0, r6
 839 007e FFF7FEFF 		bl	GUI_SetFont
 840              	.LVL82:
 500:.\main.c      ****     GUI_DispStringInRectWrap(task.name, &rectangle, GUI_TA_HCENTER | GUI_TA_VCENTER, GUI_WRAPMODE_W
 841              		.loc 1 500 0
 842 0082 0FAA     		add	r2, sp, #60
 843 0084 2B46     		mov	r3, r5
 844 0086 53F8140F 		ldr	r0, [r3, #20]!	@ unaligned
 845 008a 5968     		ldr	r1, [r3, #4]	@ unaligned
 846 008c 03C2     		stmia	r2!, {r0, r1}
 501:.\main.c      ****     
ARM GAS  C:\Users\jaohe\AppData\Local\Temp\ccbQAV2C.s 			page 27


 847              		.loc 1 501 0
 848 008e 0398     		ldr	r0, [sp, #12]
 849 0090 0FA9     		add	r1, sp, #60
 850 0092 0E22     		movs	r2, #14
 851 0094 0123     		movs	r3, #1
 852 0096 FFF7FEFF 		bl	GUI_DispStringInRectWrap
 853              	.LVL83:
 508:.\main.c      **** 
 854              		.loc 1 508 0
 855 009a 0223     		movs	r3, #2
 856 009c 2371     		strb	r3, [r4, #4]
 510:.\main.c      **** 
 857              		.loc 1 510 0
 858 009e 424B     		ldr	r3, .L46+20
 859 00a0 0093     		str	r3, [sp]
 860 00a2 0A20     		movs	r0, #10
 861 00a4 4FF48571 		mov	r1, #266
 862 00a8 E622     		movs	r2, #230
 863 00aa 4FF49B73 		mov	r3, #310
 864 00ae FFF7FEFF 		bl	DrawButton
 865              	.LVL84:
 513:.\main.c      ****         // if the task is not a timed task and we have gotten over the estimated time , make time r
 866              		.loc 1 513 0
 867 00b2 66E0     		b	.L41
 868              	.L44:
 869              	.LBB2:
 515:.\main.c      ****             int hours = current_task.overtime / 3600;
 870              		.loc 1 515 0
 871 00b4 374B     		ldr	r3, .L46
 872 00b6 5B7A     		ldrb	r3, [r3, #9]	@ zero_extendqisi2
 873 00b8 4BBB     		cbnz	r3, .L42
 515:.\main.c      ****             int hours = current_task.overtime / 3600;
 874              		.loc 1 515 0 is_stmt 0 discriminator 1
 875 00ba 364B     		ldr	r3, .L46
 876 00bc 5869     		ldr	r0, [r3, #20]
 877 00be 0028     		cmp	r0, #0
 878 00c0 25DD     		ble	.L42
 879              	.LBB3:
 516:.\main.c      ****             int minutes = (current_task.overtime % 3600) / 60;
 880              		.loc 1 516 0 is_stmt 1
 881 00c2 3A4E     		ldr	r6, .L46+24
 882 00c4 86FB0036 		smull	r3, r6, r6, r0
 883 00c8 C117     		asrs	r1, r0, #31
 884 00ca 0644     		add	r6, r6, r0
 885              	.LVL85:
 517:.\main.c      ****             int seconds = current_task.overtime % 60;
 886              		.loc 1 517 0
 887 00cc C1EBE626 		rsb	r6, r1, r6, asr #11
 888 00d0 4FF46162 		mov	r2, #3600
 889 00d4 02FB1602 		mls	r2, r2, r6, r0
 890 00d8 354C     		ldr	r4, .L46+28
 891 00da 84FB0235 		smull	r3, r5, r4, r2
 892 00de 1544     		add	r5, r5, r2
 893 00e0 D217     		asrs	r2, r2, #31
 894 00e2 C2EB6515 		rsb	r5, r2, r5, asr #5
 895              	.LVL86:
 518:.\main.c      ****             GUI_SetColor(GUI_MAKE_COLOR(COLOR_ERROR));
ARM GAS  C:\Users\jaohe\AppData\Local\Temp\ccbQAV2C.s 			page 28


 896              		.loc 1 518 0
 897 00e6 84FB0034 		smull	r3, r4, r4, r0
 898 00ea 0444     		add	r4, r4, r0
 899 00ec C1EB6414 		rsb	r4, r1, r4, asr #5
 900 00f0 C4EB0414 		rsb	r4, r4, r4, lsl #4
 901 00f4 A400     		lsls	r4, r4, #2
 902 00f6 041B     		subs	r4, r0, r4
 903              	.LVL87:
 519:.\main.c      ****             sprintf(line, "%02d:%02d:%02d", hours, minutes, seconds);
 904              		.loc 1 519 0
 905 00f8 2E48     		ldr	r0, .L46+32
 906              	.LVL88:
 907 00fa FFF7FEFF 		bl	GUI_SetColor
 908              	.LVL89:
 520:.\main.c      ****         }else{
 909              		.loc 1 520 0
 910 00fe 0094     		str	r4, [sp]
 911 0100 08A8     		add	r0, sp, #32
 912 0102 2D49     		ldr	r1, .L46+36
 913 0104 3246     		mov	r2, r6
 914 0106 2B46     		mov	r3, r5
 915 0108 FFF7FEFF 		bl	sprintf
 916              	.LVL90:
 917              	.LBE3:
 515:.\main.c      ****             int hours = current_task.overtime / 3600;
 918              		.loc 1 515 0
 919 010c 27E0     		b	.L43
 920              	.LVL91:
 921              	.L42:
 922              	.LBB4:
 522:.\main.c      ****             int minutes = (current_task.time_left % 3600) / 60;
 923              		.loc 1 522 0
 924 010e 214B     		ldr	r3, .L46
 925 0110 1869     		ldr	r0, [r3, #16]
 926 0112 264E     		ldr	r6, .L46+24
 927 0114 86FB0036 		smull	r3, r6, r6, r0
 928 0118 C117     		asrs	r1, r0, #31
 929 011a 0644     		add	r6, r6, r0
 930              	.LVL92:
 523:.\main.c      ****             int seconds = current_task.time_left % 60;
 931              		.loc 1 523 0
 932 011c C1EBE626 		rsb	r6, r1, r6, asr #11
 933 0120 4FF46162 		mov	r2, #3600
 934 0124 02FB1602 		mls	r2, r2, r6, r0
 935 0128 214C     		ldr	r4, .L46+28
 936 012a 84FB0235 		smull	r3, r5, r4, r2
 937 012e 1544     		add	r5, r5, r2
 938 0130 D217     		asrs	r2, r2, #31
 939 0132 C2EB6515 		rsb	r5, r2, r5, asr #5
 940              	.LVL93:
 524:.\main.c      ****             GUI_SetColor(GUI_WHITE);
 941              		.loc 1 524 0
 942 0136 84FB0034 		smull	r3, r4, r4, r0
 943 013a 0444     		add	r4, r4, r0
 944 013c C1EB6414 		rsb	r4, r1, r4, asr #5
 945 0140 C4EB0414 		rsb	r4, r4, r4, lsl #4
 946 0144 A400     		lsls	r4, r4, #2
ARM GAS  C:\Users\jaohe\AppData\Local\Temp\ccbQAV2C.s 			page 29


 947 0146 041B     		subs	r4, r0, r4
 948              	.LVL94:
 525:.\main.c      ****             sprintf(line, "%02d:%02d:%02d", hours, minutes, seconds);
 949              		.loc 1 525 0
 950 0148 6FF07F40 		mvn	r0, #-16777216
 951              	.LVL95:
 952 014c FFF7FEFF 		bl	GUI_SetColor
 953              	.LVL96:
 526:.\main.c      ****         }
 954              		.loc 1 526 0
 955 0150 0094     		str	r4, [sp]
 956 0152 08A8     		add	r0, sp, #32
 957 0154 1849     		ldr	r1, .L46+36
 958 0156 3246     		mov	r2, r6
 959 0158 2B46     		mov	r3, r5
 960 015a FFF7FEFF 		bl	sprintf
 961              	.LVL97:
 962              	.L43:
 963              	.LBE4:
 530:.\main.c      ****         GUI_SetFont(TITLE_TXT);
 964              		.loc 1 530 0
 965 015e 06AB     		add	r3, sp, #24
 966 0160 0F4A     		ldr	r2, .L46+12
 967 0162 52F81C0F 		ldr	r0, [r2, #28]!	@ unaligned
 968 0166 5168     		ldr	r1, [r2, #4]	@ unaligned
 969 0168 03C3     		stmia	r3!, {r0, r1}
 531:.\main.c      ****         
 970              		.loc 1 531 0
 971 016a 1448     		ldr	r0, .L46+40
 972 016c FFF7FEFF 		bl	GUI_SetFont
 973              	.LVL98:
 534:.\main.c      ****         GUI_DispStringInRectWrap(line, &time_rect, GUI_TA_HCENTER | GUI_TA_VCENTER, GUI_WRAPMODE_WO
 974              		.loc 1 534 0
 975 0170 06A8     		add	r0, sp, #24
 976 0172 FFF7FEFF 		bl	GUI_ClearRectEx
 977              	.LVL99:
 535:.\main.c      **** 
 978              		.loc 1 535 0
 979 0176 08A8     		add	r0, sp, #32
 980 0178 06A9     		add	r1, sp, #24
 981 017a 0E22     		movs	r2, #14
 982 017c 0123     		movs	r3, #1
 983 017e FFF7FEFF 		bl	GUI_DispStringInRectWrap
 984              	.LVL100:
 985              	.L41:
 986              	.LBE2:
 513:.\main.c      ****         // if the task is not a timed task and we have gotten over the estimated time , make time r
 987              		.loc 1 513 0
 988 0182 044B     		ldr	r3, .L46
 989 0184 1B79     		ldrb	r3, [r3, #4]	@ zero_extendqisi2
 990 0186 022B     		cmp	r3, #2
 991 0188 94D0     		beq	.L44
 542:.\main.c      ****         
 992              		.loc 1 542 0
 993 018a FFF7FEFF 		bl	task_complete
 994              	.LVL101:
 545:.\main.c      **** 
ARM GAS  C:\Users\jaohe\AppData\Local\Temp\ccbQAV2C.s 			page 30


 995              		.loc 1 545 0
 996 018e 16B0     		add	sp, sp, #88
 997              		.cfi_def_cfa_offset 16
 998              		@ sp needed
 999 0190 70BD     		pop	{r4, r5, r6, pc}
 1000              	.L47:
 1001 0192 00BF     		.align	2
 1002              	.L46:
 1003 0194 00000000 		.word	current_task
 1004 0198 442B2600 		.word	2501444
 1005 019c 00000000 		.word	GUI_Font8x16_ASCII
 1006 01a0 00000000 		.word	.LANCHOR1
 1007 01a4 90010000 		.word	.LC17
 1008 01a8 A4010000 		.word	.LC18
 1009 01ac C5B3A291 		.word	-1851608123
 1010 01b0 89888888 		.word	-2004318071
 1011 01b4 6262EA00 		.word	15360610
 1012 01b8 B0010000 		.word	.LC19
 1013 01bc 00000000 		.word	GUI_Font8x16x2x2
 1014              		.cfi_endproc
 1015              	.LFE74:
 1016              		.size	system_start_task, .-system_start_task
 1017              		.section	.text.home,"ax",%progbits
 1018              		.align	2
 1019              		.global	home
 1020              		.thumb
 1021              		.thumb_func
 1022              		.type	home, %function
 1023              	home:
 1024              	.LFB76:
 613:.\main.c      **** 
 614:.\main.c      **** 
 615:.\main.c      **** int home(){
 1025              		.loc 1 615 0
 1026              		.cfi_startproc
 1027              		@ args = 0, pretend = 0, frame = 40
 1028              		@ frame_needed = 0, uses_anonymous_args = 0
 1029 0000 70B5     		push	{r4, r5, r6, lr}
 1030              		.cfi_def_cfa_offset 16
 1031              		.cfi_offset 4, -16
 1032              		.cfi_offset 5, -12
 1033              		.cfi_offset 6, -8
 1034              		.cfi_offset 14, -4
 1035 0002 8CB0     		sub	sp, sp, #48
 1036              		.cfi_def_cfa_offset 64
 616:.\main.c      ****     //WM_SetDesktopColor(GUI_MAKE_COLOR(COLOR_BG_LIGHT));
 617:.\main.c      ****     //UART_ENABLE_Write(1);
 618:.\main.c      ****    
 619:.\main.c      ****     GUI_RECT Rect = {CENTERX/2,  CENTERY*1/2,CENTERX *3/2 ,  CENTERY*3/2};
 1037              		.loc 1 619 0
 1038 0004 254C     		ldr	r4, .L54
 1039 0006 0AAB     		add	r3, sp, #40
 1040 0008 2246     		mov	r2, r4
 1041 000a 52F8240F 		ldr	r0, [r2, #36]!	@ unaligned
 1042 000e 5168     		ldr	r1, [r2, #4]	@ unaligned
 1043 0010 03C3     		stmia	r3!, {r0, r1}
 620:.\main.c      ****     GUI_SetColor(GUI_MAKE_COLOR(COLOR_NEUTRAL_GRAYBLUE));
ARM GAS  C:\Users\jaohe\AppData\Local\Temp\ccbQAV2C.s 			page 31


 1044              		.loc 1 620 0
 1045 0012 2348     		ldr	r0, .L54+4
 1046 0014 FFF7FEFF 		bl	GUI_SetColor
 1047              	.LVL102:
 621:.\main.c      ****     GUI_FillRect(CENTERX/2,  CENTERY*1/2,CENTERX *3/2 ,  CENTERY*3/2);
 1048              		.loc 1 621 0
 1049 0018 3C20     		movs	r0, #60
 1050 001a 5021     		movs	r1, #80
 1051 001c B422     		movs	r2, #180
 1052 001e F023     		movs	r3, #240
 1053 0020 FFF7FEFF 		bl	GUI_FillRect
 1054              	.LVL103:
 622:.\main.c      ****     GUI_SetColor(GUI_WHITE);
 1055              		.loc 1 622 0
 1056 0024 6FF07F40 		mvn	r0, #-16777216
 1057 0028 FFF7FEFF 		bl	GUI_SetColor
 1058              	.LVL104:
 623:.\main.c      ****     char acText[] = "Welcome to \nTask Buddy\0";
 1059              		.loc 1 623 0
 1060 002c 04AD     		add	r5, sp, #16
 1061 002e 2C34     		adds	r4, r4, #44
 1062 0030 0FCC     		ldmia	r4!, {r0, r1, r2, r3}
 1063 0032 0FC5     		stmia	r5!, {r0, r1, r2, r3}
 1064 0034 94E80300 		ldmia	r4, {r0, r1}
 1065 0038 85E80300 		stmia	r5, {r0, r1}
 624:.\main.c      ****     GUI_DispStringInRectEx(acText, &Rect, GUI_TA_HCENTER | GUI_TA_VCENTER, strlen(acText) - 1, GUI_
 1066              		.loc 1 624 0
 1067 003c 04A8     		add	r0, sp, #16
 1068 003e FFF7FEFF 		bl	strlen
 1069              	.LVL105:
 1070 0042 431E     		subs	r3, r0, #1
 1071 0044 0022     		movs	r2, #0
 1072 0046 0092     		str	r2, [sp]
 1073 0048 04A8     		add	r0, sp, #16
 1074 004a 0AA9     		add	r1, sp, #40
 1075 004c 0E22     		movs	r2, #14
 1076 004e FFF7FEFF 		bl	GUI_DispStringInRectEx
 1077              	.LVL106:
 625:.\main.c      ****     uint8_t x = 5;
 626:.\main.c      ****     uint8_t y = 30;
 627:.\main.c      ****     
 628:.\main.c      ****     int8_t a = -1; 
 1078              		.loc 1 628 0
 1079 0052 FF24     		movs	r4, #255
 626:.\main.c      ****     
 1080              		.loc 1 626 0
 1081 0054 1E25     		movs	r5, #30
 1082              	.LVL107:
 1083              	.L51:
 629:.\main.c      ****     uint8_t count = 5; 
 630:.\main.c      **** //    sendCommand("AT+ADDR?\r\n");
 631:.\main.c      **** //    printResponse();
 632:.\main.c      ****     for(;;){
 633:.\main.c      ****         if(UART_2_GetRxBufferSize() > 0){
 1084              		.loc 1 633 0
 1085 0056 FFF7FEFF 		bl	UART_2_GetRxBufferSize
 1086              	.LVL108:
ARM GAS  C:\Users\jaohe\AppData\Local\Temp\ccbQAV2C.s 			page 32


 1087 005a 68B1     		cbz	r0, .L49
 1088              	.LBB5:
 634:.\main.c      ****             uint8 c = UART_2_GetChar();
 1089              		.loc 1 634 0
 1090 005c FFF7FEFF 		bl	UART_2_GetChar
 1091              	.LVL109:
 1092 0060 0CAE     		add	r6, sp, #48
 1093 0062 06F8210D 		strb	r0, [r6, #-33]!
 635:.\main.c      ****             UART_2_PutChar(c);
 1094              		.loc 1 635 0
 1095 0066 FFF7FEFF 		bl	UART_2_PutChar
 1096              	.LVL110:
 636:.\main.c      ****             LCD_Char_1_Position(0, 0);
 1097              		.loc 1 636 0
 1098 006a 0020     		movs	r0, #0
 1099 006c 0146     		mov	r1, r0
 1100 006e FFF7FEFF 		bl	LCD_Char_1_Position
 1101              	.LVL111:
 637:.\main.c      ****             LCD_Char_1_PrintString((char *) &c);
 1102              		.loc 1 637 0
 1103 0072 3046     		mov	r0, r6
 1104 0074 FFF7FEFF 		bl	LCD_Char_1_PrintString
 1105              	.LVL112:
 1106              	.L49:
 1107              	.LBE5:
 638:.\main.c      ****             //  sendCommand("AT+ADDR?\r\n");
 639:.\main.c      ****             // printResponse();
 640:.\main.c      ****         }
 641:.\main.c      ****         //UART_1_WriteTxData((uint8) 'c');
 642:.\main.c      **** //        sendCommand("AT+ROLE=0\r\n");
 643:.\main.c      **** //        printResponse();
 644:.\main.c      **** 
 645:.\main.c      ****         // sendCommand("AT+ROLE?\r\n");
 646:.\main.c      ****         // printResponse();
 647:.\main.c      **** //        sendCommand("AT+ROLE=0\r\n");
 648:.\main.c      **** //        printResponse();
 649:.\main.c      ****          
 650:.\main.c      ****     
 651:.\main.c      ****         y += a;
 1108              		.loc 1 651 0
 1109 0078 E4B2     		uxtb	r4, r4
 1110 007a 2544     		add	r5, r5, r4
 1111              	.LVL113:
 1112 007c EDB2     		uxtb	r5, r5
 1113              	.LVL114:
 652:.\main.c      ****         
 653:.\main.c      ****         GUI_DrawBitmap( &bmcute_mascot_closed, x, y);
 1114              		.loc 1 653 0
 1115 007e 0948     		ldr	r0, .L54+8
 1116 0080 0521     		movs	r1, #5
 1117 0082 2A46     		mov	r2, r5
 1118 0084 FFF7FEFF 		bl	GUI_DrawBitmap
 1119              	.LVL115:
 654:.\main.c      ****         if (FORWARD_BTN_Read() == 0){
 1120              		.loc 1 654 0
 1121 0088 FFF7FEFF 		bl	FORWARD_BTN_Read
 1122              	.LVL116:
ARM GAS  C:\Users\jaohe\AppData\Local\Temp\ccbQAV2C.s 			page 33


 1123 008c 10B1     		cbz	r0, .L52
 655:.\main.c      ****             return MENU;
 656:.\main.c      ****         }
 657:.\main.c      ****         
 658:.\main.c      ****         if (count % JUMP_BOUND == 0){
 659:.\main.c      ****             
 660:.\main.c      ****             a *= -1;
 1124              		.loc 1 660 0
 1125 008e 6442     		negs	r4, r4
 1126              	.LVL117:
 1127 0090 E4B2     		uxtb	r4, r4
 1128              	.LVL118:
 1129 0092 E0E7     		b	.L51
 1130              	.L52:
 661:.\main.c      ****         }
 662:.\main.c      ****     }
 663:.\main.c      ****     return ERROR;
 664:.\main.c      **** }
 1131              		.loc 1 664 0
 1132 0094 0020     		movs	r0, #0
 1133 0096 0CB0     		add	sp, sp, #48
 1134              		.cfi_def_cfa_offset 16
 1135              		@ sp needed
 1136 0098 70BD     		pop	{r4, r5, r6, pc}
 1137              	.LVL119:
 1138              	.L55:
 1139 009a 00BF     		.align	2
 1140              	.L54:
 1141 009c 00000000 		.word	.LANCHOR1
 1142 00a0 A68E8600 		.word	8818342
 1143 00a4 00000000 		.word	bmcute_mascot_closed
 1144              		.cfi_endproc
 1145              	.LFE76:
 1146              		.size	home, .-home
 1147              		.section	.text.notification,"ax",%progbits
 1148              		.align	2
 1149              		.global	notification
 1150              		.thumb
 1151              		.thumb_func
 1152              		.type	notification, %function
 1153              	notification:
 1154              	.LFB78:
 665:.\main.c      **** 
 666:.\main.c      **** int error(char* message)
 667:.\main.c      **** {
 668:.\main.c      ****     print(message);
 669:.\main.c      ****     CyDelay(1000);
 670:.\main.c      ****     return ERROR;
 671:.\main.c      **** }
 672:.\main.c      **** void notification(char* message)
 673:.\main.c      **** {
 1155              		.loc 1 673 0
 1156              		.cfi_startproc
 1157              		@ args = 0, pretend = 0, frame = 8
 1158              		@ frame_needed = 0, uses_anonymous_args = 0
 1159              	.LVL120:
 1160 0000 10B5     		push	{r4, lr}
ARM GAS  C:\Users\jaohe\AppData\Local\Temp\ccbQAV2C.s 			page 34


 1161              		.cfi_def_cfa_offset 8
 1162              		.cfi_offset 4, -8
 1163              		.cfi_offset 14, -4
 1164 0002 82B0     		sub	sp, sp, #8
 1165              		.cfi_def_cfa_offset 16
 1166 0004 0446     		mov	r4, r0
 674:.\main.c      ****     GUI_SetBkColor(GUI_MAKE_COLOR(COLOR_BG_DARK));
 1167              		.loc 1 674 0
 1168 0006 0D48     		ldr	r0, .L58
 1169              	.LVL121:
 1170 0008 FFF7FEFF 		bl	GUI_SetBkColor
 1171              	.LVL122:
 675:.\main.c      ****     GUI_Clear();
 1172              		.loc 1 675 0
 1173 000c FFF7FEFF 		bl	GUI_Clear
 1174              	.LVL123:
 676:.\main.c      ****     GUI_RECT Rect = {CENTERX/2,  CENTERY*1/2,CENTERX *3/2 ,  CENTERY*3/2};
 1175              		.loc 1 676 0
 1176 0010 6B46     		mov	r3, sp
 1177 0012 0B4A     		ldr	r2, .L58+4
 1178 0014 52F8240F 		ldr	r0, [r2, #36]!	@ unaligned
 1179 0018 5168     		ldr	r1, [r2, #4]	@ unaligned
 1180 001a 03C3     		stmia	r3!, {r0, r1}
 677:.\main.c      ****     GUI_SetColor(GUI_WHITE);
 1181              		.loc 1 677 0
 1182 001c 6FF07F40 		mvn	r0, #-16777216
 1183 0020 FFF7FEFF 		bl	GUI_SetColor
 1184              	.LVL124:
 678:.\main.c      ****     
 679:.\main.c      **** 
 680:.\main.c      ****     GUI_DispStringInRectWrap(message, &Rect, GUI_TA_HCENTER | GUI_TA_VCENTER, GUI_WRAPMODE_WORD);
 1185              		.loc 1 680 0
 1186 0024 2046     		mov	r0, r4
 1187 0026 6946     		mov	r1, sp
 1188 0028 0E22     		movs	r2, #14
 1189 002a 0123     		movs	r3, #1
 1190 002c FFF7FEFF 		bl	GUI_DispStringInRectWrap
 1191              	.LVL125:
 681:.\main.c      ****     CyDelay(5000);
 1192              		.loc 1 681 0
 1193 0030 41F28830 		movw	r0, #5000
 1194 0034 FFF7FEFF 		bl	CyDelay
 1195              	.LVL126:
 682:.\main.c      **** }
 1196              		.loc 1 682 0
 1197 0038 02B0     		add	sp, sp, #8
 1198              		.cfi_def_cfa_offset 8
 1199              		@ sp needed
 1200 003a 10BD     		pop	{r4, pc}
 1201              	.LVL127:
 1202              	.L59:
 1203              		.align	2
 1204              	.L58:
 1205 003c 442B2600 		.word	2501444
 1206 0040 00000000 		.word	.LANCHOR1
 1207              		.cfi_endproc
 1208              	.LFE78:
ARM GAS  C:\Users\jaohe\AppData\Local\Temp\ccbQAV2C.s 			page 35


 1209              		.size	notification, .-notification
 1210              		.section	.text.print,"ax",%progbits
 1211              		.align	2
 1212              		.global	print
 1213              		.thumb
 1214              		.thumb_func
 1215              		.type	print, %function
 1216              	print:
 1217              	.LFB79:
 683:.\main.c      **** 
 684:.\main.c      **** void print(char* message)
 685:.\main.c      **** {
 1218              		.loc 1 685 0
 1219              		.cfi_startproc
 1220              		@ args = 0, pretend = 0, frame = 0
 1221              		@ frame_needed = 0, uses_anonymous_args = 0
 1222              	.LVL128:
 1223 0000 10B5     		push	{r4, lr}
 1224              		.cfi_def_cfa_offset 8
 1225              		.cfi_offset 4, -8
 1226              		.cfi_offset 14, -4
 1227 0002 0446     		mov	r4, r0
 686:.\main.c      ****     
 687:.\main.c      ****     LCD_Char_1_ClearDisplay();
 1228              		.loc 1 687 0
 1229 0004 0120     		movs	r0, #1
 1230              	.LVL129:
 1231 0006 FFF7FEFF 		bl	LCD_Char_1_WriteControl
 1232              	.LVL130:
 688:.\main.c      ****     	
 689:.\main.c      ****     LCD_Char_1_Position(0, 0);
 1233              		.loc 1 689 0
 1234 000a 0020     		movs	r0, #0
 1235 000c 0146     		mov	r1, r0
 1236 000e FFF7FEFF 		bl	LCD_Char_1_Position
 1237              	.LVL131:
 690:.\main.c      ****     LCD_Char_1_PrintString(message);
 1238              		.loc 1 690 0
 1239 0012 2046     		mov	r0, r4
 1240 0014 FFF7FEFF 		bl	LCD_Char_1_PrintString
 1241              	.LVL132:
 691:.\main.c      ****     CyDelay(1000);
 1242              		.loc 1 691 0
 1243 0018 4FF47A70 		mov	r0, #1000
 1244 001c FFF7FEFF 		bl	CyDelay
 1245              	.LVL133:
 1246 0020 10BD     		pop	{r4, pc}
 1247              		.cfi_endproc
 1248              	.LFE79:
 1249              		.size	print, .-print
 1250 0022 00BF     		.section	.text.Timer_1_Handler,"ax",%progbits
 1251              		.align	2
 1252              		.global	Timer_1_Handler
 1253              		.thumb
 1254              		.thumb_func
 1255              		.type	Timer_1_Handler, %function
 1256              	Timer_1_Handler:
ARM GAS  C:\Users\jaohe\AppData\Local\Temp\ccbQAV2C.s 			page 36


 1257              	.LFB65:
 143:.\main.c      ****     // Clear PSoC GPIO interrupt first
 1258              		.loc 1 143 0
 1259              		.cfi_startproc
 1260              		@ args = 0, pretend = 0, frame = 32
 1261              		@ frame_needed = 0, uses_anonymous_args = 0
 1262 0000 30B5     		push	{r4, r5, lr}
 1263              		.cfi_def_cfa_offset 12
 1264              		.cfi_offset 4, -12
 1265              		.cfi_offset 5, -8
 1266              		.cfi_offset 14, -4
 1267 0002 8DB0     		sub	sp, sp, #52
 1268              		.cfi_def_cfa_offset 64
 146:.\main.c      ****     
 1269              		.loc 1 146 0
 1270 0004 0120     		movs	r0, #1
 1271 0006 0021     		movs	r1, #0
 1272 0008 FFF7FEFF 		bl	LCD_Char_1_Position
 1273              	.LVL134:
 148:.\main.c      ****     char line[24];
 1274              		.loc 1 148 0
 1275 000c 0AAC     		add	r4, sp, #40
 1276 000e 2046     		mov	r0, r4
 1277 0010 FFF7FEFF 		bl	RTC_now
 1278              	.LVL135:
 151:.\main.c      ****     LCD_Char_1_Position(1, 0);
 1279              		.loc 1 151 0
 1280 0014 9DF82920 		ldrb	r2, [sp, #41]	@ zero_extendqisi2
 1281 0018 9DF82A30 		ldrb	r3, [sp, #42]	@ zero_extendqisi2
 1282 001c 9DF82B50 		ldrb	r5, [sp, #43]	@ zero_extendqisi2
 1283 0020 9DF82C00 		ldrb	r0, [sp, #44]	@ zero_extendqisi2
 1284 0024 9DF82D10 		ldrb	r1, [sp, #45]	@ zero_extendqisi2
 150:.\main.c      ****              now.m, now.d, now.hh, now.mm, now.ss);
 1285              		.loc 1 150 0
 1286 0028 0095     		str	r5, [sp]
 1287 002a 0190     		str	r0, [sp, #4]
 1288 002c 0291     		str	r1, [sp, #8]
 1289 002e 04A8     		add	r0, sp, #16
 1290 0030 4449     		ldr	r1, .L70
 1291 0032 FFF7FEFF 		bl	sprintf
 1292              	.LVL136:
 152:.\main.c      ****     LCD_Char_1_PrintString("                    ");			// clean up the previous display
 1293              		.loc 1 152 0
 1294 0036 0120     		movs	r0, #1
 1295 0038 0021     		movs	r1, #0
 1296 003a FFF7FEFF 		bl	LCD_Char_1_Position
 1297              	.LVL137:
 153:.\main.c      ****     
 1298              		.loc 1 153 0
 1299 003e 4248     		ldr	r0, .L70+4
 1300 0040 FFF7FEFF 		bl	LCD_Char_1_PrintString
 1301              	.LVL138:
 155:.\main.c      ****     LCD_Char_1_PrintString(line);
 1302              		.loc 1 155 0
 1303 0044 0120     		movs	r0, #1
 1304 0046 0021     		movs	r1, #0
 1305 0048 FFF7FEFF 		bl	LCD_Char_1_Position
ARM GAS  C:\Users\jaohe\AppData\Local\Temp\ccbQAV2C.s 			page 37


 1306              	.LVL139:
 156:.\main.c      ****     
 1307              		.loc 1 156 0
 1308 004c 04A8     		add	r0, sp, #16
 1309 004e FFF7FEFF 		bl	LCD_Char_1_PrintString
 1310              	.LVL140:
 158:.\main.c      ****         LED_1_Write(~LED_1_Read());
 1311              		.loc 1 158 0
 1312 0052 94E80300 		ldmia	r4, {r0, r1}
 1313 0056 FFF7FEFF 		bl	alarmCheck
 1314              	.LVL141:
 1315 005a E0B1     		cbz	r0, .L63
 158:.\main.c      ****         LED_1_Write(~LED_1_Read());
 1316              		.loc 1 158 0 is_stmt 0 discriminator 1
 1317 005c 3B4B     		ldr	r3, .L70+8
 1318 005e 9B78     		ldrb	r3, [r3, #2]	@ zero_extendqisi2
 1319 0060 032B     		cmp	r3, #3
 1320 0062 18D0     		beq	.L63
 159:.\main.c      ****         current_alarm.state = ON;
 1321              		.loc 1 159 0 is_stmt 1
 1322 0064 FFF7FEFF 		bl	LED_1_Read
 1323              	.LVL142:
 1324 0068 C043     		mvns	r0, r0
 1325 006a C0B2     		uxtb	r0, r0
 1326 006c FFF7FEFF 		bl	LED_1_Write
 1327              	.LVL143:
 160:.\main.c      ****         
 1328              		.loc 1 160 0
 1329 0070 0122     		movs	r2, #1
 1330 0072 364B     		ldr	r3, .L70+8
 1331 0074 9A70     		strb	r2, [r3, #2]
 162:.\main.c      ****         print("Alarm !!!");
 1332              		.loc 1 162 0
 1333 0076 FFF7FEFF 		bl	alarmHandler
 1334              	.LVL144:
 163:.\main.c      ****         if (current_task.time_left <= 0 && current_task.task.time_est.isOn){
 1335              		.loc 1 163 0
 1336 007a 3548     		ldr	r0, .L70+12
 1337 007c FFF7FEFF 		bl	print
 1338              	.LVL145:
 164:.\main.c      ****             current_task.overtime++;
 1339              		.loc 1 164 0
 1340 0080 344B     		ldr	r3, .L70+16
 1341 0082 1B69     		ldr	r3, [r3, #16]
 1342 0084 002B     		cmp	r3, #0
 1343 0086 06DC     		bgt	.L63
 164:.\main.c      ****             current_task.overtime++;
 1344              		.loc 1 164 0 is_stmt 0 discriminator 1
 1345 0088 324B     		ldr	r3, .L70+16
 1346 008a 5B7A     		ldrb	r3, [r3, #9]	@ zero_extendqisi2
 1347 008c 1BB1     		cbz	r3, .L63
 165:.\main.c      ****         }
 1348              		.loc 1 165 0 is_stmt 1
 1349 008e 314A     		ldr	r2, .L70+16
 1350 0090 5369     		ldr	r3, [r2, #20]
 1351 0092 0133     		adds	r3, r3, #1
 1352 0094 5361     		str	r3, [r2, #20]
ARM GAS  C:\Users\jaohe\AppData\Local\Temp\ccbQAV2C.s 			page 38


 1353              	.L63:
 171:.\main.c      ****         if (current_alarm.state == ON){
 1354              		.loc 1 171 0
 1355 0096 2F4B     		ldr	r3, .L70+16
 1356 0098 1B79     		ldrb	r3, [r3, #4]	@ zero_extendqisi2
 1357 009a 022B     		cmp	r3, #2
 1358 009c 20D1     		bne	.L64
 171:.\main.c      ****         if (current_alarm.state == ON){
 1359              		.loc 1 171 0 is_stmt 0 discriminator 1
 1360 009e 2D4B     		ldr	r3, .L70+16
 1361 00a0 1B69     		ldr	r3, [r3, #16]
 1362 00a2 002B     		cmp	r3, #0
 1363 00a4 1CDD     		ble	.L64
 171:.\main.c      ****         if (current_alarm.state == ON){
 1364              		.loc 1 171 0 discriminator 2
 1365 00a6 2C4B     		ldr	r3, .L70+20
 1366 00a8 1B78     		ldrb	r3, [r3]	@ zero_extendqisi2
 1367 00aa 13F0FF0F 		tst	r3, #255
 1368 00ae 17D0     		beq	.L64
 172:.\main.c      ****             current_alarm.state = BEFORE_TIME;
 1369              		.loc 1 172 0 is_stmt 1
 1370 00b0 264B     		ldr	r3, .L70+8
 1371 00b2 9B78     		ldrb	r3, [r3, #2]	@ zero_extendqisi2
 1372 00b4 012B     		cmp	r3, #1
 1373 00b6 0ED1     		bne	.L65
 173:.\main.c      ****             current_alarm.dt = snooze_alarm(current_alarm.dt, 5); // snooze for 5 minutes
 1374              		.loc 1 173 0
 1375 00b8 244C     		ldr	r4, .L70+8
 1376 00ba 0023     		movs	r3, #0
 1377 00bc A370     		strb	r3, [r4, #2]
 174:.\main.c      ****         }
 1378              		.loc 1 174 0
 1379 00be 2378     		ldrb	r3, [r4]	@ zero_extendqisi2
 1380 00c0 6078     		ldrb	r0, [r4, #1]	@ zero_extendqisi2
 1381 00c2 43EA0020 		orr	r0, r3, r0, lsl #8
 1382 00c6 0521     		movs	r1, #5
 1383 00c8 FFF7FEFF 		bl	snooze_alarm
 1384              	.LVL146:
 1385 00cc 00B2     		sxth	r0, r0
 1386 00ce 2070     		strb	r0, [r4]
 1387 00d0 C0F30720 		ubfx	r0, r0, #8, #8
 1388 00d4 6070     		strb	r0, [r4, #1]
 1389              	.L65:
 176:.\main.c      ****         endAlarm();
 1390              		.loc 1 176 0
 1391 00d6 0022     		movs	r2, #0
 1392 00d8 1F4B     		ldr	r3, .L70+20
 1393 00da 1A70     		strb	r2, [r3]
 177:.\main.c      **** 
 1394              		.loc 1 177 0
 1395 00dc FFF7FEFF 		bl	endAlarm
 1396              	.LVL147:
 1397              	.L64:
 180:.\main.c      ****         current_task.time_left -= 1;
 1398              		.loc 1 180 0
 1399 00e0 1C4B     		ldr	r3, .L70+16
 1400 00e2 1B79     		ldrb	r3, [r3, #4]	@ zero_extendqisi2
ARM GAS  C:\Users\jaohe\AppData\Local\Temp\ccbQAV2C.s 			page 39


 1401 00e4 022B     		cmp	r3, #2
 1402 00e6 1DD1     		bne	.L66
 180:.\main.c      ****         current_task.time_left -= 1;
 1403              		.loc 1 180 0 is_stmt 0 discriminator 1
 1404 00e8 1B4A     		ldr	r2, .L70+20
 1405 00ea 1278     		ldrb	r2, [r2]	@ zero_extendqisi2
 1406 00ec 12F0FF0F 		tst	r2, #255
 1407 00f0 18D1     		bne	.L66
 181:.\main.c      ****         // if the task is finished and the task is a countdown we need to set the task to finished 
 1408              		.loc 1 181 0 is_stmt 1
 1409 00f2 184A     		ldr	r2, .L70+16
 1410 00f4 1369     		ldr	r3, [r2, #16]
 1411 00f6 013B     		subs	r3, r3, #1
 1412 00f8 1361     		str	r3, [r2, #16]
 183:.\main.c      ****             current_task.time_left = 0;
 1413              		.loc 1 183 0
 1414 00fa 002B     		cmp	r3, #0
 1415 00fc 08DC     		bgt	.L67
 183:.\main.c      ****             current_task.time_left = 0;
 1416              		.loc 1 183 0 is_stmt 0 discriminator 1
 1417 00fe 527A     		ldrb	r2, [r2, #9]	@ zero_extendqisi2
 1418 0100 32B1     		cbz	r2, .L67
 184:.\main.c      ****             in_alarm = true;
 1419              		.loc 1 184 0 is_stmt 1
 1420 0102 0022     		movs	r2, #0
 1421 0104 134B     		ldr	r3, .L70+16
 1422 0106 1A61     		str	r2, [r3, #16]
 185:.\main.c      ****             
 1423              		.loc 1 185 0
 1424 0108 0122     		movs	r2, #1
 1425 010a 134B     		ldr	r3, .L70+20
 1426 010c 1A70     		strb	r2, [r3]
 1427 010e 14E0     		b	.L68
 1428              	.L67:
 187:.\main.c      ****             // if the task is not a countdown well IDEA is to count up and make the text red ...
 1429              		.loc 1 187 0
 1430 0110 002B     		cmp	r3, #0
 1431 0112 12DC     		bgt	.L68
 187:.\main.c      ****             // if the task is not a countdown well IDEA is to count up and make the text red ...
 1432              		.loc 1 187 0 is_stmt 0 discriminator 1
 1433 0114 0F4B     		ldr	r3, .L70+16
 1434 0116 5B7A     		ldrb	r3, [r3, #9]	@ zero_extendqisi2
 1435 0118 7BB9     		cbnz	r3, .L68
 190:.\main.c      **** 
 1436              		.loc 1 190 0 is_stmt 1
 1437 011a 0E4A     		ldr	r2, .L70+16
 1438 011c 5369     		ldr	r3, [r2, #20]
 1439 011e 0133     		adds	r3, r3, #1
 1440 0120 5361     		str	r3, [r2, #20]
 1441 0122 0AE0     		b	.L68
 1442              	.L66:
 195:.\main.c      ****         current_task.time_left += 1;
 1443              		.loc 1 195 0
 1444 0124 032B     		cmp	r3, #3
 1445 0126 08D1     		bne	.L68
 195:.\main.c      ****         current_task.time_left += 1;
 1446              		.loc 1 195 0 is_stmt 0 discriminator 1
ARM GAS  C:\Users\jaohe\AppData\Local\Temp\ccbQAV2C.s 			page 40


 1447 0128 0B4B     		ldr	r3, .L70+20
 1448 012a 1B78     		ldrb	r3, [r3]	@ zero_extendqisi2
 1449 012c 13F0FF0F 		tst	r3, #255
 1450 0130 03D0     		beq	.L68
 196:.\main.c      ****     }
 1451              		.loc 1 196 0 is_stmt 1
 1452 0132 084A     		ldr	r2, .L70+16
 1453 0134 1369     		ldr	r3, [r2, #16]
 1454 0136 0133     		adds	r3, r3, #1
 1455 0138 1361     		str	r3, [r2, #16]
 1456              	.L68:
 198:.\main.c      ****     
 1457              		.loc 1 198 0
 1458 013a FFF7FEFF 		bl	Timer_1_ReadStatusRegister
 1459              	.LVL148:
 201:.\main.c      **** CY_ISR(Snooze_Btn_Handler)
 1460              		.loc 1 201 0
 1461 013e 0DB0     		add	sp, sp, #52
 1462              		.cfi_def_cfa_offset 12
 1463              		@ sp needed
 1464 0140 30BD     		pop	{r4, r5, pc}
 1465              	.L71:
 1466 0142 00BF     		.align	2
 1467              	.L70:
 1468 0144 C0010000 		.word	.LC21
 1469 0148 DC010000 		.word	.LC22
 1470 014c 00000000 		.word	current_alarm
 1471 0150 F4010000 		.word	.LC23
 1472 0154 00000000 		.word	current_task
 1473 0158 00000000 		.word	in_alarm
 1474              		.cfi_endproc
 1475              	.LFE65:
 1476              		.size	Timer_1_Handler, .-Timer_1_Handler
 1477              		.section	.text.Snooze_Btn_Handler,"ax",%progbits
 1478              		.align	2
 1479              		.global	Snooze_Btn_Handler
 1480              		.thumb
 1481              		.thumb_func
 1482              		.type	Snooze_Btn_Handler, %function
 1483              	Snooze_Btn_Handler:
 1484              	.LFB66:
 203:.\main.c      ****     // Clear PSoC GPIO interrupt first
 1485              		.loc 1 203 0
 1486              		.cfi_startproc
 1487              		@ args = 0, pretend = 0, frame = 0
 1488              		@ frame_needed = 0, uses_anonymous_args = 0
 1489 0000 10B5     		push	{r4, lr}
 1490              		.cfi_def_cfa_offset 8
 1491              		.cfi_offset 4, -8
 1492              		.cfi_offset 14, -4
 205:.\main.c      ****         in_alarm = false;
 1493              		.loc 1 205 0
 1494 0002 154B     		ldr	r3, .L77
 1495 0004 1B78     		ldrb	r3, [r3]	@ zero_extendqisi2
 1496 0006 13F0FF0F 		tst	r3, #255
 1497 000a 19D0     		beq	.L73
 206:.\main.c      ****         endAlarm();
ARM GAS  C:\Users\jaohe\AppData\Local\Temp\ccbQAV2C.s 			page 41


 1498              		.loc 1 206 0
 1499 000c 0024     		movs	r4, #0
 1500 000e 124B     		ldr	r3, .L77
 1501 0010 1C70     		strb	r4, [r3]
 207:.\main.c      ****         LED_3_Write(0);
 1502              		.loc 1 207 0
 1503 0012 FFF7FEFF 		bl	endAlarm
 1504              	.LVL149:
 208:.\main.c      ****         
 1505              		.loc 1 208 0
 1506 0016 2046     		mov	r0, r4
 1507 0018 FFF7FEFF 		bl	LED_3_Write
 1508              	.LVL150:
 211:.\main.c      ****             current_alarm.state = HANDLED;
 1509              		.loc 1 211 0
 1510 001c 0F4B     		ldr	r3, .L77+4
 1511 001e 9B78     		ldrb	r3, [r3, #2]	@ zero_extendqisi2
 1512 0020 012B     		cmp	r3, #1
 1513 0022 06D1     		bne	.L74
 212:.\main.c      ****             print("Stop Alarm !!!");
 1514              		.loc 1 212 0
 1515 0024 0322     		movs	r2, #3
 1516 0026 0D4B     		ldr	r3, .L77+4
 1517 0028 9A70     		strb	r2, [r3, #2]
 213:.\main.c      ****             
 1518              		.loc 1 213 0
 1519 002a 0D48     		ldr	r0, .L77+8
 1520 002c FFF7FEFF 		bl	print
 1521              	.LVL151:
 1522 0030 10BD     		pop	{r4, pc}
 1523              	.L74:
 217:.\main.c      ****             current_task.task.status = FINISHED;
 1524              		.loc 1 217 0
 1525 0032 0C48     		ldr	r0, .L77+12
 1526 0034 FFF7FEFF 		bl	print
 1527              	.LVL152:
 218:.\main.c      ****             // TODO handle the extra logic 
 1528              		.loc 1 218 0
 1529 0038 0322     		movs	r2, #3
 1530 003a 0B4B     		ldr	r3, .L77+16
 1531 003c 1A71     		strb	r2, [r3, #4]
 1532 003e 10BD     		pop	{r4, pc}
 1533              	.L73:
 223:.\main.c      ****         current_task.task.status = FINISHED;
 1534              		.loc 1 223 0
 1535 0040 094B     		ldr	r3, .L77+16
 1536 0042 1B79     		ldrb	r3, [r3, #4]	@ zero_extendqisi2
 1537 0044 022B     		cmp	r3, #2
 1538 0046 05D1     		bne	.L72
 224:.\main.c      ****         print("Ended Task !!!");
 1539              		.loc 1 224 0
 1540 0048 0322     		movs	r2, #3
 1541 004a 074B     		ldr	r3, .L77+16
 1542 004c 1A71     		strb	r2, [r3, #4]
 225:.\main.c      ****     }
 1543              		.loc 1 225 0
 1544 004e 0548     		ldr	r0, .L77+12
ARM GAS  C:\Users\jaohe\AppData\Local\Temp\ccbQAV2C.s 			page 42


 1545 0050 FFF7FEFF 		bl	print
 1546              	.LVL153:
 1547              	.L72:
 1548 0054 10BD     		pop	{r4, pc}
 1549              	.L78:
 1550 0056 00BF     		.align	2
 1551              	.L77:
 1552 0058 00000000 		.word	in_alarm
 1553 005c 00000000 		.word	current_alarm
 1554 0060 00020000 		.word	.LC24
 1555 0064 10020000 		.word	.LC25
 1556 0068 00000000 		.word	current_task
 1557              		.cfi_endproc
 1558              	.LFE66:
 1559              		.size	Snooze_Btn_Handler, .-Snooze_Btn_Handler
 1560              		.section	.text.user_start_task,"ax",%progbits
 1561              		.align	2
 1562              		.global	user_start_task
 1563              		.thumb
 1564              		.thumb_func
 1565              		.type	user_start_task, %function
 1566              	user_start_task:
 1567              	.LFB72:
 389:.\main.c      ****     GUI_SetBkColor(GUI_MAKE_COLOR(COLOR_BG_LIGHT));
 1568              		.loc 1 389 0
 1569              		.cfi_startproc
 1570              		@ args = 0, pretend = 0, frame = 56
 1571              		@ frame_needed = 1, uses_anonymous_args = 0
 1572 0000 F0B5     		push	{r4, r5, r6, r7, lr}
 1573              		.cfi_def_cfa_offset 20
 1574              		.cfi_offset 4, -20
 1575              		.cfi_offset 5, -16
 1576              		.cfi_offset 6, -12
 1577              		.cfi_offset 7, -8
 1578              		.cfi_offset 14, -4
 1579 0002 8FB0     		sub	sp, sp, #60
 1580              		.cfi_def_cfa_offset 80
 1581 0004 00AF     		add	r7, sp, #0
 1582              		.cfi_def_cfa_register 7
 390:.\main.c      ****     GUI_Clear();
 1583              		.loc 1 390 0
 1584 0006 4948     		ldr	r0, .L93
 1585 0008 FFF7FEFF 		bl	GUI_SetBkColor
 1586              	.LVL154:
 391:.\main.c      ****     GUI_SetFont(TITLE_TXT);
 1587              		.loc 1 391 0
 1588 000c FFF7FEFF 		bl	GUI_Clear
 1589              	.LVL155:
 392:.\main.c      ****     GUI_SetColor(COLOR_TEXT_PRIMARY);
 1590              		.loc 1 392 0
 1591 0010 4748     		ldr	r0, .L93+4
 1592 0012 FFF7FEFF 		bl	GUI_SetFont
 1593              	.LVL156:
 393:.\main.c      ****     GUI_DispStringAt("Choose a Task", 5,5);
 1594              		.loc 1 393 0
 1595 0016 4748     		ldr	r0, .L93+8
 1596 0018 FFF7FEFF 		bl	GUI_SetColor
ARM GAS  C:\Users\jaohe\AppData\Local\Temp\ccbQAV2C.s 			page 43


 1597              	.LVL157:
 394:.\main.c      ****     int i;
 1598              		.loc 1 394 0
 1599 001c 4648     		ldr	r0, .L93+12
 1600 001e 0521     		movs	r1, #5
 1601 0020 0A46     		mov	r2, r1
 1602 0022 FFF7FEFF 		bl	GUI_DispStringAt
 1603              	.LVL158:
 396:.\main.c      ****     for(i = 0; i < numTasks; i++){
 1604              		.loc 1 396 0
 1605 0026 454B     		ldr	r3, .L93+16
 1606 0028 DB68     		ldr	r3, [r3, #12]
 1607              	.LVL159:
 1608 002a 9B00     		lsls	r3, r3, #2
 1609              	.LVL160:
 1610 002c 0A33     		adds	r3, r3, #10
 1611 002e 23F00703 		bic	r3, r3, #7
 1612 0032 ADEB030D 		sub	sp, sp, r3
 1613 0036 6D46     		mov	r5, sp
 1614              	.LVL161:
 397:.\main.c      ****         task_names[i] = tasks[i].name;
 1615              		.loc 1 397 0
 1616 0038 0023     		movs	r3, #0
 1617 003a 08E0     		b	.L80
 1618              	.LVL162:
 1619              	.L81:
 398:.\main.c      ****     }
 1620              		.loc 1 398 0 discriminator 3
 1621 003c 03EB4301 		add	r1, r3, r3, lsl #1
 1622 0040 3E4A     		ldr	r2, .L93+16
 1623 0042 02EB8102 		add	r2, r2, r1, lsl #2
 1624 0046 1269     		ldr	r2, [r2, #16]
 1625 0048 45F82320 		str	r2, [r5, r3, lsl #2]
 397:.\main.c      ****         task_names[i] = tasks[i].name;
 1626              		.loc 1 397 0 discriminator 3
 1627 004c 0133     		adds	r3, r3, #1
 1628              	.LVL163:
 1629              	.L80:
 397:.\main.c      ****         task_names[i] = tasks[i].name;
 1630              		.loc 1 397 0 is_stmt 0 discriminator 1
 1631 004e 3B4A     		ldr	r2, .L93+16
 1632 0050 D268     		ldr	r2, [r2, #12]
 1633 0052 9342     		cmp	r3, r2
 1634 0054 F2DB     		blt	.L81
 400:.\main.c      ****     uint16 adcResult = 0;
 1635              		.loc 1 400 0 is_stmt 1
 1636 0056 2846     		mov	r0, r5
 1637 0058 FFF7FEFF 		bl	DrawTaskList
 1638              	.LVL164:
 404:.\main.c      **** 	ADC_DelSig_1_StartConvert();		// start the ADC_DelSig_1 conversion
 1639              		.loc 1 404 0
 1640 005c FFF7FEFF 		bl	ADC_DelSig_1_Start
 1641              	.LVL165:
 405:.\main.c      ****     
 1642              		.loc 1 405 0
 1643 0060 FFF7FEFF 		bl	ADC_DelSig_1_StartConvert
 1644              	.LVL166:
ARM GAS  C:\Users\jaohe\AppData\Local\Temp\ccbQAV2C.s 			page 44


 402:.\main.c      ****     
 1645              		.loc 1 402 0
 1646 0064 0024     		movs	r4, #0
 1647              	.LVL167:
 1648              	.L86:
 408:.\main.c      ****             GUI_Clear();
 1649              		.loc 1 408 0
 1650 0066 FFF7FEFF 		bl	FORWARD_BTN_Read
 1651              	.LVL168:
 1652 006a 68BB     		cbnz	r0, .L82
 1653              	.LBB6:
 409:.\main.c      ****             char line[50];
 1654              		.loc 1 409 0
 1655 006c FFF7FEFF 		bl	GUI_Clear
 1656              	.LVL169:
 411:.\main.c      ****             notification(line);
 1657              		.loc 1 411 0
 1658 0070 381D     		adds	r0, r7, #4
 1659 0072 3349     		ldr	r1, .L93+20
 1660 0074 55F82420 		ldr	r2, [r5, r4, lsl #2]
 1661 0078 FFF7FEFF 		bl	sprintf
 1662              	.LVL170:
 412:.\main.c      ****             CyDelay(1000);
 1663              		.loc 1 412 0
 1664 007c 381D     		adds	r0, r7, #4
 1665 007e FFF7FEFF 		bl	notification
 1666              	.LVL171:
 413:.\main.c      ****             if (fsmState == TASK_START){
 1667              		.loc 1 413 0
 1668 0082 4FF47A70 		mov	r0, #1000
 1669 0086 FFF7FEFF 		bl	CyDelay
 1670              	.LVL172:
 414:.\main.c      ****                 return system_start_task(tasks[selected]);
 1671              		.loc 1 414 0
 1672 008a 2E4B     		ldr	r3, .L93+24
 1673 008c 1B68     		ldr	r3, [r3]
 1674 008e 022B     		cmp	r3, #2
 1675 0090 0BD1     		bne	.L83
 415:.\main.c      ****             }else if (fsmState == SECOND_MOVE){
 1676              		.loc 1 415 0
 1677 0092 04EB4404 		add	r4, r4, r4, lsl #1
 1678              	.LVL173:
 1679 0096 294B     		ldr	r3, .L93+16
 1680 0098 03EB8404 		add	r4, r3, r4, lsl #2
 1681 009c 04F11003 		add	r3, r4, #16
 1682 00a0 93E80700 		ldmia	r3, {r0, r1, r2}
 1683 00a4 FFF7FEFF 		bl	system_start_task
 1684              	.LVL174:
 1685 00a8 3DE0     		b	.L91
 1686              	.LVL175:
 1687              	.L83:
 416:.\main.c      ****                 return send_2_second(tasks[selected]);
 1688              		.loc 1 416 0
 1689 00aa 052B     		cmp	r3, #5
 1690 00ac 0BD1     		bne	.L85
 417:.\main.c      ****             }
 1691              		.loc 1 417 0
ARM GAS  C:\Users\jaohe\AppData\Local\Temp\ccbQAV2C.s 			page 45


 1692 00ae 04EB4404 		add	r4, r4, r4, lsl #1
 1693              	.LVL176:
 1694 00b2 224B     		ldr	r3, .L93+16
 1695 00b4 03EB8404 		add	r4, r3, r4, lsl #2
 1696 00b8 04F11003 		add	r3, r4, #16
 1697 00bc 93E80700 		ldmia	r3, {r0, r1, r2}
 1698 00c0 FFF7FEFF 		bl	send_2_second
 1699              	.LVL177:
 1700 00c4 2FE0     		b	.L91
 1701              	.LVL178:
 1702              	.L85:
 420:.\main.c      ****            
 1703              		.loc 1 420 0 discriminator 1
 1704 00c6 FEE7     		b	.L85
 1705              	.L82:
 1706              	.LBE6:
 423:.\main.c      **** 		{
 1707              		.loc 1 423 0
 1708 00c8 0020     		movs	r0, #0
 1709 00ca FFF7FEFF 		bl	ADC_DelSig_1_IsEndConversion
 1710              	.LVL179:
 1711 00ce 0028     		cmp	r0, #0
 1712 00d0 C9D0     		beq	.L86
 1713              	.LBB7:
 426:.\main.c      **** 			adcResult = ADC_DelSig_1_GetResult16();		// read the adc and assign the value adcResult 
 1714              		.loc 1 426 0
 1715 00d2 2046     		mov	r0, r4
 1716 00d4 55F82410 		ldr	r1, [r5, r4, lsl #2]
 1717 00d8 FFF7FEFF 		bl	DrawUnselectedListItem
 1718              	.LVL180:
 427:.\main.c      ****        		if (adcResult & 0x8000)
 1719              		.loc 1 427 0
 1720 00dc FFF7FEFF 		bl	ADC_DelSig_1_GetResult16
 1721              	.LVL181:
 1722 00e0 82B2     		uxth	r2, r0
 1723              	.LVL182:
 428:.\main.c      ****        		{
 1724              		.loc 1 428 0
 1725 00e2 0028     		cmp	r0, #0
 1726 00e4 04DB     		blt	.L89
 432:.\main.c      ****        		{
 1727              		.loc 1 432 0
 1728 00e6 40F6FE73 		movw	r3, #4094
 1729 00ea 9A42     		cmp	r2, r3
 1730 00ec 02D8     		bhi	.L90
 1731 00ee 03E0     		b	.L87
 1732              	.L89:
 430:.\main.c      ****        		}
 1733              		.loc 1 430 0
 1734 00f0 0022     		movs	r2, #0
 1735              	.LVL183:
 1736 00f2 01E0     		b	.L87
 1737              	.LVL184:
 1738              	.L90:
 434:.\main.c      ****        		}
 1739              		.loc 1 434 0
 1740 00f4 40F6FF72 		movw	r2, #4095
ARM GAS  C:\Users\jaohe\AppData\Local\Temp\ccbQAV2C.s 			page 46


 1741              	.LVL185:
 1742              	.L87:
 436:.\main.c      ****             selected = segment; 
 1743              		.loc 1 436 0
 1744 00f8 134B     		ldr	r3, .L93+28
 1745 00fa A3FB0213 		umull	r1, r3, r3, r2
 1746 00fe D21A     		subs	r2, r2, r3
 1747              	.LVL186:
 1748 0100 03EB5203 		add	r3, r3, r2, lsr #1
 1749 0104 C3F38F24 		ubfx	r4, r3, #10, #16
 1750              	.LVL187:
 439:.\main.c      ****             print(line);
 1751              		.loc 1 439 0
 1752 0108 0026     		movs	r6, #0
 1753 010a 3046     		mov	r0, r6
 1754 010c 0F49     		ldr	r1, .L93+32
 1755 010e 2246     		mov	r2, r4
 1756 0110 FFF7FEFF 		bl	sprintf
 1757              	.LVL188:
 440:.\main.c      ****             DrawSelectedListItem(selected, task_names[selected]); // select the item
 1758              		.loc 1 440 0
 1759 0114 3046     		mov	r0, r6
 1760 0116 FFF7FEFF 		bl	print
 1761              	.LVL189:
 441:.\main.c      ****             
 1762              		.loc 1 441 0
 1763 011a 2046     		mov	r0, r4
 1764 011c 55F82410 		ldr	r1, [r5, r4, lsl #2]
 1765 0120 FFF7FEFF 		bl	DrawSelectedListItem
 1766              	.LVL190:
 1767 0124 9FE7     		b	.L86
 1768              	.LVL191:
 1769              	.L91:
 1770              	.LBE7:
 450:.\main.c      **** 
 1771              		.loc 1 450 0
 1772 0126 3C37     		adds	r7, r7, #60
 1773              		.cfi_def_cfa_offset 20
 1774 0128 BD46     		mov	sp, r7
 1775              		.cfi_def_cfa_register 13
 1776              		@ sp needed
 1777 012a F0BD     		pop	{r4, r5, r6, r7, pc}
 1778              	.LVL192:
 1779              	.L94:
 1780              		.align	2
 1781              	.L93:
 1782 012c FFF9F700 		.word	16251391
 1783 0130 00000000 		.word	GUI_Font8x16x2x2
 1784 0134 25141800 		.word	1578021
 1785 0138 20020000 		.word	.LC26
 1786 013c 00000000 		.word	.LANCHOR0
 1787 0140 30020000 		.word	.LC27
 1788 0144 00000000 		.word	fsmState
 1789 0148 81011880 		.word	-2145910399
 1790 014c 44020000 		.word	.LC28
 1791              		.cfi_endproc
 1792              	.LFE72:
ARM GAS  C:\Users\jaohe\AppData\Local\Temp\ccbQAV2C.s 			page 47


 1793              		.size	user_start_task, .-user_start_task
 1794              		.section	.text.main,"ax",%progbits
 1795              		.align	2
 1796              		.global	main
 1797              		.thumb
 1798              		.thumb_func
 1799              		.type	main, %function
 1800              	main:
 1801              	.LFB69:
 271:.\main.c      ****    CyGlobalIntEnable;            // 1. Global interrupts first!
 1802              		.loc 1 271 0
 1803              		.cfi_startproc
 1804              		@ Volatile: function does not return.
 1805              		@ args = 0, pretend = 0, frame = 0
 1806              		@ frame_needed = 0, uses_anonymous_args = 0
 1807 0000 08B5     		push	{r3, lr}
 1808              		.cfi_def_cfa_offset 8
 1809              		.cfi_offset 3, -8
 1810              		.cfi_offset 14, -4
 272:.\main.c      ****    tick_isr_ClearPending();
 1811              		.loc 1 272 0
 1812              	@ 272 ".\main.c" 1
 1813 0002 62B6     		CPSIE   i
 1814              	@ 0 "" 2
 273:.\main.c      ****     SwInt_ClearPending();
 1815              		.loc 1 273 0
 1816              		.thumb
 1817 0004 FFF7FEFF 		bl	tick_isr_ClearPending
 1818              	.LVL193:
 274:.\main.c      ****    
 1819              		.loc 1 274 0
 1820 0008 FFF7FEFF 		bl	SwInt_ClearPending
 1821              	.LVL194:
 276:.\main.c      ****    tick_isr_StartEx(Timer_1_Handler); // Link ISR
 1822              		.loc 1 276 0
 1823 000c FFF7FEFF 		bl	Timer_1_Start
 1824              	.LVL195:
 277:.\main.c      ****    
 1825              		.loc 1 277 0
 1826 0010 2748     		ldr	r0, .L105
 1827 0012 FFF7FEFF 		bl	tick_isr_StartEx
 1828              	.LVL196:
 279:.\main.c      ****     
 1829              		.loc 1 279 0
 1830 0016 2748     		ldr	r0, .L105+4
 1831 0018 FFF7FEFF 		bl	SwInt_StartEx
 1832              	.LVL197:
 282:.\main.c      ****     SPIM_1_Start();                  // 2. Start SPI for TFT
 1833              		.loc 1 282 0
 1834 001c FFF7FEFF 		bl	I2CRTC_Start
 1835              	.LVL198:
 283:.\main.c      ****     LCD_Char_1_Start();              // 2. Start Character LCD
 1836              		.loc 1 283 0
 1837 0020 FFF7FEFF 		bl	SPIM_1_Start
 1838              	.LVL199:
 284:.\main.c      ****     
 1839              		.loc 1 284 0
ARM GAS  C:\Users\jaohe\AppData\Local\Temp\ccbQAV2C.s 			page 48


 1840 0024 FFF7FEFF 		bl	LCD_Char_1_Start
 1841              	.LVL200:
 287:.\main.c      ****     
 1842              		.loc 1 287 0
 1843 0028 0120     		movs	r0, #1
 1844 002a FFF7FEFF 		bl	LCD_Char_1_WriteControl
 1845              	.LVL201:
 290:.\main.c      ****     UART_1_Init();
 1846              		.loc 1 290 0
 1847 002e 2248     		ldr	r0, .L105+8
 1848 0030 FFF7FEFF 		bl	LCD_Char_1_PrintString
 1849              	.LVL202:
 291:.\main.c      ****     UART_1_Start();
 1850              		.loc 1 291 0
 1851 0034 FFF7FEFF 		bl	UART_1_Init
 1852              	.LVL203:
 292:.\main.c      ****     
 1853              		.loc 1 292 0
 1854 0038 FFF7FEFF 		bl	UART_1_Start
 1855              	.LVL204:
 294:.\main.c      ****     UART_2_Start();
 1856              		.loc 1 294 0
 1857 003c FFF7FEFF 		bl	UART_2_Init
 1858              	.LVL205:
 295:.\main.c      **** //    DateTime now = {
 1859              		.loc 1 295 0
 1860 0040 FFF7FEFF 		bl	UART_2_Start
 1861              	.LVL206:
 310:.\main.c      ****     GUI_SetBkColor(GUI_MAKE_COLOR(COLOR_BG_LIGHT));
 1862              		.loc 1 310 0
 1863 0044 FFF7FEFF 		bl	GUI_Init
 1864              	.LVL207:
 311:.\main.c      ****     GUI_Clear();
 1865              		.loc 1 311 0
 1866 0048 1C48     		ldr	r0, .L105+12
 1867 004a FFF7FEFF 		bl	GUI_SetBkColor
 1868              	.LVL208:
 312:.\main.c      ****     GUI_SetFont(&GUI_Font8x16);
 1869              		.loc 1 312 0
 1870 004e FFF7FEFF 		bl	GUI_Clear
 1871              	.LVL209:
 313:.\main.c      ****     init_globals();
 1872              		.loc 1 313 0
 1873 0052 1B48     		ldr	r0, .L105+16
 1874 0054 FFF7FEFF 		bl	GUI_SetFont
 1875              	.LVL210:
 314:.\main.c      **** //    GUI_SetBkColor(GUI_MAKE_COLOR(COLOR_NEUTRAL_GRAYBLUE));
 1876              		.loc 1 314 0
 1877 0058 FFF7FEFF 		bl	init_globals
 1878              	.LVL211:
 317:.\main.c      ****     
 1879              		.loc 1 317 0
 1880 005c 0122     		movs	r2, #1
 1881 005e 194B     		ldr	r3, .L105+20
 1882 0060 1A60     		str	r2, [r3]
 1883              	.L97:
 321:.\main.c      ****             case MENU:
ARM GAS  C:\Users\jaohe\AppData\Local\Temp\ccbQAV2C.s 			page 49


 1884              		.loc 1 321 0
 1885 0062 184B     		ldr	r3, .L105+20
 1886 0064 1B68     		ldr	r3, [r3]
 1887 0066 052B     		cmp	r3, #5
 1888 0068 FBD8     		bhi	.L97
 1889 006a 01A2     		adr	r2, .L99
 1890 006c 52F823F0 		ldr	pc, [r2, r3, lsl #2]
 1891              		.p2align 2
 1892              	.L99:
 1893 0070 89000000 		.word	.L98+1
 1894 0074 93000000 		.word	.L100+1
 1895 0078 9D000000 		.word	.L101+1
 1896 007c 63000000 		.word	.L97+1
 1897 0080 63000000 		.word	.L97+1
 1898 0084 A7000000 		.word	.L102+1
 1899              		.p2align 1
 1900              	.L98:
 323:.\main.c      ****                 //fsmState = start();
 1901              		.loc 1 323 0
 1902 0088 FFF7FEFF 		bl	menu
 1903              	.LVL212:
 1904 008c 0D4B     		ldr	r3, .L105+20
 1905 008e 1860     		str	r0, [r3]
 325:.\main.c      ****             case HOME:
 1906              		.loc 1 325 0
 1907 0090 E7E7     		b	.L97
 1908              	.L100:
 327:.\main.c      ****                 break;
 1909              		.loc 1 327 0
 1910 0092 FFF7FEFF 		bl	home
 1911              	.LVL213:
 1912 0096 0B4B     		ldr	r3, .L105+20
 1913 0098 1860     		str	r0, [r3]
 328:.\main.c      ****             case TASK_SCHEDULER:
 1914              		.loc 1 328 0
 1915 009a E2E7     		b	.L97
 1916              	.L101:
 332:.\main.c      ****                 break; 
 1917              		.loc 1 332 0
 1918 009c FFF7FEFF 		bl	user_start_task
 1919              	.LVL214:
 1920 00a0 084B     		ldr	r3, .L105+20
 1921 00a2 1860     		str	r0, [r3]
 333:.\main.c      ****             case VIEW_METRICS:
 1922              		.loc 1 333 0
 1923 00a4 DDE7     		b	.L97
 1924              	.L102:
 337:.\main.c      ****             case ERROR:
 1925              		.loc 1 337 0
 1926 00a6 FFF7FEFF 		bl	user_start_task
 1927              	.LVL215:
 1928 00aa 064B     		ldr	r3, .L105+20
 1929 00ac 1860     		str	r0, [r3]
 1930 00ae D8E7     		b	.L97
 1931              	.L106:
 1932              		.align	2
 1933              	.L105:
ARM GAS  C:\Users\jaohe\AppData\Local\Temp\ccbQAV2C.s 			page 50


 1934 00b0 00000000 		.word	Timer_1_Handler
 1935 00b4 00000000 		.word	Snooze_Btn_Handler
 1936 00b8 50020000 		.word	.LC29
 1937 00bc FFF9F700 		.word	16251391
 1938 00c0 00000000 		.word	GUI_Font8x16
 1939 00c4 00000000 		.word	fsmState
 1940              		.cfi_endproc
 1941              	.LFE69:
 1942              		.size	main, .-main
 1943              		.section	.text.error,"ax",%progbits
 1944              		.align	2
 1945              		.global	error
 1946              		.thumb
 1947              		.thumb_func
 1948              		.type	error, %function
 1949              	error:
 1950              	.LFB77:
 667:.\main.c      ****     print(message);
 1951              		.loc 1 667 0
 1952              		.cfi_startproc
 1953              		@ args = 0, pretend = 0, frame = 0
 1954              		@ frame_needed = 0, uses_anonymous_args = 0
 1955              	.LVL216:
 1956 0000 08B5     		push	{r3, lr}
 1957              		.cfi_def_cfa_offset 8
 1958              		.cfi_offset 3, -8
 1959              		.cfi_offset 14, -4
 668:.\main.c      ****     CyDelay(1000);
 1960              		.loc 1 668 0
 1961 0002 FFF7FEFF 		bl	print
 1962              	.LVL217:
 669:.\main.c      ****     return ERROR;
 1963              		.loc 1 669 0
 1964 0006 4FF47A70 		mov	r0, #1000
 1965 000a FFF7FEFF 		bl	CyDelay
 1966              	.LVL218:
 671:.\main.c      **** void notification(char* message)
 1967              		.loc 1 671 0
 1968 000e 0620     		movs	r0, #6
 1969 0010 08BD     		pop	{r3, pc}
 1970              		.cfi_endproc
 1971              	.LFE77:
 1972              		.size	error, .-error
 1973 0012 00BF     		.section	.text.MainTask,"ax",%progbits
 1974              		.align	2
 1975              		.global	MainTask
 1976              		.thumb
 1977              		.thumb_func
 1978              		.type	MainTask, %function
 1979              	MainTask:
 1980              	.LFB80:
 692:.\main.c      **** //    GUI_Clear();
 693:.\main.c      **** //    GUI_SetFont(&GUI_Font8x16);
 694:.\main.c      **** //    GUI_DispStringHCenterAt(message, 5,5);
 695:.\main.c      **** }
 696:.\main.c      **** void MainTask()
 697:.\main.c      **** {
ARM GAS  C:\Users\jaohe\AppData\Local\Temp\ccbQAV2C.s 			page 51


 1981              		.loc 1 697 0
 1982              		.cfi_startproc
 1983              		@ args = 0, pretend = 0, frame = 0
 1984              		@ frame_needed = 0, uses_anonymous_args = 0
 1985 0000 08B5     		push	{r3, lr}
 1986              		.cfi_def_cfa_offset 8
 1987              		.cfi_offset 3, -8
 1988              		.cfi_offset 14, -4
 698:.\main.c      ****     GUI_Init();                             // initilize graphics library
 1989              		.loc 1 698 0
 1990 0002 FFF7FEFF 		bl	GUI_Init
 1991              	.LVL219:
 699:.\main.c      ****     GUI_Clear();
 1992              		.loc 1 699 0
 1993 0006 FFF7FEFF 		bl	GUI_Clear
 1994              	.LVL220:
 700:.\main.c      ****     GUI_SetFont(&GUI_Font8x16);
 1995              		.loc 1 700 0
 1996 000a 0448     		ldr	r0, .L111
 1997 000c FFF7FEFF 		bl	GUI_SetFont
 1998              	.LVL221:
 701:.\main.c      ****     GUI_DispStringAt("lineeeee", 50, 50);
 1999              		.loc 1 701 0
 2000 0010 0348     		ldr	r0, .L111+4
 2001 0012 3221     		movs	r1, #50
 2002 0014 0A46     		mov	r2, r1
 2003 0016 FFF7FEFF 		bl	GUI_DispStringAt
 2004              	.LVL222:
 2005 001a 08BD     		pop	{r3, pc}
 2006              	.L112:
 2007              		.align	2
 2008              	.L111:
 2009 001c 00000000 		.word	GUI_Font8x16
 2010 0020 58020000 		.word	.LC30
 2011              		.cfi_endproc
 2012              	.LFE80:
 2013              		.size	MainTask, .-MainTask
 2014              		.section	.text.configure_rtc_tick,"ax",%progbits
 2015              		.align	2
 2016              		.global	configure_rtc_tick
 2017              		.thumb
 2018              		.thumb_func
 2019              		.type	configure_rtc_tick, %function
 2020              	configure_rtc_tick:
 2021              	.LFB81:
 702:.\main.c      ****     
 703:.\main.c      **** }
 704:.\main.c      **** 
 705:.\main.c      **** 
 706:.\main.c      **** void configure_rtc_tick(){
 2022              		.loc 1 706 0
 2023              		.cfi_startproc
 2024              		@ args = 0, pretend = 0, frame = 0
 2025              		@ frame_needed = 0, uses_anonymous_args = 0
 2026 0000 00B5     		push	{lr}
 2027              		.cfi_def_cfa_offset 4
 2028              		.cfi_offset 14, -4
ARM GAS  C:\Users\jaohe\AppData\Local\Temp\ccbQAV2C.s 			page 52


 2029 0002 87B0     		sub	sp, sp, #28
 2030              		.cfi_def_cfa_offset 32
 707:.\main.c      ****     int status = RTC_setAlarmTime(0,0,0,0,0,1,1,1,1,DS3231_ALARM1);
 2031              		.loc 1 707 0
 2032 0004 0023     		movs	r3, #0
 2033 0006 0093     		str	r3, [sp]
 2034 0008 0122     		movs	r2, #1
 2035 000a 0192     		str	r2, [sp, #4]
 2036 000c 0292     		str	r2, [sp, #8]
 2037 000e 0392     		str	r2, [sp, #12]
 2038 0010 0492     		str	r2, [sp, #16]
 2039 0012 0722     		movs	r2, #7
 2040 0014 0592     		str	r2, [sp, #20]
 2041 0016 1846     		mov	r0, r3
 2042 0018 1946     		mov	r1, r3
 2043 001a 1A46     		mov	r2, r3
 2044 001c FFF7FEFF 		bl	RTC_setAlarmTime
 2045              	.LVL223:
 708:.\main.c      ****     i2c_status(status);
 2046              		.loc 1 708 0
 2047 0020 FFF7FEFF 		bl	i2c_status
 2048              	.LVL224:
 709:.\main.c      ****     status = tick_isr_init();
 2049              		.loc 1 709 0
 2050 0024 FFF7FEFF 		bl	tick_isr_init
 2051              	.LVL225:
 710:.\main.c      ****     
 711:.\main.c      **** }
 2052              		.loc 1 711 0
 2053 0028 07B0     		add	sp, sp, #28
 2054              		.cfi_def_cfa_offset 4
 2055              		@ sp needed
 2056 002a 5DF804FB 		ldr	pc, [sp], #4
 2057              		.cfi_endproc
 2058              	.LFE81:
 2059              		.size	configure_rtc_tick, .-configure_rtc_tick
 2060              		.comm	isr_flag,1,1
 2061              		.comm	current_task,24,4
 2062              		.comm	current_alarm,3,4
 2063              		.comm	fsmState,4,4
 2064              		.global	numTasks
 2065              		.global	numAlarms
 2066              		.global	tasks
 2067              		.global	alarms
 2068 002e 00BF     		.section	.rodata
 2069              		.align	2
 2070              		.set	.LANCHOR1,. + 0
 2071              	.LC9:
 2072 0000 64020000 		.word	.LC0
 2073 0004 70020000 		.word	.LC1
 2074 0008 84020000 		.word	.LC2
 2075              	.LC4:
 2076 000c 0A00     		.short	10
 2077 000e 0A00     		.short	10
 2078 0010 E600     		.short	230
 2079 0012 3500     		.short	53
 2080              	.LC5:
ARM GAS  C:\Users\jaohe\AppData\Local\Temp\ccbQAV2C.s 			page 53


 2081 0014 0A00     		.short	10
 2082 0016 3500     		.short	53
 2083 0018 E600     		.short	230
 2084 001a 6A00     		.short	106
 2085              	.LC6:
 2086 001c 0A00     		.short	10
 2087 001e 6A00     		.short	106
 2088 0020 E600     		.short	230
 2089 0022 0A01     		.short	266
 2090              	.LC7:
 2091 0024 3C00     		.short	60
 2092 0026 5000     		.short	80
 2093 0028 B400     		.short	180
 2094 002a F000     		.short	240
 2095              	.LC20:
 2096 002c 57656C63 		.ascii	"Welcome to \012Task Buddy\000\000"
 2096      6F6D6520 
 2096      746F200A 
 2096      5461736B 
 2096      20427564 
 2097              		.data
 2098              		.align	2
 2099              		.set	.LANCHOR0,. + 0
 2100              		.type	alarms, %object
 2101              		.size	alarms, 6
 2102              	alarms:
 2103 0000 0E       		.byte	14
 2104 0001 2D       		.byte	45
 2105 0002 00       		.byte	0
 2106 0003 03       		.byte	3
 2107 0004 30       		.byte	48
 2108 0005 00       		.byte	0
 2109 0006 0000     		.space	2
 2110              		.type	numAlarms, %object
 2111              		.size	numAlarms, 4
 2112              	numAlarms:
 2113 0008 02000000 		.word	2
 2114              		.type	numTasks, %object
 2115              		.size	numTasks, 4
 2116              	numTasks:
 2117 000c 03000000 		.word	3
 2118              		.type	tasks, %object
 2119              		.size	tasks, 36
 2120              	tasks:
 2121 0010 94020000 		.word	.LC31
 2122 0014 00       		.byte	0
 2123 0015 0B       		.byte	11
 2124 0016 00       		.byte	0
 2125 0017 00       		.byte	0
 2126 0018 05       		.byte	5
 2127 0019 00       		.byte	0
 2128 001a 0000     		.space	2
 2129 001c A0020000 		.word	.LC32
 2130 0020 00       		.byte	0
 2131 0021 16       		.byte	22
 2132 0022 00       		.byte	0
 2133 0023 00       		.byte	0
ARM GAS  C:\Users\jaohe\AppData\Local\Temp\ccbQAV2C.s 			page 54


 2134 0024 0F       		.byte	15
 2135 0025 01       		.byte	1
 2136 0026 0000     		.space	2
 2137 0028 AC020000 		.word	.LC33
 2138 002c 00       		.byte	0
 2139 002d 0A       		.byte	10
 2140 002e 00       		.byte	0
 2141 002f 00       		.byte	0
 2142 0030 0F       		.byte	15
 2143 0031 00       		.byte	0
 2144 0032 0000     		.space	2
 2145              		.section	.rodata.str1.4,"aMS",%progbits,1
 2146              		.align	2
 2147              	.LC8:
 2148 0000 4D61696E 		.ascii	"Main Menu\000"
 2148      204D656E 
 2148      7500
 2149 000a 0000     		.space	2
 2150              	.LC10:
 2151 000c 5461736B 		.ascii	"Task: %s COMPLETE\000"
 2151      3A202573 
 2151      20434F4D 
 2151      504C4554 
 2151      4500
 2152 001e 0000     		.space	2
 2153              	.LC11:
 2154 0020 6C696E65 		.ascii	"line\000"
 2154      00
 2155 0025 000000   		.space	3
 2156              	.LC12:
 2157 0028 596F7572 		.ascii	"Your Metrics\000"
 2157      204D6574 
 2157      72696373 
 2157      00
 2158 0035 000000   		.space	3
 2159              	.LC13:
 2160 0038 45737469 		.ascii	"Estimated Time: %02uh %02um\012Actual: %02uh %02um\012"
 2160      6D617465 
 2160      64205469 
 2160      6D653A20 
 2160      25303275 
 2161 0068 4F766572 		.ascii	"Over Time: %02uh %02um\012\000"
 2161      2054696D 
 2161      653A2025 
 2161      30327568 
 2161      20253032 
 2162              	.LC14:
 2163 0080 54696D65 		.ascii	"Time Spent\000"
 2163      20537065 
 2163      6E7400
 2164 008b 00       		.space	1
 2165              	.LC15:
 2166 008c 0D0A3D3D 		.ascii	"\015\012==== Task Metrics: Time Spent ====\015\012T"
 2166      3D3D2054 
 2166      61736B20 
 2166      4D657472 
 2166      6963733A 
ARM GAS  C:\Users\jaohe\AppData\Local\Temp\ccbQAV2C.s 			page 55


 2167 00b3 61736B20 		.ascii	"ask Name      : %s\015\012-------------------------"
 2167      4E616D65 
 2167      20202020 
 2167      20203A20 
 2167      25730D0A 
 2168 00e0 2D2D2D2D 		.ascii	"------\015\012Estimated Time : %02uh %02um\015\012A"
 2168      2D2D0D0A 
 2168      45737469 
 2168      6D617465 
 2168      64205469 
 2169 0107 63747561 		.ascii	"ctual Time    : %02uh %02um\015\012Over Time      :"
 2169      6C205469 
 2169      6D652020 
 2169      20203A20 
 2169      25303275 
 2170 0134 20253032 		.ascii	" %02uh %02um\015\012==============================="
 2170      75682025 
 2170      3032756D 
 2170      0D0A3D3D 
 2170      3D3D3D3D 
 2171 0161 3D3D0D0A 		.ascii	"==\015\012\000"
 2171      00
 2172 0166 0000     		.space	2
 2173              	.LC16:
 2174 0168 3D3D3D3D 		.ascii	"==== PRESS Forward Btn => Home ====\012\000"
 2174      20505245 
 2174      53532046 
 2174      6F727761 
 2174      72642042 
 2175 018d 000000   		.space	3
 2176              	.LC17:
 2177 0190 5461736B 		.ascii	"Task in Progress\000"
 2177      20696E20 
 2177      50726F67 
 2177      72657373 
 2177      00
 2178 01a1 000000   		.space	3
 2179              	.LC18:
 2180 01a4 456E6420 		.ascii	"End Task\000"
 2180      5461736B 
 2180      00
 2181 01ad 000000   		.space	3
 2182              	.LC19:
 2183 01b0 25303264 		.ascii	"%02d:%02d:%02d\000"
 2183      3A253032 
 2183      643A2530 
 2183      326400
 2184 01bf 00       		.space	1
 2185              	.LC21:
 2186 01c0 25303275 		.ascii	"%02u-%02u %02u:%02u:%02u\000"
 2186      2D253032 
 2186      75202530 
 2186      32753A25 
 2186      3032753A 
 2187 01d9 000000   		.space	3
 2188              	.LC22:
 2189 01dc 20202020 		.ascii	"                    \000"
ARM GAS  C:\Users\jaohe\AppData\Local\Temp\ccbQAV2C.s 			page 56


 2189      20202020 
 2189      20202020 
 2189      20202020 
 2189      20202020 
 2190 01f1 000000   		.space	3
 2191              	.LC23:
 2192 01f4 416C6172 		.ascii	"Alarm !!!\000"
 2192      6D202121 
 2192      2100
 2193 01fe 0000     		.space	2
 2194              	.LC24:
 2195 0200 53746F70 		.ascii	"Stop Alarm !!!\000"
 2195      20416C61 
 2195      726D2021 
 2195      212100
 2196 020f 00       		.space	1
 2197              	.LC25:
 2198 0210 456E6465 		.ascii	"Ended Task !!!\000"
 2198      64205461 
 2198      736B2021 
 2198      212100
 2199 021f 00       		.space	1
 2200              	.LC26:
 2201 0220 43686F6F 		.ascii	"Choose a Task\000"
 2201      73652061 
 2201      20546173 
 2201      6B00
 2202 022e 0000     		.space	2
 2203              	.LC27:
 2204 0230 53656C65 		.ascii	"Selected Task : %s\000"
 2204      63746564 
 2204      20546173 
 2204      6B203A20 
 2204      257300
 2205 0243 00       		.space	1
 2206              	.LC28:
 2207 0244 73656C65 		.ascii	"selected %d\000"
 2207      63746564 
 2207      20256400 
 2208              	.LC29:
 2209 0250 54696D65 		.ascii	"Time: \000"
 2209      3A2000
 2210 0257 00       		.space	1
 2211              	.LC30:
 2212 0258 6C696E65 		.ascii	"lineeeee\000"
 2212      65656565 
 2212      00
 2213 0261 000000   		.space	3
 2214              	.LC0:
 2215 0264 53746172 		.ascii	"Start Task\000"
 2215      74205461 
 2215      736B00
 2216 026f 00       		.space	1
 2217              	.LC1:
 2218 0270 4D6F7665 		.ascii	"Move Task 2 Stick\000"
 2218      20546173 
 2218      6B203220 
ARM GAS  C:\Users\jaohe\AppData\Local\Temp\ccbQAV2C.s 			page 57


 2218      53746963 
 2218      6B00
 2219 0282 0000     		.space	2
 2220              	.LC2:
 2221 0284 54686972 		.ascii	"Third Option\000"
 2221      64204F70 
 2221      74696F6E 
 2221      00
 2222 0291 000000   		.space	3
 2223              	.LC31:
 2224 0294 42727573 		.ascii	"Brush Teeth\000"
 2224      68205465 
 2224      65746800 
 2225              	.LC32:
 2226 02a0 436C6561 		.ascii	"Clean Room\000"
 2226      6E20526F 
 2226      6F6D00
 2227 02ab 00       		.space	1
 2228              	.LC33:
 2229 02ac 446F2036 		.ascii	"Do 6.115 Project\000"
 2229      2E313135 
 2229      2050726F 
 2229      6A656374 
 2229      00
 2230 02bd 000000   		.text
 2231              	.Letext0:
 2232              		.file 2 "c:\\program files (x86)\\cypress\\psoc creator\\3.3\\psoc creator\\import\\gnu\\arm\\4.9.
 2233              		.file 3 "..\\..\\emWinGraphics_v5_46\\Code\\Include\\PSoC4_5/LCD.h"
 2234              		.file 4 "..\\..\\emWinGraphics_v5_46\\Code\\Include\\PSoC4_5/GUI_Type.h"
 2235              		.file 5 "..\\..\\emWinGraphics_v5_46\\Code\\Include\\PSoC4_5/GUI.h"
 2236              		.file 6 "c:\\program files (x86)\\cypress\\psoc creator\\3.3\\psoc creator\\import\\gnu\\arm\\4.9.
 2237              		.file 7 "c:\\program files (x86)\\cypress\\psoc creator\\3.3\\psoc creator\\import\\gnu\\arm\\4.9.
 2238              		.file 8 "Generated_Source\\PSoC5/cytypes.h"
 2239              		.file 9 "./ds3231.h"
 2240              		.file 10 ".\\task.h"
 2241              		.file 11 ".\\screens.h"
 2242              		.file 12 "Generated_Source\\PSoC5/core_cm3.h"
 2243              		.file 13 "Generated_Source\\PSoC5/UART_1.h"
 2244              		.file 14 "Generated_Source\\PSoC5/CyLib.h"
 2245              		.file 15 "Generated_Source\\PSoC5/LED_3.h"
 2246              		.file 16 "Generated_Source\\PSoC5/JOYSTICK_U.h"
 2247              		.file 17 "Generated_Source\\PSoC5/JOYSTICK_D.h"
 2248              		.file 18 "Generated_Source\\PSoC5/JOYSTICK_M.h"
 2249              		.file 19 "c:\\program files (x86)\\cypress\\psoc creator\\3.3\\psoc creator\\import\\gnu\\arm\\4.9
 2250              		.file 20 "Generated_Source\\PSoC5/UART_2.h"
 2251              		.file 21 "Generated_Source\\PSoC5/FORWARD_BTN.h"
 2252              		.file 22 "Generated_Source\\PSoC5/LCD_Char_1.h"
 2253              		.file 23 "c:\\program files (x86)\\cypress\\psoc creator\\3.3\\psoc creator\\import\\gnu\\arm\\4.9
 2254              		.file 24 "Generated_Source\\PSoC5/LED_1.h"
 2255              		.file 25 "Generated_Source\\PSoC5/Timer_1.h"
 2256              		.file 26 "Generated_Source\\PSoC5/ADC_DelSig_1.h"
 2257              		.file 27 "Generated_Source\\PSoC5/tick_isr.h"
 2258              		.file 28 "Generated_Source\\PSoC5/SwInt.h"
 2259              		.file 29 "Generated_Source\\PSoC5/I2CRTC.h"
 2260              		.file 30 "Generated_Source\\PSoC5/SPIM_1.h"
 2261              		.section	.debug_info,"",%progbits
 2262              	.Ldebug_info0:
ARM GAS  C:\Users\jaohe\AppData\Local\Temp\ccbQAV2C.s 			page 58


 2263 0000 C7230000 		.4byte	0x23c7
 2264 0004 0400     		.2byte	0x4
 2265 0006 00000000 		.4byte	.Ldebug_abbrev0
 2266 000a 04       		.byte	0x4
 2267 000b 01       		.uleb128 0x1
 2268 000c 49030000 		.4byte	.LASF274
 2269 0010 01       		.byte	0x1
 2270 0011 B00C0000 		.4byte	.LASF275
 2271 0015 8E010000 		.4byte	.LASF276
 2272 0019 00000000 		.4byte	.Ldebug_ranges0+0
 2273 001d 00000000 		.4byte	0
 2274 0021 00000000 		.4byte	.Ldebug_line0
 2275 0025 02       		.uleb128 0x2
 2276 0026 08       		.byte	0x8
 2277 0027 07       		.byte	0x7
 2278 0028 88090000 		.4byte	.LASF0
 2279 002c 02       		.uleb128 0x2
 2280 002d 04       		.byte	0x4
 2281 002e 07       		.byte	0x7
 2282 002f E9070000 		.4byte	.LASF1
 2283 0033 03       		.uleb128 0x3
 2284 0034 04       		.byte	0x4
 2285 0035 05       		.byte	0x5
 2286 0036 696E7400 		.ascii	"int\000"
 2287 003a 04       		.uleb128 0x4
 2288 003b 2D000000 		.4byte	.LASF2
 2289 003f 02       		.byte	0x2
 2290 0040 D4       		.byte	0xd4
 2291 0041 2C000000 		.4byte	0x2c
 2292 0045 04       		.uleb128 0x4
 2293 0046 170A0000 		.4byte	.LASF3
 2294 004a 03       		.byte	0x3
 2295 004b 6A       		.byte	0x6a
 2296 004c 50000000 		.4byte	0x50
 2297 0050 02       		.uleb128 0x2
 2298 0051 04       		.byte	0x4
 2299 0052 07       		.byte	0x7
 2300 0053 D1050000 		.4byte	.LASF4
 2301 0057 02       		.uleb128 0x2
 2302 0058 02       		.byte	0x2
 2303 0059 05       		.byte	0x5
 2304 005a 0B0B0000 		.4byte	.LASF5
 2305 005e 05       		.uleb128 0x5
 2306 005f 08       		.byte	0x8
 2307 0060 03       		.byte	0x3
 2308 0061 71       		.byte	0x71
 2309 0062 93000000 		.4byte	0x93
 2310 0066 06       		.uleb128 0x6
 2311 0067 783000   		.ascii	"x0\000"
 2312 006a 03       		.byte	0x3
 2313 006b 71       		.byte	0x71
 2314 006c 57000000 		.4byte	0x57
 2315 0070 00       		.byte	0
 2316 0071 06       		.uleb128 0x6
 2317 0072 793000   		.ascii	"y0\000"
 2318 0075 03       		.byte	0x3
 2319 0076 71       		.byte	0x71
ARM GAS  C:\Users\jaohe\AppData\Local\Temp\ccbQAV2C.s 			page 59


 2320 0077 57000000 		.4byte	0x57
 2321 007b 02       		.byte	0x2
 2322 007c 06       		.uleb128 0x6
 2323 007d 783100   		.ascii	"x1\000"
 2324 0080 03       		.byte	0x3
 2325 0081 71       		.byte	0x71
 2326 0082 57000000 		.4byte	0x57
 2327 0086 04       		.byte	0x4
 2328 0087 06       		.uleb128 0x6
 2329 0088 793100   		.ascii	"y1\000"
 2330 008b 03       		.byte	0x3
 2331 008c 71       		.byte	0x71
 2332 008d 57000000 		.4byte	0x57
 2333 0091 06       		.byte	0x6
 2334 0092 00       		.byte	0
 2335 0093 04       		.uleb128 0x4
 2336 0094 2C010000 		.4byte	.LASF6
 2337 0098 03       		.byte	0x3
 2338 0099 71       		.byte	0x71
 2339 009a 5E000000 		.4byte	0x5e
 2340 009e 05       		.uleb128 0x5
 2341 009f 0C       		.byte	0xc
 2342 00a0 03       		.byte	0x3
 2343 00a1 73       		.byte	0x73
 2344 00a2 CB000000 		.4byte	0xcb
 2345 00a6 07       		.uleb128 0x7
 2346 00a7 EA0D0000 		.4byte	.LASF7
 2347 00ab 03       		.byte	0x3
 2348 00ac 74       		.byte	0x74
 2349 00ad 33000000 		.4byte	0x33
 2350 00b1 00       		.byte	0
 2351 00b2 07       		.uleb128 0x7
 2352 00b3 5E010000 		.4byte	.LASF8
 2353 00b7 03       		.byte	0x3
 2354 00b8 75       		.byte	0x75
 2355 00b9 CB000000 		.4byte	0xcb
 2356 00bd 04       		.byte	0x4
 2357 00be 07       		.uleb128 0x7
 2358 00bf 47080000 		.4byte	.LASF9
 2359 00c3 03       		.byte	0x3
 2360 00c4 76       		.byte	0x76
 2361 00c5 D2000000 		.4byte	0xd2
 2362 00c9 08       		.byte	0x8
 2363 00ca 00       		.byte	0
 2364 00cb 02       		.uleb128 0x2
 2365 00cc 01       		.byte	0x1
 2366 00cd 08       		.byte	0x8
 2367 00ce 32040000 		.4byte	.LASF10
 2368 00d2 08       		.uleb128 0x8
 2369 00d3 04       		.byte	0x4
 2370 00d4 D8000000 		.4byte	0xd8
 2371 00d8 09       		.uleb128 0x9
 2372 00d9 45000000 		.4byte	0x45
 2373 00dd 04       		.uleb128 0x4
 2374 00de 360D0000 		.4byte	.LASF11
 2375 00e2 03       		.byte	0x3
 2376 00e3 77       		.byte	0x77
ARM GAS  C:\Users\jaohe\AppData\Local\Temp\ccbQAV2C.s 			page 60


 2377 00e4 9E000000 		.4byte	0x9e
 2378 00e8 02       		.uleb128 0x2
 2379 00e9 01       		.byte	0x1
 2380 00ea 08       		.byte	0x8
 2381 00eb D7030000 		.4byte	.LASF12
 2382 00ef 04       		.uleb128 0x4
 2383 00f0 0B0E0000 		.4byte	.LASF13
 2384 00f4 03       		.byte	0x3
 2385 00f5 88       		.byte	0x88
 2386 00f6 FA000000 		.4byte	0xfa
 2387 00fa 0A       		.uleb128 0xa
 2388 00fb 45000000 		.4byte	0x45
 2389 00ff 09010000 		.4byte	0x109
 2390 0103 0B       		.uleb128 0xb
 2391 0104 50000000 		.4byte	0x50
 2392 0108 00       		.byte	0
 2393 0109 04       		.uleb128 0x4
 2394 010a 4A010000 		.4byte	.LASF14
 2395 010e 03       		.byte	0x3
 2396 010f 89       		.byte	0x89
 2397 0110 14010000 		.4byte	0x114
 2398 0114 0A       		.uleb128 0xa
 2399 0115 50000000 		.4byte	0x50
 2400 0119 23010000 		.4byte	0x123
 2401 011d 0B       		.uleb128 0xb
 2402 011e 45000000 		.4byte	0x45
 2403 0122 00       		.byte	0
 2404 0123 04       		.uleb128 0x4
 2405 0124 73090000 		.4byte	.LASF15
 2406 0128 03       		.byte	0x3
 2407 0129 8A       		.byte	0x8a
 2408 012a 2E010000 		.4byte	0x12e
 2409 012e 0C       		.uleb128 0xc
 2410 012f 50000000 		.4byte	0x50
 2411 0133 04       		.uleb128 0x4
 2412 0134 11050000 		.4byte	.LASF16
 2413 0138 03       		.byte	0x3
 2414 0139 8C       		.byte	0x8c
 2415 013a 3E010000 		.4byte	0x13e
 2416 013e 0D       		.uleb128 0xd
 2417 013f 58010000 		.4byte	0x158
 2418 0143 0B       		.uleb128 0xb
 2419 0144 58010000 		.4byte	0x158
 2420 0148 0B       		.uleb128 0xb
 2421 0149 5A010000 		.4byte	0x15a
 2422 014d 0B       		.uleb128 0xb
 2423 014e 50000000 		.4byte	0x50
 2424 0152 0B       		.uleb128 0xb
 2425 0153 E8000000 		.4byte	0xe8
 2426 0157 00       		.byte	0
 2427 0158 0E       		.uleb128 0xe
 2428 0159 04       		.byte	0x4
 2429 015a 08       		.uleb128 0x8
 2430 015b 04       		.byte	0x4
 2431 015c 45000000 		.4byte	0x45
 2432 0160 04       		.uleb128 0x4
 2433 0161 CC090000 		.4byte	.LASF17
ARM GAS  C:\Users\jaohe\AppData\Local\Temp\ccbQAV2C.s 			page 61


 2434 0165 03       		.byte	0x3
 2435 0166 8D       		.byte	0x8d
 2436 0167 6B010000 		.4byte	0x16b
 2437 016b 0D       		.uleb128 0xd
 2438 016c 85010000 		.4byte	0x185
 2439 0170 0B       		.uleb128 0xb
 2440 0171 5A010000 		.4byte	0x15a
 2441 0175 0B       		.uleb128 0xb
 2442 0176 58010000 		.4byte	0x158
 2443 017a 0B       		.uleb128 0xb
 2444 017b 50000000 		.4byte	0x50
 2445 017f 0B       		.uleb128 0xb
 2446 0180 E8000000 		.4byte	0xe8
 2447 0184 00       		.byte	0
 2448 0185 05       		.uleb128 0x5
 2449 0186 18       		.byte	0x18
 2450 0187 03       		.byte	0x3
 2451 0188 93       		.byte	0x93
 2452 0189 D6010000 		.4byte	0x1d6
 2453 018d 07       		.uleb128 0x7
 2454 018e 00000000 		.4byte	.LASF18
 2455 0192 03       		.byte	0x3
 2456 0193 94       		.byte	0x94
 2457 0194 D6010000 		.4byte	0x1d6
 2458 0198 00       		.byte	0
 2459 0199 07       		.uleb128 0x7
 2460 019a A20C0000 		.4byte	.LASF19
 2461 019e 03       		.byte	0x3
 2462 019f 95       		.byte	0x95
 2463 01a0 DC010000 		.4byte	0x1dc
 2464 01a4 04       		.byte	0x4
 2465 01a5 07       		.uleb128 0x7
 2466 01a6 1C090000 		.4byte	.LASF20
 2467 01aa 03       		.byte	0x3
 2468 01ab 96       		.byte	0x96
 2469 01ac E2010000 		.4byte	0x1e2
 2470 01b0 08       		.byte	0x8
 2471 01b1 07       		.uleb128 0x7
 2472 01b2 73020000 		.4byte	.LASF21
 2473 01b6 03       		.byte	0x3
 2474 01b7 97       		.byte	0x97
 2475 01b8 33000000 		.4byte	0x33
 2476 01bc 0C       		.byte	0xc
 2477 01bd 07       		.uleb128 0x7
 2478 01be 9E060000 		.4byte	.LASF22
 2479 01c2 03       		.byte	0x3
 2480 01c3 98       		.byte	0x98
 2481 01c4 E8010000 		.4byte	0x1e8
 2482 01c8 10       		.byte	0x10
 2483 01c9 07       		.uleb128 0x7
 2484 01ca 7C010000 		.4byte	.LASF23
 2485 01ce 03       		.byte	0x3
 2486 01cf 99       		.byte	0x99
 2487 01d0 EE010000 		.4byte	0x1ee
 2488 01d4 14       		.byte	0x14
 2489 01d5 00       		.byte	0
 2490 01d6 08       		.uleb128 0x8
ARM GAS  C:\Users\jaohe\AppData\Local\Temp\ccbQAV2C.s 			page 62


 2491 01d7 04       		.byte	0x4
 2492 01d8 09010000 		.4byte	0x109
 2493 01dc 08       		.uleb128 0x8
 2494 01dd 04       		.byte	0x4
 2495 01de EF000000 		.4byte	0xef
 2496 01e2 08       		.uleb128 0x8
 2497 01e3 04       		.byte	0x4
 2498 01e4 23010000 		.4byte	0x123
 2499 01e8 08       		.uleb128 0x8
 2500 01e9 04       		.byte	0x4
 2501 01ea 60010000 		.4byte	0x160
 2502 01ee 08       		.uleb128 0x8
 2503 01ef 04       		.byte	0x4
 2504 01f0 33010000 		.4byte	0x133
 2505 01f4 04       		.uleb128 0x4
 2506 01f5 660A0000 		.4byte	.LASF24
 2507 01f9 03       		.byte	0x3
 2508 01fa 9A       		.byte	0x9a
 2509 01fb 85010000 		.4byte	0x185
 2510 01ff 0D       		.uleb128 0xd
 2511 0200 0A020000 		.4byte	0x20a
 2512 0204 0B       		.uleb128 0xb
 2513 0205 0A020000 		.4byte	0x20a
 2514 0209 00       		.byte	0
 2515 020a 08       		.uleb128 0x8
 2516 020b 04       		.byte	0x4
 2517 020c 93000000 		.4byte	0x93
 2518 0210 0F       		.uleb128 0xf
 2519 0211 02       		.uleb128 0x2
 2520 0212 04       		.byte	0x4
 2521 0213 05       		.byte	0x5
 2522 0214 99020000 		.4byte	.LASF25
 2523 0218 08       		.uleb128 0x8
 2524 0219 04       		.byte	0x4
 2525 021a 1E020000 		.4byte	0x21e
 2526 021e 09       		.uleb128 0x9
 2527 021f E8000000 		.4byte	0xe8
 2528 0223 08       		.uleb128 0x8
 2529 0224 04       		.byte	0x4
 2530 0225 29020000 		.4byte	0x229
 2531 0229 10       		.uleb128 0x10
 2532 022a 08       		.uleb128 0x8
 2533 022b 04       		.byte	0x4
 2534 022c 10020000 		.4byte	0x210
 2535 0230 11       		.uleb128 0x11
 2536 0231 63020000 		.4byte	.LASF26
 2537 0235 03       		.byte	0x3
 2538 0236 BF02     		.2byte	0x2bf
 2539 0238 3C020000 		.4byte	0x23c
 2540 023c 0D       		.uleb128 0xd
 2541 023d 74020000 		.4byte	0x274
 2542 0241 0B       		.uleb128 0xb
 2543 0242 33000000 		.4byte	0x33
 2544 0246 0B       		.uleb128 0xb
 2545 0247 33000000 		.4byte	0x33
 2546 024b 0B       		.uleb128 0xb
 2547 024c 33000000 		.4byte	0x33
ARM GAS  C:\Users\jaohe\AppData\Local\Temp\ccbQAV2C.s 			page 63


 2548 0250 0B       		.uleb128 0xb
 2549 0251 33000000 		.4byte	0x33
 2550 0255 0B       		.uleb128 0xb
 2551 0256 33000000 		.4byte	0x33
 2552 025a 0B       		.uleb128 0xb
 2553 025b 33000000 		.4byte	0x33
 2554 025f 0B       		.uleb128 0xb
 2555 0260 33000000 		.4byte	0x33
 2556 0264 0B       		.uleb128 0xb
 2557 0265 33000000 		.4byte	0x33
 2558 0269 0B       		.uleb128 0xb
 2559 026a 18020000 		.4byte	0x218
 2560 026e 0B       		.uleb128 0xb
 2561 026f 23020000 		.4byte	0x223
 2562 0273 00       		.byte	0
 2563 0274 11       		.uleb128 0x11
 2564 0275 00010000 		.4byte	.LASF27
 2565 0279 03       		.byte	0x3
 2566 027a C202     		.2byte	0x2c2
 2567 027c FF010000 		.4byte	0x1ff
 2568 0280 12       		.uleb128 0x12
 2569 0281 F10A0000 		.4byte	.LASF59
 2570 0285 0C       		.byte	0xc
 2571 0286 03       		.byte	0x3
 2572 0287 C402     		.2byte	0x2c4
 2573 0289 B5020000 		.4byte	0x2b5
 2574 028d 13       		.uleb128 0x13
 2575 028e D2070000 		.4byte	.LASF28
 2576 0292 03       		.byte	0x3
 2577 0293 C502     		.2byte	0x2c5
 2578 0295 B5020000 		.4byte	0x2b5
 2579 0299 00       		.byte	0
 2580 029a 13       		.uleb128 0x13
 2581 029b FA090000 		.4byte	.LASF29
 2582 029f 03       		.byte	0x3
 2583 02a0 C602     		.2byte	0x2c6
 2584 02a2 BB020000 		.4byte	0x2bb
 2585 02a6 04       		.byte	0x4
 2586 02a7 13       		.uleb128 0x13
 2587 02a8 63090000 		.4byte	.LASF30
 2588 02ac 03       		.byte	0x3
 2589 02ad C702     		.2byte	0x2c7
 2590 02af BB020000 		.4byte	0x2bb
 2591 02b3 08       		.byte	0x8
 2592 02b4 00       		.byte	0
 2593 02b5 08       		.uleb128 0x8
 2594 02b6 04       		.byte	0x4
 2595 02b7 30020000 		.4byte	0x230
 2596 02bb 08       		.uleb128 0x8
 2597 02bc 04       		.byte	0x4
 2598 02bd 74020000 		.4byte	0x274
 2599 02c1 11       		.uleb128 0x11
 2600 02c2 EC050000 		.4byte	.LASF31
 2601 02c6 03       		.byte	0x3
 2602 02c7 CA02     		.2byte	0x2ca
 2603 02c9 80020000 		.4byte	0x280
 2604 02cd 08       		.uleb128 0x8
ARM GAS  C:\Users\jaohe\AppData\Local\Temp\ccbQAV2C.s 			page 64


 2605 02ce 04       		.byte	0x4
 2606 02cf D3020000 		.4byte	0x2d3
 2607 02d3 09       		.uleb128 0x9
 2608 02d4 CB000000 		.4byte	0xcb
 2609 02d8 04       		.uleb128 0x4
 2610 02d9 5F040000 		.4byte	.LASF32
 2611 02dd 04       		.byte	0x4
 2612 02de 3D       		.byte	0x3d
 2613 02df 45000000 		.4byte	0x45
 2614 02e3 04       		.uleb128 0x4
 2615 02e4 A8000000 		.4byte	.LASF33
 2616 02e8 04       		.byte	0x4
 2617 02e9 3E       		.byte	0x3e
 2618 02ea DD000000 		.4byte	0xdd
 2619 02ee 04       		.uleb128 0x4
 2620 02ef 2F070000 		.4byte	.LASF34
 2621 02f3 04       		.byte	0x4
 2622 02f4 40       		.byte	0x40
 2623 02f5 93000000 		.4byte	0x93
 2624 02f9 05       		.uleb128 0x5
 2625 02fa 10       		.byte	0x10
 2626 02fb 04       		.byte	0x4
 2627 02fc 42       		.byte	0x42
 2628 02fd 32030000 		.4byte	0x332
 2629 0301 07       		.uleb128 0x7
 2630 0302 12030000 		.4byte	.LASF35
 2631 0306 04       		.byte	0x4
 2632 0307 43       		.byte	0x43
 2633 0308 6B030000 		.4byte	0x36b
 2634 030c 00       		.byte	0
 2635 030d 07       		.uleb128 0x7
 2636 030e A20C0000 		.4byte	.LASF19
 2637 0312 04       		.byte	0x4
 2638 0313 4B       		.byte	0x4b
 2639 0314 80030000 		.4byte	0x380
 2640 0318 04       		.byte	0x4
 2641 0319 07       		.uleb128 0x7
 2642 031a D50B0000 		.4byte	.LASF36
 2643 031e 04       		.byte	0x4
 2644 031f 4C       		.byte	0x4c
 2645 0320 6B030000 		.4byte	0x36b
 2646 0324 08       		.byte	0x8
 2647 0325 07       		.uleb128 0x7
 2648 0326 8B020000 		.4byte	.LASF37
 2649 032a 04       		.byte	0x4
 2650 032b 54       		.byte	0x54
 2651 032c 86030000 		.4byte	0x386
 2652 0330 0C       		.byte	0xc
 2653 0331 00       		.byte	0
 2654 0332 0D       		.uleb128 0xd
 2655 0333 60030000 		.4byte	0x360
 2656 0337 0B       		.uleb128 0xb
 2657 0338 33000000 		.4byte	0x33
 2658 033c 0B       		.uleb128 0xb
 2659 033d 33000000 		.4byte	0x33
 2660 0341 0B       		.uleb128 0xb
 2661 0342 33000000 		.4byte	0x33
ARM GAS  C:\Users\jaohe\AppData\Local\Temp\ccbQAV2C.s 			page 65


 2662 0346 0B       		.uleb128 0xb
 2663 0347 33000000 		.4byte	0x33
 2664 034b 0B       		.uleb128 0xb
 2665 034c 18020000 		.4byte	0x218
 2666 0350 0B       		.uleb128 0xb
 2667 0351 60030000 		.4byte	0x360
 2668 0355 0B       		.uleb128 0xb
 2669 0356 33000000 		.4byte	0x33
 2670 035a 0B       		.uleb128 0xb
 2671 035b 33000000 		.4byte	0x33
 2672 035f 00       		.byte	0
 2673 0360 08       		.uleb128 0x8
 2674 0361 04       		.byte	0x4
 2675 0362 66030000 		.4byte	0x366
 2676 0366 09       		.uleb128 0x9
 2677 0367 DD000000 		.4byte	0xdd
 2678 036b 08       		.uleb128 0x8
 2679 036c 04       		.byte	0x4
 2680 036d 32030000 		.4byte	0x332
 2681 0371 0A       		.uleb128 0xa
 2682 0372 D8020000 		.4byte	0x2d8
 2683 0376 80030000 		.4byte	0x380
 2684 037a 0B       		.uleb128 0xb
 2685 037b 50000000 		.4byte	0x50
 2686 037f 00       		.byte	0
 2687 0380 08       		.uleb128 0x8
 2688 0381 04       		.byte	0x4
 2689 0382 71030000 		.4byte	0x371
 2690 0386 08       		.uleb128 0x8
 2691 0387 04       		.byte	0x4
 2692 0388 8C030000 		.4byte	0x38c
 2693 038c 09       		.uleb128 0x9
 2694 038d F4010000 		.4byte	0x1f4
 2695 0391 04       		.uleb128 0x4
 2696 0392 4A0C0000 		.4byte	.LASF38
 2697 0396 04       		.byte	0x4
 2698 0397 55       		.byte	0x55
 2699 0398 F9020000 		.4byte	0x2f9
 2700 039c 05       		.uleb128 0x5
 2701 039d 14       		.byte	0x14
 2702 039e 04       		.byte	0x4
 2703 039f 57       		.byte	0x57
 2704 03a0 F9030000 		.4byte	0x3f9
 2705 03a4 07       		.uleb128 0x7
 2706 03a5 44010000 		.4byte	.LASF39
 2707 03a9 04       		.byte	0x4
 2708 03aa 58       		.byte	0x58
 2709 03ab F9030000 		.4byte	0x3f9
 2710 03af 00       		.byte	0
 2711 03b0 07       		.uleb128 0x7
 2712 03b1 970C0000 		.4byte	.LASF40
 2713 03b5 04       		.byte	0x4
 2714 03b6 59       		.byte	0x59
 2715 03b7 F9030000 		.4byte	0x3f9
 2716 03bb 02       		.byte	0x2
 2717 03bc 07       		.uleb128 0x7
 2718 03bd 290D0000 		.4byte	.LASF41
ARM GAS  C:\Users\jaohe\AppData\Local\Temp\ccbQAV2C.s 			page 66


 2719 03c1 04       		.byte	0x4
 2720 03c2 5A       		.byte	0x5a
 2721 03c3 F9030000 		.4byte	0x3f9
 2722 03c7 04       		.byte	0x4
 2723 03c8 07       		.uleb128 0x7
 2724 03c9 22070000 		.4byte	.LASF42
 2725 03cd 04       		.byte	0x4
 2726 03ce 5B       		.byte	0x5b
 2727 03cf F9030000 		.4byte	0x3f9
 2728 03d3 06       		.byte	0x6
 2729 03d4 07       		.uleb128 0x7
 2730 03d5 7D0D0000 		.4byte	.LASF43
 2731 03d9 04       		.byte	0x4
 2732 03da 5C       		.byte	0x5c
 2733 03db 18020000 		.4byte	0x218
 2734 03df 08       		.byte	0x8
 2735 03e0 07       		.uleb128 0x7
 2736 03e1 E50D0000 		.4byte	.LASF44
 2737 03e5 04       		.byte	0x4
 2738 03e6 5D       		.byte	0x5d
 2739 03e7 00040000 		.4byte	0x400
 2740 03eb 0C       		.byte	0xc
 2741 03ec 07       		.uleb128 0x7
 2742 03ed 3B010000 		.4byte	.LASF45
 2743 03f1 04       		.byte	0x4
 2744 03f2 5E       		.byte	0x5e
 2745 03f3 0B040000 		.4byte	0x40b
 2746 03f7 10       		.byte	0x10
 2747 03f8 00       		.byte	0
 2748 03f9 02       		.uleb128 0x2
 2749 03fa 02       		.byte	0x2
 2750 03fb 07       		.byte	0x7
 2751 03fc D10C0000 		.4byte	.LASF46
 2752 0400 08       		.uleb128 0x8
 2753 0401 04       		.byte	0x4
 2754 0402 06040000 		.4byte	0x406
 2755 0406 09       		.uleb128 0x9
 2756 0407 E3020000 		.4byte	0x2e3
 2757 040b 08       		.uleb128 0x8
 2758 040c 04       		.byte	0x4
 2759 040d 11040000 		.4byte	0x411
 2760 0411 09       		.uleb128 0x9
 2761 0412 91030000 		.4byte	0x391
 2762 0416 04       		.uleb128 0x4
 2763 0417 5E0D0000 		.4byte	.LASF47
 2764 041b 04       		.byte	0x4
 2765 041c 5F       		.byte	0x5f
 2766 041d 9C030000 		.4byte	0x39c
 2767 0421 05       		.uleb128 0x5
 2768 0422 04       		.byte	0x4
 2769 0423 04       		.byte	0x4
 2770 0424 B6       		.byte	0xb6
 2771 0425 40040000 		.4byte	0x440
 2772 0429 06       		.uleb128 0x6
 2773 042a 633000   		.ascii	"c0\000"
 2774 042d 04       		.byte	0x4
 2775 042e B7       		.byte	0xb7
ARM GAS  C:\Users\jaohe\AppData\Local\Temp\ccbQAV2C.s 			page 67


 2776 042f 57000000 		.4byte	0x57
 2777 0433 00       		.byte	0
 2778 0434 06       		.uleb128 0x6
 2779 0435 633100   		.ascii	"c1\000"
 2780 0438 04       		.byte	0x4
 2781 0439 B8       		.byte	0xb8
 2782 043a 57000000 		.4byte	0x57
 2783 043e 02       		.byte	0x2
 2784 043f 00       		.byte	0
 2785 0440 04       		.uleb128 0x4
 2786 0441 D6040000 		.4byte	.LASF48
 2787 0445 04       		.byte	0x4
 2788 0446 B9       		.byte	0xb9
 2789 0447 21040000 		.4byte	0x421
 2790 044b 05       		.uleb128 0x5
 2791 044c 08       		.byte	0x8
 2792 044d 04       		.byte	0x4
 2793 044e BB       		.byte	0xbb
 2794 044f 78040000 		.4byte	0x478
 2795 0453 07       		.uleb128 0x7
 2796 0454 96040000 		.4byte	.LASF49
 2797 0458 04       		.byte	0x4
 2798 0459 BC       		.byte	0xbc
 2799 045a F9030000 		.4byte	0x3f9
 2800 045e 00       		.byte	0
 2801 045f 07       		.uleb128 0x7
 2802 0460 B90C0000 		.4byte	.LASF50
 2803 0464 04       		.byte	0x4
 2804 0465 BD       		.byte	0xbd
 2805 0466 F9030000 		.4byte	0x3f9
 2806 046a 02       		.byte	0x2
 2807 046b 07       		.uleb128 0x7
 2808 046c 53080000 		.4byte	.LASF51
 2809 0470 04       		.byte	0x4
 2810 0471 BE       		.byte	0xbe
 2811 0472 78040000 		.4byte	0x478
 2812 0476 04       		.byte	0x4
 2813 0477 00       		.byte	0
 2814 0478 08       		.uleb128 0x8
 2815 0479 04       		.byte	0x4
 2816 047a 7E040000 		.4byte	0x47e
 2817 047e 09       		.uleb128 0x9
 2818 047f 40040000 		.4byte	0x440
 2819 0483 04       		.uleb128 0x4
 2820 0484 8A050000 		.4byte	.LASF52
 2821 0488 04       		.byte	0x4
 2822 0489 BF       		.byte	0xbf
 2823 048a 4B040000 		.4byte	0x44b
 2824 048e 05       		.uleb128 0x5
 2825 048f 08       		.byte	0x8
 2826 0490 04       		.byte	0x4
 2827 0491 C1       		.byte	0xc1
 2828 0492 C7040000 		.4byte	0x4c7
 2829 0496 07       		.uleb128 0x7
 2830 0497 44010000 		.4byte	.LASF39
 2831 049b 04       		.byte	0x4
 2832 049c C2       		.byte	0xc2
ARM GAS  C:\Users\jaohe\AppData\Local\Temp\ccbQAV2C.s 			page 68


 2833 049d E8000000 		.4byte	0xe8
 2834 04a1 00       		.byte	0
 2835 04a2 07       		.uleb128 0x7
 2836 04a3 37040000 		.4byte	.LASF53
 2837 04a7 04       		.byte	0x4
 2838 04a8 C3       		.byte	0xc3
 2839 04a9 E8000000 		.4byte	0xe8
 2840 04ad 01       		.byte	0x1
 2841 04ae 07       		.uleb128 0x7
 2842 04af 290D0000 		.4byte	.LASF41
 2843 04b3 04       		.byte	0x4
 2844 04b4 C4       		.byte	0xc4
 2845 04b5 E8000000 		.4byte	0xe8
 2846 04b9 02       		.byte	0x2
 2847 04ba 07       		.uleb128 0x7
 2848 04bb 7D0D0000 		.4byte	.LASF43
 2849 04bf 04       		.byte	0x4
 2850 04c0 C5       		.byte	0xc5
 2851 04c1 18020000 		.4byte	0x218
 2852 04c5 04       		.byte	0x4
 2853 04c6 00       		.byte	0
 2854 04c7 04       		.uleb128 0x4
 2855 04c8 10060000 		.4byte	.LASF54
 2856 04cc 04       		.byte	0x4
 2857 04cd C6       		.byte	0xc6
 2858 04ce 8E040000 		.4byte	0x48e
 2859 04d2 05       		.uleb128 0x5
 2860 04d3 0C       		.byte	0xc
 2861 04d4 04       		.byte	0x4
 2862 04d5 C8       		.byte	0xc8
 2863 04d6 23050000 		.4byte	0x523
 2864 04da 07       		.uleb128 0x7
 2865 04db 44010000 		.4byte	.LASF39
 2866 04df 04       		.byte	0x4
 2867 04e0 C9       		.byte	0xc9
 2868 04e1 E8000000 		.4byte	0xe8
 2869 04e5 00       		.byte	0
 2870 04e6 07       		.uleb128 0x7
 2871 04e7 970C0000 		.4byte	.LASF40
 2872 04eb 04       		.byte	0x4
 2873 04ec CA       		.byte	0xca
 2874 04ed E8000000 		.4byte	0xe8
 2875 04f1 01       		.byte	0x1
 2876 04f2 07       		.uleb128 0x7
 2877 04f3 D1040000 		.4byte	.LASF55
 2878 04f7 04       		.byte	0x4
 2879 04f8 CB       		.byte	0xcb
 2880 04f9 23050000 		.4byte	0x523
 2881 04fd 02       		.byte	0x2
 2882 04fe 07       		.uleb128 0x7
 2883 04ff 700B0000 		.4byte	.LASF56
 2884 0503 04       		.byte	0x4
 2885 0504 CC       		.byte	0xcc
 2886 0505 23050000 		.4byte	0x523
 2887 0509 03       		.byte	0x3
 2888 050a 07       		.uleb128 0x7
 2889 050b 37040000 		.4byte	.LASF53
ARM GAS  C:\Users\jaohe\AppData\Local\Temp\ccbQAV2C.s 			page 69


 2890 050f 04       		.byte	0x4
 2891 0510 CD       		.byte	0xcd
 2892 0511 E8000000 		.4byte	0xe8
 2893 0515 04       		.byte	0x4
 2894 0516 07       		.uleb128 0x7
 2895 0517 7D0D0000 		.4byte	.LASF43
 2896 051b 04       		.byte	0x4
 2897 051c CE       		.byte	0xce
 2898 051d 18020000 		.4byte	0x218
 2899 0521 08       		.byte	0x8
 2900 0522 00       		.byte	0
 2901 0523 02       		.uleb128 0x2
 2902 0524 01       		.byte	0x1
 2903 0525 06       		.byte	0x6
 2904 0526 26030000 		.4byte	.LASF57
 2905 052a 04       		.uleb128 0x4
 2906 052b 43040000 		.4byte	.LASF58
 2907 052f 04       		.byte	0x4
 2908 0530 CF       		.byte	0xcf
 2909 0531 D2040000 		.4byte	0x4d2
 2910 0535 14       		.uleb128 0x14
 2911 0536 580A0000 		.4byte	.LASF60
 2912 053a 0C       		.byte	0xc
 2913 053b 04       		.byte	0x4
 2914 053c D1       		.byte	0xd1
 2915 053d 72050000 		.4byte	0x572
 2916 0541 07       		.uleb128 0x7
 2917 0542 F6070000 		.4byte	.LASF61
 2918 0546 04       		.byte	0x4
 2919 0547 D2       		.byte	0xd2
 2920 0548 F9030000 		.4byte	0x3f9
 2921 054c 00       		.byte	0
 2922 054d 07       		.uleb128 0x7
 2923 054e 590B0000 		.4byte	.LASF62
 2924 0552 04       		.byte	0x4
 2925 0553 D3       		.byte	0xd3
 2926 0554 F9030000 		.4byte	0x3f9
 2927 0558 02       		.byte	0x2
 2928 0559 07       		.uleb128 0x7
 2929 055a EE020000 		.4byte	.LASF63
 2930 055e 04       		.byte	0x4
 2931 055f D4       		.byte	0xd4
 2932 0560 72050000 		.4byte	0x572
 2933 0564 04       		.byte	0x4
 2934 0565 07       		.uleb128 0x7
 2935 0566 3D040000 		.4byte	.LASF64
 2936 056a 04       		.byte	0x4
 2937 056b D5       		.byte	0xd5
 2938 056c 7D050000 		.4byte	0x57d
 2939 0570 08       		.byte	0x8
 2940 0571 00       		.byte	0
 2941 0572 08       		.uleb128 0x8
 2942 0573 04       		.byte	0x4
 2943 0574 78050000 		.4byte	0x578
 2944 0578 09       		.uleb128 0x9
 2945 0579 C7040000 		.4byte	0x4c7
 2946 057d 08       		.uleb128 0x8
ARM GAS  C:\Users\jaohe\AppData\Local\Temp\ccbQAV2C.s 			page 70


 2947 057e 04       		.byte	0x4
 2948 057f 83050000 		.4byte	0x583
 2949 0583 09       		.uleb128 0x9
 2950 0584 35050000 		.4byte	0x535
 2951 0588 04       		.uleb128 0x4
 2952 0589 580A0000 		.4byte	.LASF60
 2953 058d 04       		.byte	0x4
 2954 058e D6       		.byte	0xd6
 2955 058f 35050000 		.4byte	0x535
 2956 0593 14       		.uleb128 0x14
 2957 0594 5C000000 		.4byte	.LASF65
 2958 0598 0C       		.byte	0xc
 2959 0599 04       		.byte	0x4
 2960 059a D8       		.byte	0xd8
 2961 059b D0050000 		.4byte	0x5d0
 2962 059f 07       		.uleb128 0x7
 2963 05a0 F6070000 		.4byte	.LASF61
 2964 05a4 04       		.byte	0x4
 2965 05a5 D9       		.byte	0xd9
 2966 05a6 F9030000 		.4byte	0x3f9
 2967 05aa 00       		.byte	0
 2968 05ab 07       		.uleb128 0x7
 2969 05ac 590B0000 		.4byte	.LASF62
 2970 05b0 04       		.byte	0x4
 2971 05b1 DA       		.byte	0xda
 2972 05b2 F9030000 		.4byte	0x3f9
 2973 05b6 02       		.byte	0x2
 2974 05b7 07       		.uleb128 0x7
 2975 05b8 EE020000 		.4byte	.LASF63
 2976 05bc 04       		.byte	0x4
 2977 05bd DB       		.byte	0xdb
 2978 05be D0050000 		.4byte	0x5d0
 2979 05c2 04       		.byte	0x4
 2980 05c3 07       		.uleb128 0x7
 2981 05c4 3D040000 		.4byte	.LASF64
 2982 05c8 04       		.byte	0x4
 2983 05c9 DC       		.byte	0xdc
 2984 05ca DB050000 		.4byte	0x5db
 2985 05ce 08       		.byte	0x8
 2986 05cf 00       		.byte	0
 2987 05d0 08       		.uleb128 0x8
 2988 05d1 04       		.byte	0x4
 2989 05d2 D6050000 		.4byte	0x5d6
 2990 05d6 09       		.uleb128 0x9
 2991 05d7 2A050000 		.4byte	0x52a
 2992 05db 08       		.uleb128 0x8
 2993 05dc 04       		.byte	0x4
 2994 05dd E1050000 		.4byte	0x5e1
 2995 05e1 09       		.uleb128 0x9
 2996 05e2 93050000 		.4byte	0x593
 2997 05e6 04       		.uleb128 0x4
 2998 05e7 5C000000 		.4byte	.LASF65
 2999 05eb 04       		.byte	0x4
 3000 05ec DD       		.byte	0xdd
 3001 05ed 93050000 		.4byte	0x593
 3002 05f1 05       		.uleb128 0x5
 3003 05f2 14       		.byte	0x14
ARM GAS  C:\Users\jaohe\AppData\Local\Temp\ccbQAV2C.s 			page 71


 3004 05f3 04       		.byte	0x4
 3005 05f4 DF       		.byte	0xdf
 3006 05f5 5A060000 		.4byte	0x65a
 3007 05f9 07       		.uleb128 0x7
 3008 05fa 7D0D0000 		.4byte	.LASF43
 3009 05fe 04       		.byte	0x4
 3010 05ff E0       		.byte	0xe0
 3011 0600 18020000 		.4byte	0x218
 3012 0604 00       		.byte	0
 3013 0605 07       		.uleb128 0x7
 3014 0606 E40C0000 		.4byte	.LASF66
 3015 060a 04       		.byte	0x4
 3016 060b E1       		.byte	0xe1
 3017 060c 18020000 		.4byte	0x218
 3018 0610 04       		.byte	0x4
 3019 0611 07       		.uleb128 0x7
 3020 0612 460A0000 		.4byte	.LASF67
 3021 0616 04       		.byte	0x4
 3022 0617 E2       		.byte	0xe2
 3023 0618 5A060000 		.4byte	0x65a
 3024 061c 08       		.byte	0x8
 3025 061d 07       		.uleb128 0x7
 3026 061e 96040000 		.4byte	.LASF49
 3027 0622 04       		.byte	0x4
 3028 0623 E3       		.byte	0xe3
 3029 0624 F9030000 		.4byte	0x3f9
 3030 0628 0C       		.byte	0xc
 3031 0629 07       		.uleb128 0x7
 3032 062a B90C0000 		.4byte	.LASF50
 3033 062e 04       		.byte	0x4
 3034 062f E4       		.byte	0xe4
 3035 0630 F9030000 		.4byte	0x3f9
 3036 0634 0E       		.byte	0xe
 3037 0635 07       		.uleb128 0x7
 3038 0636 44010000 		.4byte	.LASF39
 3039 063a 04       		.byte	0x4
 3040 063b E5       		.byte	0xe5
 3041 063c E8000000 		.4byte	0xe8
 3042 0640 10       		.byte	0x10
 3043 0641 07       		.uleb128 0x7
 3044 0642 37040000 		.4byte	.LASF53
 3045 0646 04       		.byte	0x4
 3046 0647 E6       		.byte	0xe6
 3047 0648 E8000000 		.4byte	0xe8
 3048 064c 11       		.byte	0x11
 3049 064d 07       		.uleb128 0x7
 3050 064e 290D0000 		.4byte	.LASF41
 3051 0652 04       		.byte	0x4
 3052 0653 E7       		.byte	0xe7
 3053 0654 E8000000 		.4byte	0xe8
 3054 0658 12       		.byte	0x12
 3055 0659 00       		.byte	0
 3056 065a 08       		.uleb128 0x8
 3057 065b 04       		.byte	0x4
 3058 065c 60060000 		.4byte	0x660
 3059 0660 09       		.uleb128 0x9
 3060 0661 83040000 		.4byte	0x483
ARM GAS  C:\Users\jaohe\AppData\Local\Temp\ccbQAV2C.s 			page 72


 3061 0665 04       		.uleb128 0x4
 3062 0666 39080000 		.4byte	.LASF68
 3063 066a 04       		.byte	0x4
 3064 066b E8       		.byte	0xe8
 3065 066c F1050000 		.4byte	0x5f1
 3066 0670 05       		.uleb128 0x5
 3067 0671 06       		.byte	0x6
 3068 0672 04       		.byte	0x4
 3069 0673 F1       		.byte	0xf1
 3070 0674 A9060000 		.4byte	0x6a9
 3071 0678 07       		.uleb128 0x7
 3072 0679 2C040000 		.4byte	.LASF69
 3073 067d 04       		.byte	0x4
 3074 067e F2       		.byte	0xf2
 3075 067f F9030000 		.4byte	0x3f9
 3076 0683 00       		.byte	0
 3077 0684 07       		.uleb128 0x7
 3078 0685 2D0C0000 		.4byte	.LASF70
 3079 0689 04       		.byte	0x4
 3080 068a F3       		.byte	0xf3
 3081 068b E8000000 		.4byte	0xe8
 3082 068f 02       		.byte	0x2
 3083 0690 07       		.uleb128 0x7
 3084 0691 03040000 		.4byte	.LASF71
 3085 0695 04       		.byte	0x4
 3086 0696 F4       		.byte	0xf4
 3087 0697 E8000000 		.4byte	0xe8
 3088 069b 03       		.byte	0x3
 3089 069c 07       		.uleb128 0x7
 3090 069d E40A0000 		.4byte	.LASF72
 3091 06a1 04       		.byte	0x4
 3092 06a2 F5       		.byte	0xf5
 3093 06a3 E8000000 		.4byte	0xe8
 3094 06a7 04       		.byte	0x4
 3095 06a8 00       		.byte	0
 3096 06a9 04       		.uleb128 0x4
 3097 06aa 38090000 		.4byte	.LASF73
 3098 06ae 04       		.byte	0x4
 3099 06af F6       		.byte	0xf6
 3100 06b0 70060000 		.4byte	0x670
 3101 06b4 08       		.uleb128 0x8
 3102 06b5 04       		.byte	0x4
 3103 06b6 CB000000 		.4byte	0xcb
 3104 06ba 11       		.uleb128 0x11
 3105 06bb FC070000 		.4byte	.LASF74
 3106 06bf 04       		.byte	0x4
 3107 06c0 1301     		.2byte	0x113
 3108 06c2 C6060000 		.4byte	0x6c6
 3109 06c6 0A       		.uleb128 0xa
 3110 06c7 33000000 		.4byte	0x33
 3111 06cb DA060000 		.4byte	0x6da
 3112 06cf 0B       		.uleb128 0xb
 3113 06d0 CD020000 		.4byte	0x2cd
 3114 06d4 0B       		.uleb128 0xb
 3115 06d5 33000000 		.4byte	0x33
 3116 06d9 00       		.byte	0
 3117 06da 11       		.uleb128 0x11
ARM GAS  C:\Users\jaohe\AppData\Local\Temp\ccbQAV2C.s 			page 73


 3118 06db 83060000 		.4byte	.LASF75
 3119 06df 04       		.byte	0x4
 3120 06e0 1401     		.2byte	0x114
 3121 06e2 C6060000 		.4byte	0x6c6
 3122 06e6 11       		.uleb128 0x11
 3123 06e7 64080000 		.4byte	.LASF76
 3124 06eb 04       		.byte	0x4
 3125 06ec 1501     		.2byte	0x115
 3126 06ee F2060000 		.4byte	0x6f2
 3127 06f2 0D       		.uleb128 0xd
 3128 06f3 02070000 		.4byte	0x702
 3129 06f7 0B       		.uleb128 0xb
 3130 06f8 CD020000 		.4byte	0x2cd
 3131 06fc 0B       		.uleb128 0xb
 3132 06fd 33000000 		.4byte	0x33
 3133 0701 00       		.byte	0
 3134 0702 15       		.uleb128 0x15
 3135 0703 0C       		.byte	0xc
 3136 0704 04       		.byte	0x4
 3137 0705 1701     		.2byte	0x117
 3138 0707 33070000 		.4byte	0x733
 3139 070b 13       		.uleb128 0x13
 3140 070c DF020000 		.4byte	.LASF77
 3141 0710 04       		.byte	0x4
 3142 0711 1801     		.2byte	0x118
 3143 0713 33070000 		.4byte	0x733
 3144 0717 00       		.byte	0
 3145 0718 13       		.uleb128 0x13
 3146 0719 C00A0000 		.4byte	.LASF78
 3147 071d 04       		.byte	0x4
 3148 071e 1901     		.2byte	0x119
 3149 0720 39070000 		.4byte	0x739
 3150 0724 04       		.byte	0x4
 3151 0725 13       		.uleb128 0x13
 3152 0726 790A0000 		.4byte	.LASF79
 3153 072a 04       		.byte	0x4
 3154 072b 1A01     		.2byte	0x11a
 3155 072d 3F070000 		.4byte	0x73f
 3156 0731 08       		.byte	0x8
 3157 0732 00       		.byte	0
 3158 0733 08       		.uleb128 0x8
 3159 0734 04       		.byte	0x4
 3160 0735 BA060000 		.4byte	0x6ba
 3161 0739 08       		.uleb128 0x8
 3162 073a 04       		.byte	0x4
 3163 073b DA060000 		.4byte	0x6da
 3164 073f 08       		.uleb128 0x8
 3165 0740 04       		.byte	0x4
 3166 0741 E6060000 		.4byte	0x6e6
 3167 0745 11       		.uleb128 0x11
 3168 0746 150B0000 		.4byte	.LASF80
 3169 074a 04       		.byte	0x4
 3170 074b 1B01     		.2byte	0x11b
 3171 074d 02070000 		.4byte	0x702
 3172 0751 11       		.uleb128 0x11
 3173 0752 500B0000 		.4byte	.LASF81
 3174 0756 04       		.byte	0x4
ARM GAS  C:\Users\jaohe\AppData\Local\Temp\ccbQAV2C.s 			page 74


 3175 0757 2401     		.2byte	0x124
 3176 0759 5D070000 		.4byte	0x75d
 3177 075d 12       		.uleb128 0x12
 3178 075e 500B0000 		.4byte	.LASF81
 3179 0762 24       		.byte	0x24
 3180 0763 04       		.byte	0x4
 3181 0764 B101     		.2byte	0x1b1
 3182 0766 1F080000 		.4byte	0x81f
 3183 076a 13       		.uleb128 0x13
 3184 076b 1F080000 		.4byte	.LASF82
 3185 076f 04       		.byte	0x4
 3186 0770 B201     		.2byte	0x1b2
 3187 0772 2A090000 		.4byte	0x92a
 3188 0776 00       		.byte	0
 3189 0777 13       		.uleb128 0x13
 3190 0778 1E0C0000 		.4byte	.LASF83
 3191 077c 04       		.byte	0x4
 3192 077d B301     		.2byte	0x1b3
 3193 077f 30090000 		.4byte	0x930
 3194 0783 04       		.byte	0x4
 3195 0784 13       		.uleb128 0x13
 3196 0785 0F010000 		.4byte	.LASF84
 3197 0789 04       		.byte	0x4
 3198 078a B401     		.2byte	0x1b4
 3199 078c 36090000 		.4byte	0x936
 3200 0790 08       		.byte	0x8
 3201 0791 13       		.uleb128 0x13
 3202 0792 F9020000 		.4byte	.LASF85
 3203 0796 04       		.byte	0x4
 3204 0797 B501     		.2byte	0x1b5
 3205 0799 3C090000 		.4byte	0x93c
 3206 079d 0C       		.byte	0xc
 3207 079e 13       		.uleb128 0x13
 3208 079f E5060000 		.4byte	.LASF86
 3209 07a3 04       		.byte	0x4
 3210 07a4 B601     		.2byte	0x1b6
 3211 07a6 42090000 		.4byte	0x942
 3212 07aa 10       		.byte	0x10
 3213 07ab 13       		.uleb128 0x13
 3214 07ac 4C000000 		.4byte	.LASF87
 3215 07b0 04       		.byte	0x4
 3216 07b1 B701     		.2byte	0x1b7
 3217 07b3 48090000 		.4byte	0x948
 3218 07b7 14       		.byte	0x14
 3219 07b8 13       		.uleb128 0x13
 3220 07b9 970C0000 		.4byte	.LASF40
 3221 07bd 04       		.byte	0x4
 3222 07be B801     		.2byte	0x1b8
 3223 07c0 E8000000 		.4byte	0xe8
 3224 07c4 18       		.byte	0x18
 3225 07c5 13       		.uleb128 0x13
 3226 07c6 3C020000 		.4byte	.LASF88
 3227 07ca 04       		.byte	0x4
 3228 07cb B901     		.2byte	0x1b9
 3229 07cd E8000000 		.4byte	0xe8
 3230 07d1 19       		.byte	0x19
 3231 07d2 13       		.uleb128 0x13
ARM GAS  C:\Users\jaohe\AppData\Local\Temp\ccbQAV2C.s 			page 75


 3232 07d3 27040000 		.4byte	.LASF89
 3233 07d7 04       		.byte	0x4
 3234 07d8 BA01     		.2byte	0x1ba
 3235 07da E8000000 		.4byte	0xe8
 3236 07de 1A       		.byte	0x1a
 3237 07df 13       		.uleb128 0x13
 3238 07e0 A60A0000 		.4byte	.LASF90
 3239 07e4 04       		.byte	0x4
 3240 07e5 BB01     		.2byte	0x1bb
 3241 07e7 E8000000 		.4byte	0xe8
 3242 07eb 1B       		.byte	0x1b
 3243 07ec 16       		.uleb128 0x16
 3244 07ed 7000     		.ascii	"p\000"
 3245 07ef 04       		.byte	0x4
 3246 07f0 C101     		.2byte	0x1c1
 3247 07f2 CF080000 		.4byte	0x8cf
 3248 07f6 1C       		.byte	0x1c
 3249 07f7 13       		.uleb128 0x13
 3250 07f8 2D0C0000 		.4byte	.LASF70
 3251 07fc 04       		.byte	0x4
 3252 07fd C201     		.2byte	0x1c2
 3253 07ff E8000000 		.4byte	0xe8
 3254 0803 20       		.byte	0x20
 3255 0804 13       		.uleb128 0x13
 3256 0805 03040000 		.4byte	.LASF71
 3257 0809 04       		.byte	0x4
 3258 080a C301     		.2byte	0x1c3
 3259 080c E8000000 		.4byte	0xe8
 3260 0810 21       		.byte	0x21
 3261 0811 13       		.uleb128 0x13
 3262 0812 E40A0000 		.4byte	.LASF72
 3263 0816 04       		.byte	0x4
 3264 0817 C401     		.2byte	0x1c4
 3265 0819 E8000000 		.4byte	0xe8
 3266 081d 22       		.byte	0x22
 3267 081e 00       		.byte	0
 3268 081f 11       		.uleb128 0x11
 3269 0820 0A0A0000 		.4byte	.LASF91
 3270 0824 04       		.byte	0x4
 3271 0825 2601     		.2byte	0x126
 3272 0827 2B080000 		.4byte	0x82b
 3273 082b 0D       		.uleb128 0xd
 3274 082c 36080000 		.4byte	0x836
 3275 0830 0B       		.uleb128 0xb
 3276 0831 F9030000 		.4byte	0x3f9
 3277 0835 00       		.byte	0
 3278 0836 11       		.uleb128 0x11
 3279 0837 73050000 		.4byte	.LASF92
 3280 083b 04       		.byte	0x4
 3281 083c 2701     		.2byte	0x127
 3282 083e 42080000 		.4byte	0x842
 3283 0842 0A       		.uleb128 0xa
 3284 0843 33000000 		.4byte	0x33
 3285 0847 56080000 		.4byte	0x856
 3286 084b 0B       		.uleb128 0xb
 3287 084c F9030000 		.4byte	0x3f9
 3288 0850 0B       		.uleb128 0xb
ARM GAS  C:\Users\jaohe\AppData\Local\Temp\ccbQAV2C.s 			page 76


 3289 0851 56080000 		.4byte	0x856
 3290 0855 00       		.byte	0
 3291 0856 08       		.uleb128 0x8
 3292 0857 04       		.byte	0x4
 3293 0858 33000000 		.4byte	0x33
 3294 085c 11       		.uleb128 0x11
 3295 085d C1040000 		.4byte	.LASF93
 3296 0861 04       		.byte	0x4
 3297 0862 2801     		.2byte	0x128
 3298 0864 68080000 		.4byte	0x868
 3299 0868 0D       		.uleb128 0xd
 3300 0869 78080000 		.4byte	0x878
 3301 086d 0B       		.uleb128 0xb
 3302 086e 78080000 		.4byte	0x878
 3303 0872 0B       		.uleb128 0xb
 3304 0873 83080000 		.4byte	0x883
 3305 0877 00       		.byte	0
 3306 0878 08       		.uleb128 0x8
 3307 0879 04       		.byte	0x4
 3308 087a 7E080000 		.4byte	0x87e
 3309 087e 09       		.uleb128 0x9
 3310 087f 51070000 		.4byte	0x751
 3311 0883 08       		.uleb128 0x8
 3312 0884 04       		.byte	0x4
 3313 0885 A9060000 		.4byte	0x6a9
 3314 0889 11       		.uleb128 0x11
 3315 088a 1A040000 		.4byte	.LASF94
 3316 088e 04       		.byte	0x4
 3317 088f 2901     		.2byte	0x129
 3318 0891 95080000 		.4byte	0x895
 3319 0895 0A       		.uleb128 0xa
 3320 0896 CB000000 		.4byte	0xcb
 3321 089a A9080000 		.4byte	0x8a9
 3322 089e 0B       		.uleb128 0xb
 3323 089f 78080000 		.4byte	0x878
 3324 08a3 0B       		.uleb128 0xb
 3325 08a4 F9030000 		.4byte	0x3f9
 3326 08a8 00       		.byte	0
 3327 08a9 11       		.uleb128 0x11
 3328 08aa 840A0000 		.4byte	.LASF95
 3329 08ae 04       		.byte	0x4
 3330 08af 2A01     		.2byte	0x12a
 3331 08b1 B5080000 		.4byte	0x8b5
 3332 08b5 0A       		.uleb128 0xa
 3333 08b6 33000000 		.4byte	0x33
 3334 08ba C9080000 		.4byte	0x8c9
 3335 08be 0B       		.uleb128 0xb
 3336 08bf F9030000 		.4byte	0x3f9
 3337 08c3 0B       		.uleb128 0xb
 3338 08c4 C9080000 		.4byte	0x8c9
 3339 08c8 00       		.byte	0
 3340 08c9 08       		.uleb128 0x8
 3341 08ca 04       		.byte	0x4
 3342 08cb 2A050000 		.4byte	0x52a
 3343 08cf 17       		.uleb128 0x17
 3344 08d0 04       		.byte	0x4
 3345 08d1 04       		.byte	0x4
ARM GAS  C:\Users\jaohe\AppData\Local\Temp\ccbQAV2C.s 			page 77


 3346 08d2 BC01     		.2byte	0x1bc
 3347 08d4 09090000 		.4byte	0x909
 3348 08d8 18       		.uleb128 0x18
 3349 08d9 140C0000 		.4byte	.LASF96
 3350 08dd 04       		.byte	0x4
 3351 08de BD01     		.2byte	0x1bd
 3352 08e0 23020000 		.4byte	0x223
 3353 08e4 18       		.uleb128 0x18
 3354 08e5 85020000 		.4byte	.LASF97
 3355 08e9 04       		.byte	0x4
 3356 08ea BE01     		.2byte	0x1be
 3357 08ec 09090000 		.4byte	0x909
 3358 08f0 18       		.uleb128 0x18
 3359 08f1 69040000 		.4byte	.LASF98
 3360 08f5 04       		.byte	0x4
 3361 08f6 BF01     		.2byte	0x1bf
 3362 08f8 14090000 		.4byte	0x914
 3363 08fc 18       		.uleb128 0x18
 3364 08fd 9E0B0000 		.4byte	.LASF99
 3365 0901 04       		.byte	0x4
 3366 0902 C001     		.2byte	0x1c0
 3367 0904 1F090000 		.4byte	0x91f
 3368 0908 00       		.byte	0
 3369 0909 08       		.uleb128 0x8
 3370 090a 04       		.byte	0x4
 3371 090b 0F090000 		.4byte	0x90f
 3372 090f 09       		.uleb128 0x9
 3373 0910 65060000 		.4byte	0x665
 3374 0914 08       		.uleb128 0x8
 3375 0915 04       		.byte	0x4
 3376 0916 1A090000 		.4byte	0x91a
 3377 091a 09       		.uleb128 0x9
 3378 091b 88050000 		.4byte	0x588
 3379 091f 08       		.uleb128 0x8
 3380 0920 04       		.byte	0x4
 3381 0921 25090000 		.4byte	0x925
 3382 0925 09       		.uleb128 0x9
 3383 0926 E6050000 		.4byte	0x5e6
 3384 092a 08       		.uleb128 0x8
 3385 092b 04       		.byte	0x4
 3386 092c 1F080000 		.4byte	0x81f
 3387 0930 08       		.uleb128 0x8
 3388 0931 04       		.byte	0x4
 3389 0932 36080000 		.4byte	0x836
 3390 0936 08       		.uleb128 0x8
 3391 0937 04       		.byte	0x4
 3392 0938 5C080000 		.4byte	0x85c
 3393 093c 08       		.uleb128 0x8
 3394 093d 04       		.byte	0x4
 3395 093e 89080000 		.4byte	0x889
 3396 0942 08       		.uleb128 0x8
 3397 0943 04       		.byte	0x4
 3398 0944 A9080000 		.4byte	0x8a9
 3399 0948 08       		.uleb128 0x8
 3400 0949 04       		.byte	0x4
 3401 094a 4E090000 		.4byte	0x94e
 3402 094e 09       		.uleb128 0x9
ARM GAS  C:\Users\jaohe\AppData\Local\Temp\ccbQAV2C.s 			page 78


 3403 094f 45070000 		.4byte	0x745
 3404 0953 02       		.uleb128 0x2
 3405 0954 04       		.byte	0x4
 3406 0955 07       		.byte	0x7
 3407 0956 43000000 		.4byte	.LASF100
 3408 095a 08       		.uleb128 0x8
 3409 095b 04       		.byte	0x4
 3410 095c EE020000 		.4byte	0x2ee
 3411 0960 08       		.uleb128 0x8
 3412 0961 04       		.byte	0x4
 3413 0962 66090000 		.4byte	0x966
 3414 0966 09       		.uleb128 0x9
 3415 0967 EE020000 		.4byte	0x2ee
 3416 096b 08       		.uleb128 0x8
 3417 096c 04       		.byte	0x4
 3418 096d 71090000 		.4byte	0x971
 3419 0971 09       		.uleb128 0x9
 3420 0972 16040000 		.4byte	0x416
 3421 0976 19       		.uleb128 0x19
 3422 0977 01       		.byte	0x1
 3423 0978 05       		.byte	0x5
 3424 0979 F902     		.2byte	0x2f9
 3425 097b 92090000 		.4byte	0x992
 3426 097f 1A       		.uleb128 0x1a
 3427 0980 340A0000 		.4byte	.LASF101
 3428 0984 00       		.sleb128 0
 3429 0985 1A       		.uleb128 0x1a
 3430 0986 9D050000 		.4byte	.LASF102
 3431 098a 01       		.sleb128 1
 3432 098b 1A       		.uleb128 0x1a
 3433 098c FF040000 		.4byte	.LASF103
 3434 0990 02       		.sleb128 2
 3435 0991 00       		.byte	0
 3436 0992 11       		.uleb128 0x11
 3437 0993 2B090000 		.4byte	.LASF104
 3438 0997 05       		.byte	0x5
 3439 0998 F902     		.2byte	0x2f9
 3440 099a 76090000 		.4byte	0x976
 3441 099e 1B       		.uleb128 0x1b
 3442 099f CB000000 		.4byte	0xcb
 3443 09a3 AE090000 		.4byte	0x9ae
 3444 09a7 1C       		.uleb128 0x1c
 3445 09a8 53090000 		.4byte	0x953
 3446 09ac FF       		.byte	0xff
 3447 09ad 00       		.byte	0
 3448 09ae 04       		.uleb128 0x4
 3449 09af 5A090000 		.4byte	.LASF105
 3450 09b3 06       		.byte	0x6
 3451 09b4 1B       		.byte	0x1b
 3452 09b5 23050000 		.4byte	0x523
 3453 09b9 04       		.uleb128 0x4
 3454 09ba 53020000 		.4byte	.LASF106
 3455 09be 06       		.byte	0x6
 3456 09bf 1D       		.byte	0x1d
 3457 09c0 E8000000 		.4byte	0xe8
 3458 09c4 04       		.uleb128 0x4
 3459 09c5 54040000 		.4byte	.LASF107
ARM GAS  C:\Users\jaohe\AppData\Local\Temp\ccbQAV2C.s 			page 79


 3460 09c9 06       		.byte	0x6
 3461 09ca 2B       		.byte	0x2b
 3462 09cb F9030000 		.4byte	0x3f9
 3463 09cf 04       		.uleb128 0x4
 3464 09d0 B60A0000 		.4byte	.LASF108
 3465 09d4 06       		.byte	0x6
 3466 09d5 3F       		.byte	0x3f
 3467 09d6 11020000 		.4byte	0x211
 3468 09da 02       		.uleb128 0x2
 3469 09db 08       		.byte	0x8
 3470 09dc 05       		.byte	0x5
 3471 09dd F3060000 		.4byte	.LASF109
 3472 09e1 04       		.uleb128 0x4
 3473 09e2 0E000000 		.4byte	.LASF110
 3474 09e6 07       		.byte	0x7
 3475 09e7 14       		.byte	0x14
 3476 09e8 AE090000 		.4byte	0x9ae
 3477 09ec 04       		.uleb128 0x4
 3478 09ed 32030000 		.4byte	.LASF111
 3479 09f1 07       		.byte	0x7
 3480 09f2 15       		.byte	0x15
 3481 09f3 B9090000 		.4byte	0x9b9
 3482 09f7 04       		.uleb128 0x4
 3483 09f8 A7090000 		.4byte	.LASF112
 3484 09fc 07       		.byte	0x7
 3485 09fd 21       		.byte	0x21
 3486 09fe C4090000 		.4byte	0x9c4
 3487 0a02 04       		.uleb128 0x4
 3488 0a03 88000000 		.4byte	.LASF113
 3489 0a07 07       		.byte	0x7
 3490 0a08 2C       		.byte	0x2c
 3491 0a09 CF090000 		.4byte	0x9cf
 3492 0a0d 04       		.uleb128 0x4
 3493 0a0e 050B0000 		.4byte	.LASF114
 3494 0a12 08       		.byte	0x8
 3495 0a13 C2       		.byte	0xc2
 3496 0a14 E8000000 		.4byte	0xe8
 3497 0a18 04       		.uleb128 0x4
 3498 0a19 C60D0000 		.4byte	.LASF115
 3499 0a1d 08       		.byte	0x8
 3500 0a1e C3       		.byte	0xc3
 3501 0a1f F9030000 		.4byte	0x3f9
 3502 0a23 04       		.uleb128 0x4
 3503 0a24 C1000000 		.4byte	.LASF116
 3504 0a28 08       		.byte	0x8
 3505 0a29 C4       		.byte	0xc4
 3506 0a2a 50000000 		.4byte	0x50
 3507 0a2e 04       		.uleb128 0x4
 3508 0a2f 0E0C0000 		.4byte	.LASF117
 3509 0a33 08       		.byte	0x8
 3510 0a34 C6       		.byte	0xc6
 3511 0a35 57000000 		.4byte	0x57
 3512 0a39 02       		.uleb128 0x2
 3513 0a3a 04       		.byte	0x4
 3514 0a3b 04       		.byte	0x4
 3515 0a3c 8A070000 		.4byte	.LASF118
 3516 0a40 02       		.uleb128 0x2
ARM GAS  C:\Users\jaohe\AppData\Local\Temp\ccbQAV2C.s 			page 80


 3517 0a41 08       		.byte	0x8
 3518 0a42 04       		.byte	0x4
 3519 0a43 38070000 		.4byte	.LASF119
 3520 0a47 04       		.uleb128 0x4
 3521 0a48 5D020000 		.4byte	.LASF120
 3522 0a4c 08       		.byte	0x8
 3523 0a4d D3       		.byte	0xd3
 3524 0a4e CB000000 		.4byte	0xcb
 3525 0a52 11       		.uleb128 0x11
 3526 0a53 4D090000 		.4byte	.LASF121
 3527 0a57 08       		.byte	0x8
 3528 0a58 7E01     		.2byte	0x17e
 3529 0a5a 2A020000 		.4byte	0x22a
 3530 0a5e 1B       		.uleb128 0x1b
 3531 0a5f CB000000 		.4byte	0xcb
 3532 0a63 6E0A0000 		.4byte	0xa6e
 3533 0a67 1C       		.uleb128 0x1c
 3534 0a68 53090000 		.4byte	0x953
 3535 0a6c 17       		.byte	0x17
 3536 0a6d 00       		.byte	0
 3537 0a6e 05       		.uleb128 0x5
 3538 0a6f 06       		.byte	0x6
 3539 0a70 09       		.byte	0x9
 3540 0a71 2A       		.byte	0x2a
 3541 0a72 B80A0000 		.4byte	0xab8
 3542 0a76 07       		.uleb128 0x7
 3543 0a77 260B0000 		.4byte	.LASF122
 3544 0a7b 09       		.byte	0x9
 3545 0a7c 2B       		.byte	0x2b
 3546 0a7d EC090000 		.4byte	0x9ec
 3547 0a81 00       		.byte	0
 3548 0a82 06       		.uleb128 0x6
 3549 0a83 6D00     		.ascii	"m\000"
 3550 0a85 09       		.byte	0x9
 3551 0a86 2C       		.byte	0x2c
 3552 0a87 EC090000 		.4byte	0x9ec
 3553 0a8b 01       		.byte	0x1
 3554 0a8c 06       		.uleb128 0x6
 3555 0a8d 6400     		.ascii	"d\000"
 3556 0a8f 09       		.byte	0x9
 3557 0a90 2D       		.byte	0x2d
 3558 0a91 EC090000 		.4byte	0x9ec
 3559 0a95 02       		.byte	0x2
 3560 0a96 06       		.uleb128 0x6
 3561 0a97 686800   		.ascii	"hh\000"
 3562 0a9a 09       		.byte	0x9
 3563 0a9b 2E       		.byte	0x2e
 3564 0a9c EC090000 		.4byte	0x9ec
 3565 0aa0 03       		.byte	0x3
 3566 0aa1 06       		.uleb128 0x6
 3567 0aa2 6D6D00   		.ascii	"mm\000"
 3568 0aa5 09       		.byte	0x9
 3569 0aa6 2F       		.byte	0x2f
 3570 0aa7 EC090000 		.4byte	0x9ec
 3571 0aab 04       		.byte	0x4
 3572 0aac 06       		.uleb128 0x6
 3573 0aad 737300   		.ascii	"ss\000"
ARM GAS  C:\Users\jaohe\AppData\Local\Temp\ccbQAV2C.s 			page 81


 3574 0ab0 09       		.byte	0x9
 3575 0ab1 30       		.byte	0x30
 3576 0ab2 EC090000 		.4byte	0x9ec
 3577 0ab6 05       		.byte	0x5
 3578 0ab7 00       		.byte	0
 3579 0ab8 04       		.uleb128 0x4
 3580 0ab9 EF0C0000 		.4byte	.LASF123
 3581 0abd 09       		.byte	0x9
 3582 0abe 31       		.byte	0x31
 3583 0abf 6E0A0000 		.4byte	0xa6e
 3584 0ac3 1D       		.uleb128 0x1d
 3585 0ac4 B5070000 		.4byte	.LASF128
 3586 0ac8 01       		.byte	0x1
 3587 0ac9 0A       		.byte	0xa
 3588 0aca 18       		.byte	0x18
 3589 0acb E80A0000 		.4byte	0xae8
 3590 0acf 1A       		.uleb128 0x1a
 3591 0ad0 15000000 		.4byte	.LASF124
 3592 0ad4 00       		.sleb128 0
 3593 0ad5 1A       		.uleb128 0x1a
 3594 0ad6 830D0000 		.4byte	.LASF125
 3595 0ada 01       		.sleb128 1
 3596 0adb 1A       		.uleb128 0x1a
 3597 0adc 730C0000 		.4byte	.LASF126
 3598 0ae0 02       		.sleb128 2
 3599 0ae1 1A       		.uleb128 0x1a
 3600 0ae2 11040000 		.4byte	.LASF127
 3601 0ae6 03       		.sleb128 3
 3602 0ae7 00       		.byte	0
 3603 0ae8 1D       		.uleb128 0x1d
 3604 0ae9 CD0D0000 		.4byte	.LASF129
 3605 0aed 01       		.byte	0x1
 3606 0aee 0A       		.byte	0xa
 3607 0aef 1C       		.byte	0x1c
 3608 0af0 0C0B0000 		.4byte	0xb0c
 3609 0af4 1A       		.uleb128 0x1a
 3610 0af5 170D0000 		.4byte	.LASF130
 3611 0af9 00       		.sleb128 0
 3612 0afa 1E       		.uleb128 0x1e
 3613 0afb 4F4E00   		.ascii	"ON\000"
 3614 0afe 01       		.sleb128 1
 3615 0aff 1A       		.uleb128 0x1a
 3616 0b00 5D0C0000 		.4byte	.LASF131
 3617 0b04 02       		.sleb128 2
 3618 0b05 1A       		.uleb128 0x1a
 3619 0b06 F7040000 		.4byte	.LASF132
 3620 0b0a 03       		.sleb128 3
 3621 0b0b 00       		.byte	0
 3622 0b0c 05       		.uleb128 0x5
 3623 0b0d 02       		.byte	0x2
 3624 0b0e 0A       		.byte	0xa
 3625 0b0f 21       		.byte	0x21
 3626 0b10 2B0B0000 		.4byte	0xb2b
 3627 0b14 06       		.uleb128 0x6
 3628 0b15 686800   		.ascii	"hh\000"
 3629 0b18 0A       		.byte	0xa
 3630 0b19 22       		.byte	0x22
ARM GAS  C:\Users\jaohe\AppData\Local\Temp\ccbQAV2C.s 			page 82


 3631 0b1a EC090000 		.4byte	0x9ec
 3632 0b1e 00       		.byte	0
 3633 0b1f 06       		.uleb128 0x6
 3634 0b20 6D6D00   		.ascii	"mm\000"
 3635 0b23 0A       		.byte	0xa
 3636 0b24 23       		.byte	0x23
 3637 0b25 EC090000 		.4byte	0x9ec
 3638 0b29 01       		.byte	0x1
 3639 0b2a 00       		.byte	0
 3640 0b2b 04       		.uleb128 0x4
 3641 0b2c 45090000 		.4byte	.LASF133
 3642 0b30 0A       		.byte	0xa
 3643 0b31 24       		.byte	0x24
 3644 0b32 0C0B0000 		.4byte	0xb0c
 3645 0b36 05       		.uleb128 0x5
 3646 0b37 03       		.byte	0x3
 3647 0b38 0A       		.byte	0xa
 3648 0b39 26       		.byte	0x26
 3649 0b3a 570B0000 		.4byte	0xb57
 3650 0b3e 07       		.uleb128 0x7
 3651 0b3f A10A0000 		.4byte	.LASF134
 3652 0b43 0A       		.byte	0xa
 3653 0b44 27       		.byte	0x27
 3654 0b45 2B0B0000 		.4byte	0xb2b
 3655 0b49 00       		.byte	0
 3656 0b4a 07       		.uleb128 0x7
 3657 0b4b 9D0C0000 		.4byte	.LASF135
 3658 0b4f 0A       		.byte	0xa
 3659 0b50 28       		.byte	0x28
 3660 0b51 570B0000 		.4byte	0xb57
 3661 0b55 02       		.byte	0x2
 3662 0b56 00       		.byte	0
 3663 0b57 02       		.uleb128 0x2
 3664 0b58 01       		.byte	0x1
 3665 0b59 02       		.byte	0x2
 3666 0b5a 0B040000 		.4byte	.LASF136
 3667 0b5e 04       		.uleb128 0x4
 3668 0b5f D80D0000 		.4byte	.LASF137
 3669 0b63 0A       		.byte	0xa
 3670 0b64 29       		.byte	0x29
 3671 0b65 360B0000 		.4byte	0xb36
 3672 0b69 05       		.uleb128 0x5
 3673 0b6a 0C       		.byte	0xc
 3674 0b6b 0A       		.byte	0xa
 3675 0b6c 2C       		.byte	0x2c
 3676 0b6d A20B0000 		.4byte	0xba2
 3677 0b71 07       		.uleb128 0x7
 3678 0b72 EC0A0000 		.4byte	.LASF138
 3679 0b76 0A       		.byte	0xa
 3680 0b77 2D       		.byte	0x2d
 3681 0b78 B4060000 		.4byte	0x6b4
 3682 0b7c 00       		.byte	0
 3683 0b7d 07       		.uleb128 0x7
 3684 0b7e F9050000 		.4byte	.LASF139
 3685 0b82 0A       		.byte	0xa
 3686 0b83 2E       		.byte	0x2e
 3687 0b84 C30A0000 		.4byte	0xac3
ARM GAS  C:\Users\jaohe\AppData\Local\Temp\ccbQAV2C.s 			page 83


 3688 0b88 04       		.byte	0x4
 3689 0b89 07       		.uleb128 0x7
 3690 0b8a 56000000 		.4byte	.LASF140
 3691 0b8e 0A       		.byte	0xa
 3692 0b8f 2F       		.byte	0x2f
 3693 0b90 2B0B0000 		.4byte	0xb2b
 3694 0b94 05       		.byte	0x5
 3695 0b95 07       		.uleb128 0x7
 3696 0b96 2B0B0000 		.4byte	.LASF141
 3697 0b9a 0A       		.byte	0xa
 3698 0b9b 30       		.byte	0x30
 3699 0b9c 5E0B0000 		.4byte	0xb5e
 3700 0ba0 07       		.byte	0x7
 3701 0ba1 00       		.byte	0
 3702 0ba2 04       		.uleb128 0x4
 3703 0ba3 DB060000 		.4byte	.LASF142
 3704 0ba7 0A       		.byte	0xa
 3705 0ba8 32       		.byte	0x32
 3706 0ba9 690B0000 		.4byte	0xb69
 3707 0bad 05       		.uleb128 0x5
 3708 0bae 18       		.byte	0x18
 3709 0baf 0A       		.byte	0xa
 3710 0bb0 3B       		.byte	0x3b
 3711 0bb1 E60B0000 		.4byte	0xbe6
 3712 0bb5 07       		.uleb128 0x7
 3713 0bb6 29050000 		.4byte	.LASF143
 3714 0bba 0A       		.byte	0xa
 3715 0bbb 3C       		.byte	0x3c
 3716 0bbc A20B0000 		.4byte	0xba2
 3717 0bc0 00       		.byte	0
 3718 0bc1 07       		.uleb128 0x7
 3719 0bc2 B7000000 		.4byte	.LASF144
 3720 0bc6 0A       		.byte	0xa
 3721 0bc7 3D       		.byte	0x3d
 3722 0bc8 2B0B0000 		.4byte	0xb2b
 3723 0bcc 0C       		.byte	0xc
 3724 0bcd 07       		.uleb128 0x7
 3725 0bce 5F070000 		.4byte	.LASF145
 3726 0bd2 0A       		.byte	0xa
 3727 0bd3 3E       		.byte	0x3e
 3728 0bd4 33000000 		.4byte	0x33
 3729 0bd8 10       		.byte	0x10
 3730 0bd9 07       		.uleb128 0x7
 3731 0bda 6A0C0000 		.4byte	.LASF146
 3732 0bde 0A       		.byte	0xa
 3733 0bdf 3F       		.byte	0x3f
 3734 0be0 33000000 		.4byte	0x33
 3735 0be4 14       		.byte	0x14
 3736 0be5 00       		.byte	0
 3737 0be6 04       		.uleb128 0x4
 3738 0be7 DF070000 		.4byte	.LASF147
 3739 0beb 0A       		.byte	0xa
 3740 0bec 40       		.byte	0x40
 3741 0bed AD0B0000 		.4byte	0xbad
 3742 0bf1 05       		.uleb128 0x5
 3743 0bf2 03       		.byte	0x3
 3744 0bf3 0A       		.byte	0xa
ARM GAS  C:\Users\jaohe\AppData\Local\Temp\ccbQAV2C.s 			page 84


 3745 0bf4 42       		.byte	0x42
 3746 0bf5 110C0000 		.4byte	0xc11
 3747 0bf9 06       		.uleb128 0x6
 3748 0bfa 647400   		.ascii	"dt\000"
 3749 0bfd 0A       		.byte	0xa
 3750 0bfe 43       		.byte	0x43
 3751 0bff 2B0B0000 		.4byte	0xb2b
 3752 0c03 00       		.byte	0
 3753 0c04 07       		.uleb128 0x7
 3754 0c05 35010000 		.4byte	.LASF148
 3755 0c09 0A       		.byte	0xa
 3756 0c0a 44       		.byte	0x44
 3757 0c0b E80A0000 		.4byte	0xae8
 3758 0c0f 02       		.byte	0x2
 3759 0c10 00       		.byte	0
 3760 0c11 04       		.uleb128 0x4
 3761 0c12 84050000 		.4byte	.LASF149
 3762 0c16 0A       		.byte	0xa
 3763 0c17 45       		.byte	0x45
 3764 0c18 F10B0000 		.4byte	0xbf1
 3765 0c1c 1D       		.uleb128 0x1d
 3766 0c1d 420C0000 		.4byte	.LASF150
 3767 0c21 01       		.byte	0x1
 3768 0c22 0B       		.byte	0xb
 3769 0c23 14       		.byte	0x14
 3770 0c24 530C0000 		.4byte	0xc53
 3771 0c28 1A       		.uleb128 0x1a
 3772 0c29 99060000 		.4byte	.LASF151
 3773 0c2d 00       		.sleb128 0
 3774 0c2e 1A       		.uleb128 0x1a
 3775 0c2f 7F0C0000 		.4byte	.LASF152
 3776 0c33 01       		.sleb128 1
 3777 0c34 1A       		.uleb128 0x1a
 3778 0c35 59080000 		.4byte	.LASF153
 3779 0c39 02       		.sleb128 2
 3780 0c3a 1A       		.uleb128 0x1a
 3781 0c3b CA020000 		.4byte	.LASF154
 3782 0c3f 03       		.sleb128 3
 3783 0c40 1A       		.uleb128 0x1a
 3784 0c41 2F020000 		.4byte	.LASF155
 3785 0c45 04       		.sleb128 4
 3786 0c46 1A       		.uleb128 0x1a
 3787 0c47 E4090000 		.4byte	.LASF156
 3788 0c4b 05       		.sleb128 5
 3789 0c4c 1A       		.uleb128 0x1a
 3790 0c4d 93060000 		.4byte	.LASF157
 3791 0c51 06       		.sleb128 6
 3792 0c52 00       		.byte	0
 3793 0c53 1F       		.uleb128 0x1f
 3794 0c54 ED080000 		.4byte	.LASF164
 3795 0c58 01       		.byte	0x1
 3796 0c59 79       		.byte	0x79
 3797 0c5a 00000000 		.4byte	.LFB63
 3798 0c5e 10000000 		.4byte	.LFE63-.LFB63
 3799 0c62 01       		.uleb128 0x1
 3800 0c63 9C       		.byte	0x9c
 3801 0c64 9E0C0000 		.4byte	0xc9e
ARM GAS  C:\Users\jaohe\AppData\Local\Temp\ccbQAV2C.s 			page 85


 3802 0c68 20       		.uleb128 0x20
 3803 0c69 636D6400 		.ascii	"cmd\000"
 3804 0c6d 01       		.byte	0x1
 3805 0c6e 79       		.byte	0x79
 3806 0c6f CD020000 		.4byte	0x2cd
 3807 0c73 00000000 		.4byte	.LLST0
 3808 0c77 21       		.uleb128 0x21
 3809 0c78 06000000 		.4byte	.LVL1
 3810 0c7c 561F0000 		.4byte	0x1f56
 3811 0c80 8C0C0000 		.4byte	0xc8c
 3812 0c84 22       		.uleb128 0x22
 3813 0c85 01       		.uleb128 0x1
 3814 0c86 50       		.byte	0x50
 3815 0c87 03       		.uleb128 0x3
 3816 0c88 F3       		.byte	0xf3
 3817 0c89 01       		.uleb128 0x1
 3818 0c8a 50       		.byte	0x50
 3819 0c8b 00       		.byte	0
 3820 0c8c 23       		.uleb128 0x23
 3821 0c8d 0E000000 		.4byte	.LVL2
 3822 0c91 721F0000 		.4byte	0x1f72
 3823 0c95 22       		.uleb128 0x22
 3824 0c96 01       		.uleb128 0x1
 3825 0c97 50       		.byte	0x50
 3826 0c98 03       		.uleb128 0x3
 3827 0c99 0A       		.byte	0xa
 3828 0c9a E803     		.2byte	0x3e8
 3829 0c9c 00       		.byte	0
 3830 0c9d 00       		.byte	0
 3831 0c9e 24       		.uleb128 0x24
 3832 0c9f AC080000 		.4byte	.LASF277
 3833 0ca3 01       		.byte	0x1
 3834 0ca4 7E       		.byte	0x7e
 3835 0ca5 00000000 		.4byte	.LFB64
 3836 0ca9 40000000 		.4byte	.LFE64-.LFB64
 3837 0cad 01       		.uleb128 0x1
 3838 0cae 9C       		.byte	0x9c
 3839 0caf 190D0000 		.4byte	0xd19
 3840 0cb3 25       		.uleb128 0x25
 3841 0cb4 E80B0000 		.4byte	.LASF158
 3842 0cb8 01       		.byte	0x1
 3843 0cb9 7F       		.byte	0x7f
 3844 0cba 190D0000 		.4byte	0xd19
 3845 0cbe 03       		.uleb128 0x3
 3846 0cbf 91       		.byte	0x91
 3847 0cc0 B07F     		.sleb128 -80
 3848 0cc2 26       		.uleb128 0x26
 3849 0cc3 6900     		.ascii	"i\000"
 3850 0cc5 01       		.byte	0x1
 3851 0cc6 80       		.byte	0x80
 3852 0cc7 33000000 		.4byte	0x33
 3853 0ccb 21000000 		.4byte	.LLST1
 3854 0ccf 21       		.uleb128 0x21
 3855 0cd0 0A000000 		.4byte	.LVL4
 3856 0cd4 721F0000 		.4byte	0x1f72
 3857 0cd8 E30C0000 		.4byte	0xce3
 3858 0cdc 22       		.uleb128 0x22
ARM GAS  C:\Users\jaohe\AppData\Local\Temp\ccbQAV2C.s 			page 86


 3859 0cdd 01       		.uleb128 0x1
 3860 0cde 50       		.byte	0x50
 3861 0cdf 02       		.uleb128 0x2
 3862 0ce0 08       		.byte	0x8
 3863 0ce1 64       		.byte	0x64
 3864 0ce2 00       		.byte	0
 3865 0ce3 27       		.uleb128 0x27
 3866 0ce4 14000000 		.4byte	.LVL7
 3867 0ce8 831F0000 		.4byte	0x1f83
 3868 0cec 21       		.uleb128 0x21
 3869 0ced 22000000 		.4byte	.LVL8
 3870 0cf1 721F0000 		.4byte	0x1f72
 3871 0cf5 FF0C0000 		.4byte	0xcff
 3872 0cf9 22       		.uleb128 0x22
 3873 0cfa 01       		.uleb128 0x1
 3874 0cfb 50       		.byte	0x50
 3875 0cfc 01       		.uleb128 0x1
 3876 0cfd 44       		.byte	0x44
 3877 0cfe 00       		.byte	0
 3878 0cff 27       		.uleb128 0x27
 3879 0d00 28000000 		.4byte	.LVL10
 3880 0d04 8E1F0000 		.4byte	0x1f8e
 3881 0d08 23       		.uleb128 0x23
 3882 0d09 3C000000 		.4byte	.LVL12
 3883 0d0d 561F0000 		.4byte	0x1f56
 3884 0d11 22       		.uleb128 0x22
 3885 0d12 01       		.uleb128 0x1
 3886 0d13 50       		.byte	0x50
 3887 0d14 02       		.uleb128 0x2
 3888 0d15 7D       		.byte	0x7d
 3889 0d16 00       		.sleb128 0
 3890 0d17 00       		.byte	0
 3891 0d18 00       		.byte	0
 3892 0d19 1B       		.uleb128 0x1b
 3893 0d1a CB000000 		.4byte	0xcb
 3894 0d1e 290D0000 		.4byte	0xd29
 3895 0d22 1C       		.uleb128 0x1c
 3896 0d23 53090000 		.4byte	0x953
 3897 0d27 3F       		.byte	0x3f
 3898 0d28 00       		.byte	0
 3899 0d29 28       		.uleb128 0x28
 3900 0d2a F8030000 		.4byte	.LASF159
 3901 0d2e 01       		.byte	0x1
 3902 0d2f E9       		.byte	0xe9
 3903 0d30 33000000 		.4byte	0x33
 3904 0d34 00000000 		.4byte	.LFB67
 3905 0d38 80000000 		.4byte	.LFE67-.LFB67
 3906 0d3c 01       		.uleb128 0x1
 3907 0d3d 9C       		.byte	0x9c
 3908 0d3e 700D0000 		.4byte	0xd70
 3909 0d42 29       		.uleb128 0x29
 3910 0d43 6E6F7700 		.ascii	"now\000"
 3911 0d47 01       		.byte	0x1
 3912 0d48 E9       		.byte	0xe9
 3913 0d49 B80A0000 		.4byte	0xab8
 3914 0d4d 02       		.uleb128 0x2
 3915 0d4e 91       		.byte	0x91
ARM GAS  C:\Users\jaohe\AppData\Local\Temp\ccbQAV2C.s 			page 87


 3916 0d4f 70       		.sleb128 -16
 3917 0d50 26       		.uleb128 0x26
 3918 0d51 6900     		.ascii	"i\000"
 3919 0d53 01       		.byte	0x1
 3920 0d54 EA       		.byte	0xea
 3921 0d55 33000000 		.4byte	0x33
 3922 0d59 56000000 		.4byte	.LLST2
 3923 0d5d 27       		.uleb128 0x27
 3924 0d5e 52000000 		.4byte	.LVL16
 3925 0d62 991F0000 		.4byte	0x1f99
 3926 0d66 27       		.uleb128 0x27
 3927 0d67 5A000000 		.4byte	.LVL17
 3928 0d6b A41F0000 		.4byte	0x1fa4
 3929 0d6f 00       		.byte	0
 3930 0d70 2A       		.uleb128 0x2a
 3931 0d71 C8000000 		.4byte	.LASF278
 3932 0d75 01       		.byte	0x1
 3933 0d76 FB       		.byte	0xfb
 3934 0d77 00000000 		.4byte	.LFB68
 3935 0d7b 38000000 		.4byte	.LFE68-.LFB68
 3936 0d7f 01       		.uleb128 0x1
 3937 0d80 9C       		.byte	0x9c
 3938 0d81 2B       		.uleb128 0x2b
 3939 0d82 80020000 		.4byte	.LASF160
 3940 0d86 01       		.byte	0x1
 3941 0d87 5801     		.2byte	0x158
 3942 0d89 33000000 		.4byte	0x33
 3943 0d8d 00000000 		.4byte	.LFB70
 3944 0d91 E0000000 		.4byte	.LFE70-.LFB70
 3945 0d95 01       		.uleb128 0x1
 3946 0d96 9C       		.byte	0x9c
 3947 0d97 A50E0000 		.4byte	0xea5
 3948 0d9b 2C       		.uleb128 0x2c
 3949 0d9c 6900     		.ascii	"i\000"
 3950 0d9e 01       		.byte	0x1
 3951 0d9f 5E01     		.2byte	0x15e
 3952 0da1 33000000 		.4byte	0x33
 3953 0da5 2D       		.uleb128 0x2d
 3954 0da6 340B0000 		.4byte	.LASF161
 3955 0daa 01       		.byte	0x1
 3956 0dab 5F01     		.2byte	0x15f
 3957 0dad A50E0000 		.4byte	0xea5
 3958 0db1 02       		.uleb128 0x2
 3959 0db2 91       		.byte	0x91
 3960 0db3 6C       		.sleb128 -20
 3961 0db4 2E       		.uleb128 0x2e
 3962 0db5 97080000 		.4byte	.LASF162
 3963 0db9 01       		.byte	0x1
 3964 0dba 6601     		.2byte	0x166
 3965 0dbc 0D0A0000 		.4byte	0xa0d
 3966 0dc0 8C000000 		.4byte	.LLST3
 3967 0dc4 21       		.uleb128 0x21
 3968 0dc5 0A000000 		.4byte	.LVL22
 3969 0dc9 B51F0000 		.4byte	0x1fb5
 3970 0dcd DB0D0000 		.4byte	0xddb
 3971 0dd1 22       		.uleb128 0x22
 3972 0dd2 01       		.uleb128 0x1
ARM GAS  C:\Users\jaohe\AppData\Local\Temp\ccbQAV2C.s 			page 88


 3973 0dd3 50       		.byte	0x50
 3974 0dd4 05       		.uleb128 0x5
 3975 0dd5 0C       		.byte	0xc
 3976 0dd6 FFF9F700 		.4byte	0xf7f9ff
 3977 0dda 00       		.byte	0
 3978 0ddb 27       		.uleb128 0x27
 3979 0ddc 0E000000 		.4byte	.LVL23
 3980 0de0 C71F0000 		.4byte	0x1fc7
 3981 0de4 27       		.uleb128 0x27
 3982 0de5 14000000 		.4byte	.LVL24
 3983 0de9 CF1F0000 		.4byte	0x1fcf
 3984 0ded 21       		.uleb128 0x21
 3985 0dee 1A000000 		.4byte	.LVL25
 3986 0df2 E51F0000 		.4byte	0x1fe5
 3987 0df6 040E0000 		.4byte	0xe04
 3988 0dfa 22       		.uleb128 0x22
 3989 0dfb 01       		.uleb128 0x1
 3990 0dfc 50       		.byte	0x50
 3991 0dfd 05       		.uleb128 0x5
 3992 0dfe 0C       		.byte	0xc
 3993 0dff 25141800 		.4byte	0x181425
 3994 0e03 00       		.byte	0
 3995 0e04 21       		.uleb128 0x21
 3996 0e05 24000000 		.4byte	.LVL26
 3997 0e09 F71F0000 		.4byte	0x1ff7
 3998 0e0d 250E0000 		.4byte	0xe25
 3999 0e11 22       		.uleb128 0x22
 4000 0e12 01       		.uleb128 0x1
 4001 0e13 52       		.byte	0x52
 4002 0e14 01       		.uleb128 0x1
 4003 0e15 35       		.byte	0x35
 4004 0e16 22       		.uleb128 0x22
 4005 0e17 01       		.uleb128 0x1
 4006 0e18 51       		.byte	0x51
 4007 0e19 01       		.uleb128 0x1
 4008 0e1a 35       		.byte	0x35
 4009 0e1b 22       		.uleb128 0x22
 4010 0e1c 01       		.uleb128 0x1
 4011 0e1d 50       		.byte	0x50
 4012 0e1e 05       		.uleb128 0x5
 4013 0e1f 03       		.byte	0x3
 4014 0e20 00000000 		.4byte	.LC8
 4015 0e24 00       		.byte	0
 4016 0e25 21       		.uleb128 0x21
 4017 0e26 34000000 		.4byte	.LVL27
 4018 0e2a 13200000 		.4byte	0x2013
 4019 0e2e 390E0000 		.4byte	0xe39
 4020 0e32 22       		.uleb128 0x22
 4021 0e33 01       		.uleb128 0x1
 4022 0e34 50       		.byte	0x50
 4023 0e35 02       		.uleb128 0x2
 4024 0e36 91       		.byte	0x91
 4025 0e37 6C       		.sleb128 -20
 4026 0e38 00       		.byte	0
 4027 0e39 27       		.uleb128 0x27
 4028 0e3a 3A000000 		.4byte	.LVL29
 4029 0e3e 2A200000 		.4byte	0x202a
ARM GAS  C:\Users\jaohe\AppData\Local\Temp\ccbQAV2C.s 			page 89


 4030 0e42 21       		.uleb128 0x21
 4031 0e43 4C000000 		.4byte	.LVL30
 4032 0e47 35200000 		.4byte	0x2035
 4033 0e4b 560E0000 		.4byte	0xe56
 4034 0e4f 22       		.uleb128 0x22
 4035 0e50 01       		.uleb128 0x1
 4036 0e51 50       		.byte	0x50
 4037 0e52 02       		.uleb128 0x2
 4038 0e53 74       		.byte	0x74
 4039 0e54 00       		.sleb128 0
 4040 0e55 00       		.byte	0
 4041 0e56 21       		.uleb128 0x21
 4042 0e57 70000000 		.4byte	.LVL35
 4043 0e5b 4B200000 		.4byte	0x204b
 4044 0e5f 6A0E0000 		.4byte	0xe6a
 4045 0e63 22       		.uleb128 0x22
 4046 0e64 01       		.uleb128 0x1
 4047 0e65 50       		.byte	0x50
 4048 0e66 02       		.uleb128 0x2
 4049 0e67 74       		.byte	0x74
 4050 0e68 00       		.sleb128 0
 4051 0e69 00       		.byte	0
 4052 0e6a 27       		.uleb128 0x27
 4053 0e6b 76000000 		.4byte	.LVL36
 4054 0e6f 61200000 		.4byte	0x2061
 4055 0e73 21       		.uleb128 0x21
 4056 0e74 88000000 		.4byte	.LVL37
 4057 0e78 35200000 		.4byte	0x2035
 4058 0e7c 870E0000 		.4byte	0xe87
 4059 0e80 22       		.uleb128 0x22
 4060 0e81 01       		.uleb128 0x1
 4061 0e82 50       		.byte	0x50
 4062 0e83 02       		.uleb128 0x2
 4063 0e84 74       		.byte	0x74
 4064 0e85 00       		.sleb128 0
 4065 0e86 00       		.byte	0
 4066 0e87 21       		.uleb128 0x21
 4067 0e88 AC000000 		.4byte	.LVL42
 4068 0e8c 4B200000 		.4byte	0x204b
 4069 0e90 9B0E0000 		.4byte	0xe9b
 4070 0e94 22       		.uleb128 0x22
 4071 0e95 01       		.uleb128 0x1
 4072 0e96 50       		.byte	0x50
 4073 0e97 02       		.uleb128 0x2
 4074 0e98 74       		.byte	0x74
 4075 0e99 00       		.sleb128 0
 4076 0e9a 00       		.byte	0
 4077 0e9b 27       		.uleb128 0x27
 4078 0e9c B2000000 		.4byte	.LVL43
 4079 0ea0 6C200000 		.4byte	0x206c
 4080 0ea4 00       		.byte	0
 4081 0ea5 1B       		.uleb128 0x1b
 4082 0ea6 B4060000 		.4byte	0x6b4
 4083 0eaa B50E0000 		.4byte	0xeb5
 4084 0eae 1C       		.uleb128 0x1c
 4085 0eaf 53090000 		.4byte	0x953
 4086 0eb3 02       		.byte	0x2
ARM GAS  C:\Users\jaohe\AppData\Local\Temp\ccbQAV2C.s 			page 90


 4087 0eb4 00       		.byte	0
 4088 0eb5 2B       		.uleb128 0x2b
 4089 0eb6 B80D0000 		.4byte	.LASF163
 4090 0eba 01       		.byte	0x1
 4091 0ebb 8201     		.2byte	0x182
 4092 0ebd 33000000 		.4byte	0x33
 4093 0ec1 00000000 		.4byte	.LFB71
 4094 0ec5 16000000 		.4byte	.LFE71-.LFB71
 4095 0ec9 01       		.uleb128 0x1
 4096 0eca 9C       		.byte	0x9c
 4097 0ecb F00E0000 		.4byte	0xef0
 4098 0ecf 2F       		.uleb128 0x2f
 4099 0ed0 29050000 		.4byte	.LASF143
 4100 0ed4 01       		.byte	0x1
 4101 0ed5 8201     		.2byte	0x182
 4102 0ed7 A20B0000 		.4byte	0xba2
 4103 0edb 02       		.uleb128 0x2
 4104 0edc 91       		.byte	0x91
 4105 0edd 6C       		.sleb128 -20
 4106 0ede 23       		.uleb128 0x23
 4107 0edf 10000000 		.4byte	.LVL45
 4108 0ee3 561F0000 		.4byte	0x1f56
 4109 0ee7 22       		.uleb128 0x22
 4110 0ee8 01       		.uleb128 0x1
 4111 0ee9 50       		.byte	0x50
 4112 0eea 03       		.uleb128 0x3
 4113 0eeb 91       		.byte	0x91
 4114 0eec 6C       		.sleb128 -20
 4115 0eed 06       		.byte	0x6
 4116 0eee 00       		.byte	0
 4117 0eef 00       		.byte	0
 4118 0ef0 30       		.uleb128 0x30
 4119 0ef1 4D0A0000 		.4byte	.LASF165
 4120 0ef5 01       		.byte	0x1
 4121 0ef6 C401     		.2byte	0x1c4
 4122 0ef8 00000000 		.4byte	.LFB73
 4123 0efc 88000000 		.4byte	.LFE73-.LFB73
 4124 0f00 01       		.uleb128 0x1
 4125 0f01 9C       		.byte	0x9c
 4126 0f02 3F100000 		.4byte	0x103f
 4127 0f06 31       		.uleb128 0x31
 4128 0f07 7800     		.ascii	"x\000"
 4129 0f09 01       		.byte	0x1
 4130 0f0a C401     		.2byte	0x1c4
 4131 0f0c 33000000 		.4byte	0x33
 4132 0f10 D7000000 		.4byte	.LLST4
 4133 0f14 31       		.uleb128 0x31
 4134 0f15 7900     		.ascii	"y\000"
 4135 0f17 01       		.byte	0x1
 4136 0f18 C401     		.2byte	0x1c4
 4137 0f1a 33000000 		.4byte	0x33
 4138 0f1e 03010000 		.4byte	.LLST5
 4139 0f22 31       		.uleb128 0x31
 4140 0f23 7700     		.ascii	"w\000"
 4141 0f25 01       		.byte	0x1
 4142 0f26 C401     		.2byte	0x1c4
 4143 0f28 33000000 		.4byte	0x33
ARM GAS  C:\Users\jaohe\AppData\Local\Temp\ccbQAV2C.s 			page 91


 4144 0f2c 2F010000 		.4byte	.LLST6
 4145 0f30 31       		.uleb128 0x31
 4146 0f31 6800     		.ascii	"h\000"
 4147 0f33 01       		.byte	0x1
 4148 0f34 C401     		.2byte	0x1c4
 4149 0f36 33000000 		.4byte	0x33
 4150 0f3a 5B010000 		.4byte	.LLST7
 4151 0f3e 32       		.uleb128 0x32
 4152 0f3f 230D0000 		.4byte	.LASF166
 4153 0f43 01       		.byte	0x1
 4154 0f44 C401     		.2byte	0x1c4
 4155 0f46 B4060000 		.4byte	0x6b4
 4156 0f4a 87010000 		.4byte	.LLST8
 4157 0f4e 2D       		.uleb128 0x2d
 4158 0f4f BA080000 		.4byte	.LASF167
 4159 0f53 01       		.byte	0x1
 4160 0f54 CB01     		.2byte	0x1cb
 4161 0f56 EE020000 		.4byte	0x2ee
 4162 0f5a 02       		.uleb128 0x2
 4163 0f5b 91       		.byte	0x91
 4164 0f5c 58       		.sleb128 -40
 4165 0f5d 21       		.uleb128 0x21
 4166 0f5e 14000000 		.4byte	.LVL48
 4167 0f62 E51F0000 		.4byte	0x1fe5
 4168 0f66 740F0000 		.4byte	0xf74
 4169 0f6a 22       		.uleb128 0x22
 4170 0f6b 01       		.uleb128 0x1
 4171 0f6c 50       		.byte	0x50
 4172 0f6d 05       		.uleb128 0x5
 4173 0f6e 0C       		.byte	0xc
 4174 0f6f C44D8300 		.4byte	0x834dc4
 4175 0f73 00       		.byte	0
 4176 0f74 21       		.uleb128 0x21
 4177 0f75 30000000 		.4byte	.LVL49
 4178 0f79 77200000 		.4byte	0x2077
 4179 0f7d 9A0F0000 		.4byte	0xf9a
 4180 0f81 22       		.uleb128 0x22
 4181 0f82 01       		.uleb128 0x1
 4182 0f83 53       		.byte	0x53
 4183 0f84 02       		.uleb128 0x2
 4184 0f85 78       		.byte	0x78
 4185 0f86 00       		.sleb128 0
 4186 0f87 22       		.uleb128 0x22
 4187 0f88 01       		.uleb128 0x1
 4188 0f89 52       		.byte	0x52
 4189 0f8a 02       		.uleb128 0x2
 4190 0f8b 79       		.byte	0x79
 4191 0f8c 00       		.sleb128 0
 4192 0f8d 22       		.uleb128 0x22
 4193 0f8e 01       		.uleb128 0x1
 4194 0f8f 51       		.byte	0x51
 4195 0f90 02       		.uleb128 0x2
 4196 0f91 76       		.byte	0x76
 4197 0f92 00       		.sleb128 0
 4198 0f93 22       		.uleb128 0x22
 4199 0f94 01       		.uleb128 0x1
 4200 0f95 50       		.byte	0x50
ARM GAS  C:\Users\jaohe\AppData\Local\Temp\ccbQAV2C.s 			page 92


 4201 0f96 02       		.uleb128 0x2
 4202 0f97 77       		.byte	0x77
 4203 0f98 00       		.sleb128 0
 4204 0f99 00       		.byte	0
 4205 0f9a 21       		.uleb128 0x21
 4206 0f9b 38000000 		.4byte	.LVL50
 4207 0f9f E51F0000 		.4byte	0x1fe5
 4208 0fa3 B10F0000 		.4byte	0xfb1
 4209 0fa7 22       		.uleb128 0x22
 4210 0fa8 01       		.uleb128 0x1
 4211 0fa9 50       		.byte	0x50
 4212 0faa 05       		.uleb128 0x5
 4213 0fab 0C       		.byte	0xc
 4214 0fac FFFFFF00 		.4byte	0xffffff
 4215 0fb0 00       		.byte	0
 4216 0fb1 21       		.uleb128 0x21
 4217 0fb2 3E000000 		.4byte	.LVL51
 4218 0fb6 98200000 		.4byte	0x2098
 4219 0fba C40F0000 		.4byte	0xfc4
 4220 0fbe 22       		.uleb128 0x22
 4221 0fbf 01       		.uleb128 0x1
 4222 0fc0 50       		.byte	0x50
 4223 0fc1 01       		.uleb128 0x1
 4224 0fc2 33       		.byte	0x33
 4225 0fc3 00       		.byte	0
 4226 0fc4 21       		.uleb128 0x21
 4227 0fc5 4A000000 		.4byte	.LVL52
 4228 0fc9 AE200000 		.4byte	0x20ae
 4229 0fcd EA0F0000 		.4byte	0xfea
 4230 0fd1 22       		.uleb128 0x22
 4231 0fd2 01       		.uleb128 0x1
 4232 0fd3 53       		.byte	0x53
 4233 0fd4 02       		.uleb128 0x2
 4234 0fd5 78       		.byte	0x78
 4235 0fd6 00       		.sleb128 0
 4236 0fd7 22       		.uleb128 0x22
 4237 0fd8 01       		.uleb128 0x1
 4238 0fd9 52       		.byte	0x52
 4239 0fda 02       		.uleb128 0x2
 4240 0fdb 79       		.byte	0x79
 4241 0fdc 00       		.sleb128 0
 4242 0fdd 22       		.uleb128 0x22
 4243 0fde 01       		.uleb128 0x1
 4244 0fdf 51       		.byte	0x51
 4245 0fe0 02       		.uleb128 0x2
 4246 0fe1 76       		.byte	0x76
 4247 0fe2 00       		.sleb128 0
 4248 0fe3 22       		.uleb128 0x22
 4249 0fe4 01       		.uleb128 0x1
 4250 0fe5 50       		.byte	0x50
 4251 0fe6 02       		.uleb128 0x2
 4252 0fe7 77       		.byte	0x77
 4253 0fe8 00       		.sleb128 0
 4254 0fe9 00       		.byte	0
 4255 0fea 21       		.uleb128 0x21
 4256 0feb 50000000 		.4byte	.LVL53
 4257 0fef 98200000 		.4byte	0x2098
ARM GAS  C:\Users\jaohe\AppData\Local\Temp\ccbQAV2C.s 			page 93


 4258 0ff3 FD0F0000 		.4byte	0xffd
 4259 0ff7 22       		.uleb128 0x22
 4260 0ff8 01       		.uleb128 0x1
 4261 0ff9 50       		.byte	0x50
 4262 0ffa 01       		.uleb128 0x1
 4263 0ffb 31       		.byte	0x31
 4264 0ffc 00       		.byte	0
 4265 0ffd 21       		.uleb128 0x21
 4266 0ffe 68000000 		.4byte	.LVL54
 4267 1002 E51F0000 		.4byte	0x1fe5
 4268 1006 14100000 		.4byte	0x1014
 4269 100a 22       		.uleb128 0x22
 4270 100b 01       		.uleb128 0x1
 4271 100c 50       		.byte	0x50
 4272 100d 05       		.uleb128 0x5
 4273 100e 0C       		.byte	0xc
 4274 100f FFFFFF00 		.4byte	0xffffff
 4275 1013 00       		.byte	0
 4276 1014 27       		.uleb128 0x27
 4277 1015 6E000000 		.4byte	.LVL55
 4278 1019 CF1F0000 		.4byte	0x1fcf
 4279 101d 23       		.uleb128 0x23
 4280 101e 7A000000 		.4byte	.LVL56
 4281 1022 CF200000 		.4byte	0x20cf
 4282 1026 22       		.uleb128 0x22
 4283 1027 01       		.uleb128 0x1
 4284 1028 53       		.byte	0x53
 4285 1029 01       		.uleb128 0x1
 4286 102a 31       		.byte	0x31
 4287 102b 22       		.uleb128 0x22
 4288 102c 01       		.uleb128 0x1
 4289 102d 52       		.byte	0x52
 4290 102e 01       		.uleb128 0x1
 4291 102f 3E       		.byte	0x3e
 4292 1030 22       		.uleb128 0x22
 4293 1031 01       		.uleb128 0x1
 4294 1032 51       		.byte	0x51
 4295 1033 02       		.uleb128 0x2
 4296 1034 7D       		.byte	0x7d
 4297 1035 00       		.sleb128 0
 4298 1036 22       		.uleb128 0x22
 4299 1037 01       		.uleb128 0x1
 4300 1038 50       		.byte	0x50
 4301 1039 03       		.uleb128 0x3
 4302 103a 91       		.byte	0x91
 4303 103b 00       		.sleb128 0
 4304 103c 06       		.byte	0x6
 4305 103d 00       		.byte	0
 4306 103e 00       		.byte	0
 4307 103f 33       		.uleb128 0x33
 4308 1040 F2000000 		.4byte	.LASF168
 4309 1044 01       		.byte	0x1
 4310 1045 2602     		.2byte	0x226
 4311 1047 33000000 		.4byte	0x33
 4312 104b 00000000 		.4byte	.LFB75
 4313 104f 84010000 		.4byte	.LFE75-.LFB75
 4314 1053 01       		.uleb128 0x1
ARM GAS  C:\Users\jaohe\AppData\Local\Temp\ccbQAV2C.s 			page 94


 4315 1054 9C       		.byte	0x9c
 4316 1055 6B120000 		.4byte	0x126b
 4317 1059 2D       		.uleb128 0x2d
 4318 105a 7B020000 		.4byte	.LASF169
 4319 105e 01       		.byte	0x1
 4320 105f 2E02     		.2byte	0x22e
 4321 1061 EE020000 		.4byte	0x2ee
 4322 1065 02       		.uleb128 0x2
 4323 1066 91       		.byte	0x91
 4324 1067 50       		.sleb128 -48
 4325 1068 2D       		.uleb128 0x2d
 4326 1069 76060000 		.4byte	.LASF170
 4327 106d 01       		.byte	0x1
 4328 106e 2F02     		.2byte	0x22f
 4329 1070 6B120000 		.4byte	0x126b
 4330 1074 03       		.uleb128 0x3
 4331 1075 91       		.byte	0x91
 4332 1076 9C7F     		.sleb128 -100
 4333 1078 34       		.uleb128 0x34
 4334 1079 DE0B0000 		.4byte	.LASF171
 4335 107d 01       		.byte	0x1
 4336 107e 3502     		.2byte	0x235
 4337 1080 EE020000 		.4byte	0x2ee
 4338 1084 2D       		.uleb128 0x2d
 4339 1085 45050000 		.4byte	.LASF172
 4340 1089 01       		.byte	0x1
 4341 108a 3902     		.2byte	0x239
 4342 108c 7B120000 		.4byte	0x127b
 4343 1090 03       		.uleb128 0x3
 4344 1091 91       		.byte	0x91
 4345 1092 9C7E     		.sleb128 -228
 4346 1094 35       		.uleb128 0x35
 4347 1095 7400     		.ascii	"t\000"
 4348 1097 01       		.byte	0x1
 4349 1098 3A02     		.2byte	0x23a
 4350 109a 2B0B0000 		.4byte	0xb2b
 4351 109e 03       		.uleb128 0x3
 4352 109f 91       		.byte	0x91
 4353 10a0 987E     		.sleb128 -232
 4354 10a2 2D       		.uleb128 0x2d
 4355 10a3 04030000 		.4byte	.LASF173
 4356 10a7 01       		.byte	0x1
 4357 10a8 4402     		.2byte	0x244
 4358 10aa 9E090000 		.4byte	0x99e
 4359 10ae 03       		.uleb128 0x3
 4360 10af 91       		.byte	0x91
 4361 10b0 987C     		.sleb128 -488
 4362 10b2 21       		.uleb128 0x21
 4363 10b3 0C000000 		.4byte	.LVL58
 4364 10b7 B51F0000 		.4byte	0x1fb5
 4365 10bb C9100000 		.4byte	0x10c9
 4366 10bf 22       		.uleb128 0x22
 4367 10c0 01       		.uleb128 0x1
 4368 10c1 50       		.byte	0x50
 4369 10c2 05       		.uleb128 0x5
 4370 10c3 0C       		.byte	0xc
 4371 10c4 6CC96B00 		.4byte	0x6bc96c
ARM GAS  C:\Users\jaohe\AppData\Local\Temp\ccbQAV2C.s 			page 95


 4372 10c8 00       		.byte	0
 4373 10c9 27       		.uleb128 0x27
 4374 10ca 10000000 		.4byte	.LVL59
 4375 10ce C71F0000 		.4byte	0x1fc7
 4376 10d2 27       		.uleb128 0x27
 4377 10d3 16000000 		.4byte	.LVL60
 4378 10d7 CF1F0000 		.4byte	0x1fcf
 4379 10db 21       		.uleb128 0x21
 4380 10dc 1C000000 		.4byte	.LVL61
 4381 10e0 E51F0000 		.4byte	0x1fe5
 4382 10e4 F2100000 		.4byte	0x10f2
 4383 10e8 22       		.uleb128 0x22
 4384 10e9 01       		.uleb128 0x1
 4385 10ea 50       		.byte	0x50
 4386 10eb 05       		.uleb128 0x5
 4387 10ec 0C       		.byte	0xc
 4388 10ed 25141800 		.4byte	0x181425
 4389 10f1 00       		.byte	0
 4390 10f2 21       		.uleb128 0x21
 4391 10f3 38000000 		.4byte	.LVL62
 4392 10f7 F0200000 		.4byte	0x20f0
 4393 10fb 10110000 		.4byte	0x1110
 4394 10ff 22       		.uleb128 0x22
 4395 1100 01       		.uleb128 0x1
 4396 1101 51       		.byte	0x51
 4397 1102 05       		.uleb128 0x5
 4398 1103 03       		.byte	0x3
 4399 1104 0C000000 		.4byte	.LC10
 4400 1108 22       		.uleb128 0x22
 4401 1109 01       		.uleb128 0x1
 4402 110a 50       		.byte	0x50
 4403 110b 03       		.uleb128 0x3
 4404 110c 91       		.byte	0x91
 4405 110d 9C7F     		.sleb128 -100
 4406 110f 00       		.byte	0
 4407 1110 21       		.uleb128 0x21
 4408 1111 44000000 		.4byte	.LVL63
 4409 1115 CF200000 		.4byte	0x20cf
 4410 1119 37110000 		.4byte	0x1137
 4411 111d 22       		.uleb128 0x22
 4412 111e 01       		.uleb128 0x1
 4413 111f 53       		.byte	0x53
 4414 1120 01       		.uleb128 0x1
 4415 1121 31       		.byte	0x31
 4416 1122 22       		.uleb128 0x22
 4417 1123 01       		.uleb128 0x1
 4418 1124 52       		.byte	0x52
 4419 1125 01       		.uleb128 0x1
 4420 1126 3E       		.byte	0x3e
 4421 1127 22       		.uleb128 0x22
 4422 1128 01       		.uleb128 0x1
 4423 1129 51       		.byte	0x51
 4424 112a 02       		.uleb128 0x2
 4425 112b 91       		.byte	0x91
 4426 112c 50       		.sleb128 -48
 4427 112d 22       		.uleb128 0x22
 4428 112e 01       		.uleb128 0x1
ARM GAS  C:\Users\jaohe\AppData\Local\Temp\ccbQAV2C.s 			page 96


 4429 112f 50       		.byte	0x50
 4430 1130 05       		.uleb128 0x5
 4431 1131 03       		.byte	0x3
 4432 1132 20000000 		.4byte	.LC11
 4433 1136 00       		.byte	0
 4434 1137 27       		.uleb128 0x27
 4435 1138 4A000000 		.4byte	.LVL64
 4436 113c CF1F0000 		.4byte	0x1fcf
 4437 1140 21       		.uleb128 0x21
 4438 1141 50000000 		.4byte	.LVL65
 4439 1145 E51F0000 		.4byte	0x1fe5
 4440 1149 57110000 		.4byte	0x1157
 4441 114d 22       		.uleb128 0x22
 4442 114e 01       		.uleb128 0x1
 4443 114f 50       		.byte	0x50
 4444 1150 05       		.uleb128 0x5
 4445 1151 0C       		.byte	0xc
 4446 1152 C5AB8D00 		.4byte	0x8dabc5
 4447 1156 00       		.byte	0
 4448 1157 21       		.uleb128 0x21
 4449 1158 5C000000 		.4byte	.LVL66
 4450 115c CF200000 		.4byte	0x20cf
 4451 1160 7E110000 		.4byte	0x117e
 4452 1164 22       		.uleb128 0x22
 4453 1165 01       		.uleb128 0x1
 4454 1166 53       		.byte	0x53
 4455 1167 01       		.uleb128 0x1
 4456 1168 31       		.byte	0x31
 4457 1169 22       		.uleb128 0x22
 4458 116a 01       		.uleb128 0x1
 4459 116b 52       		.byte	0x52
 4460 116c 01       		.uleb128 0x1
 4461 116d 32       		.byte	0x32
 4462 116e 22       		.uleb128 0x22
 4463 116f 01       		.uleb128 0x1
 4464 1170 51       		.byte	0x51
 4465 1171 02       		.uleb128 0x2
 4466 1172 91       		.byte	0x91
 4467 1173 50       		.sleb128 -48
 4468 1174 22       		.uleb128 0x22
 4469 1175 01       		.uleb128 0x1
 4470 1176 50       		.byte	0x50
 4471 1177 05       		.uleb128 0x5
 4472 1178 03       		.byte	0x3
 4473 1179 28000000 		.4byte	.LC12
 4474 117d 00       		.byte	0
 4475 117e 27       		.uleb128 0x27
 4476 117f 6C000000 		.4byte	.LVL67
 4477 1183 0B210000 		.4byte	0x210b
 4478 1187 21       		.uleb128 0x21
 4479 1188 C0000000 		.4byte	.LVL68
 4480 118c 20210000 		.4byte	0x2120
 4481 1190 B9110000 		.4byte	0x11b9
 4482 1194 22       		.uleb128 0x22
 4483 1195 01       		.uleb128 0x1
 4484 1196 52       		.byte	0x52
 4485 1197 05       		.uleb128 0x5
ARM GAS  C:\Users\jaohe\AppData\Local\Temp\ccbQAV2C.s 			page 97


 4486 1198 03       		.byte	0x3
 4487 1199 38000000 		.4byte	.LC13
 4488 119d 22       		.uleb128 0x22
 4489 119e 01       		.uleb128 0x1
 4490 119f 51       		.byte	0x51
 4491 11a0 02       		.uleb128 0x2
 4492 11a1 08       		.byte	0x8
 4493 11a2 80       		.byte	0x80
 4494 11a3 22       		.uleb128 0x22
 4495 11a4 01       		.uleb128 0x1
 4496 11a5 50       		.byte	0x50
 4497 11a6 03       		.uleb128 0x3
 4498 11a7 91       		.byte	0x91
 4499 11a8 9C7E     		.sleb128 -228
 4500 11aa 22       		.uleb128 0x22
 4501 11ab 02       		.uleb128 0x2
 4502 11ac 7D       		.byte	0x7d
 4503 11ad 08       		.sleb128 8
 4504 11ae 02       		.uleb128 0x2
 4505 11af 77       		.byte	0x77
 4506 11b0 00       		.sleb128 0
 4507 11b1 22       		.uleb128 0x22
 4508 11b2 02       		.uleb128 0x2
 4509 11b3 7D       		.byte	0x7d
 4510 11b4 04       		.sleb128 4
 4511 11b5 02       		.uleb128 0x2
 4512 11b6 78       		.byte	0x78
 4513 11b7 00       		.sleb128 0
 4514 11b8 00       		.byte	0
 4515 11b9 21       		.uleb128 0x21
 4516 11ba CA000000 		.4byte	.LVL69
 4517 11be 41210000 		.4byte	0x2141
 4518 11c2 DC110000 		.4byte	0x11dc
 4519 11c6 22       		.uleb128 0x22
 4520 11c7 01       		.uleb128 0x1
 4521 11c8 52       		.byte	0x52
 4522 11c9 05       		.uleb128 0x5
 4523 11ca 03       		.byte	0x3
 4524 11cb 80000000 		.4byte	.LC14
 4525 11cf 22       		.uleb128 0x22
 4526 11d0 01       		.uleb128 0x1
 4527 11d1 51       		.byte	0x51
 4528 11d2 03       		.uleb128 0x3
 4529 11d3 91       		.byte	0x91
 4530 11d4 9C7E     		.sleb128 -228
 4531 11d6 22       		.uleb128 0x22
 4532 11d7 01       		.uleb128 0x1
 4533 11d8 50       		.byte	0x50
 4534 11d9 01       		.uleb128 0x1
 4535 11da 30       		.byte	0x30
 4536 11db 00       		.byte	0
 4537 11dc 21       		.uleb128 0x21
 4538 11dd 1A010000 		.4byte	.LVL70
 4539 11e1 20210000 		.4byte	0x2120
 4540 11e5 0F120000 		.4byte	0x120f
 4541 11e9 22       		.uleb128 0x22
 4542 11ea 01       		.uleb128 0x1
ARM GAS  C:\Users\jaohe\AppData\Local\Temp\ccbQAV2C.s 			page 98


 4543 11eb 52       		.byte	0x52
 4544 11ec 05       		.uleb128 0x5
 4545 11ed 03       		.byte	0x3
 4546 11ee 8C000000 		.4byte	.LC15
 4547 11f2 22       		.uleb128 0x22
 4548 11f3 01       		.uleb128 0x1
 4549 11f4 51       		.byte	0x51
 4550 11f5 03       		.uleb128 0x3
 4551 11f6 0A       		.byte	0xa
 4552 11f7 0001     		.2byte	0x100
 4553 11f9 22       		.uleb128 0x22
 4554 11fa 01       		.uleb128 0x1
 4555 11fb 50       		.byte	0x50
 4556 11fc 03       		.uleb128 0x3
 4557 11fd 91       		.byte	0x91
 4558 11fe 987C     		.sleb128 -488
 4559 1200 22       		.uleb128 0x22
 4560 1201 02       		.uleb128 0x2
 4561 1202 7D       		.byte	0x7d
 4562 1203 0C       		.sleb128 12
 4563 1204 02       		.uleb128 0x2
 4564 1205 77       		.byte	0x77
 4565 1206 00       		.sleb128 0
 4566 1207 22       		.uleb128 0x22
 4567 1208 02       		.uleb128 0x2
 4568 1209 7D       		.byte	0x7d
 4569 120a 08       		.sleb128 8
 4570 120b 02       		.uleb128 0x2
 4571 120c 78       		.byte	0x78
 4572 120d 00       		.sleb128 0
 4573 120e 00       		.byte	0
 4574 120f 21       		.uleb128 0x21
 4575 1210 20010000 		.4byte	.LVL71
 4576 1214 5C210000 		.4byte	0x215c
 4577 1218 24120000 		.4byte	0x1224
 4578 121c 22       		.uleb128 0x22
 4579 121d 01       		.uleb128 0x1
 4580 121e 50       		.byte	0x50
 4581 121f 03       		.uleb128 0x3
 4582 1220 91       		.byte	0x91
 4583 1221 987C     		.sleb128 -488
 4584 1223 00       		.byte	0
 4585 1224 21       		.uleb128 0x21
 4586 1225 26010000 		.4byte	.LVL72
 4587 1229 6D210000 		.4byte	0x216d
 4588 122d 37120000 		.4byte	0x1237
 4589 1231 22       		.uleb128 0x22
 4590 1232 01       		.uleb128 0x1
 4591 1233 50       		.byte	0x50
 4592 1234 01       		.uleb128 0x1
 4593 1235 3A       		.byte	0x3a
 4594 1236 00       		.byte	0
 4595 1237 21       		.uleb128 0x21
 4596 1238 2C010000 		.4byte	.LVL73
 4597 123c 6D210000 		.4byte	0x216d
 4598 1240 4A120000 		.4byte	0x124a
 4599 1244 22       		.uleb128 0x22
ARM GAS  C:\Users\jaohe\AppData\Local\Temp\ccbQAV2C.s 			page 99


 4600 1245 01       		.uleb128 0x1
 4601 1246 50       		.byte	0x50
 4602 1247 01       		.uleb128 0x1
 4603 1248 3A       		.byte	0x3a
 4604 1249 00       		.byte	0
 4605 124a 21       		.uleb128 0x21
 4606 124b 32010000 		.4byte	.LVL74
 4607 124f 5C210000 		.4byte	0x215c
 4608 1253 61120000 		.4byte	0x1261
 4609 1257 22       		.uleb128 0x22
 4610 1258 01       		.uleb128 0x1
 4611 1259 50       		.byte	0x50
 4612 125a 05       		.uleb128 0x5
 4613 125b 03       		.byte	0x3
 4614 125c 68010000 		.4byte	.LC16
 4615 1260 00       		.byte	0
 4616 1261 27       		.uleb128 0x27
 4617 1262 36010000 		.4byte	.LVL75
 4618 1266 7E210000 		.4byte	0x217e
 4619 126a 00       		.byte	0
 4620 126b 1B       		.uleb128 0x1b
 4621 126c CB000000 		.4byte	0xcb
 4622 1270 7B120000 		.4byte	0x127b
 4623 1274 1C       		.uleb128 0x1c
 4624 1275 53090000 		.4byte	0x953
 4625 1279 31       		.byte	0x31
 4626 127a 00       		.byte	0
 4627 127b 1B       		.uleb128 0x1b
 4628 127c CB000000 		.4byte	0xcb
 4629 1280 8B120000 		.4byte	0x128b
 4630 1284 1C       		.uleb128 0x1c
 4631 1285 53090000 		.4byte	0x953
 4632 1289 7F       		.byte	0x7f
 4633 128a 00       		.byte	0
 4634 128b 2B       		.uleb128 0x2b
 4635 128c 5E0B0000 		.4byte	.LASF174
 4636 1290 01       		.byte	0x1
 4637 1291 DE01     		.2byte	0x1de
 4638 1293 33000000 		.4byte	0x33
 4639 1297 00000000 		.4byte	.LFB74
 4640 129b C0010000 		.4byte	.LFE74-.LFB74
 4641 129f 01       		.uleb128 0x1
 4642 12a0 9C       		.byte	0x9c
 4643 12a1 6A150000 		.4byte	0x156a
 4644 12a5 2F       		.uleb128 0x2f
 4645 12a6 29050000 		.4byte	.LASF143
 4646 12aa 01       		.byte	0x1
 4647 12ab DE01     		.2byte	0x1de
 4648 12ad A20B0000 		.4byte	0xba2
 4649 12b1 03       		.uleb128 0x3
 4650 12b2 91       		.byte	0x91
 4651 12b3 A47F     		.sleb128 -92
 4652 12b5 36       		.uleb128 0x36
 4653 12b6 6F010000 		.4byte	.LASF195
 4654 12ba 01       		.byte	0x1
 4655 12bb DF01     		.2byte	0x1df
 4656 12bd E60B0000 		.4byte	0xbe6
ARM GAS  C:\Users\jaohe\AppData\Local\Temp\ccbQAV2C.s 			page 100


 4657 12c1 35       		.uleb128 0x35
 4658 12c2 6E6F7700 		.ascii	"now\000"
 4659 12c6 01       		.byte	0x1
 4660 12c7 E001     		.2byte	0x1e0
 4661 12c9 B80A0000 		.4byte	0xab8
 4662 12cd 02       		.uleb128 0x2
 4663 12ce 91       		.byte	0x91
 4664 12cf 68       		.sleb128 -24
 4665 12d0 2D       		.uleb128 0x2d
 4666 12d1 B7000000 		.4byte	.LASF144
 4667 12d5 01       		.byte	0x1
 4668 12d6 E101     		.2byte	0x1e1
 4669 12d8 2B0B0000 		.4byte	0xb2b
 4670 12dc 02       		.uleb128 0x2
 4671 12dd 91       		.byte	0x91
 4672 12de 64       		.sleb128 -28
 4673 12df 2D       		.uleb128 0x2d
 4674 12e0 7B020000 		.4byte	.LASF169
 4675 12e4 01       		.byte	0x1
 4676 12e5 ED01     		.2byte	0x1ed
 4677 12e7 EE020000 		.4byte	0x2ee
 4678 12eb 02       		.uleb128 0x2
 4679 12ec 91       		.byte	0x91
 4680 12ed 5C       		.sleb128 -36
 4681 12ee 2D       		.uleb128 0x2d
 4682 12ef DE0B0000 		.4byte	.LASF171
 4683 12f3 01       		.byte	0x1
 4684 12f4 F401     		.2byte	0x1f4
 4685 12f6 EE020000 		.4byte	0x2ee
 4686 12fa 02       		.uleb128 0x2
 4687 12fb 91       		.byte	0x91
 4688 12fc 54       		.sleb128 -44
 4689 12fd 2D       		.uleb128 0x2d
 4690 12fe 76060000 		.4byte	.LASF170
 4691 1302 01       		.byte	0x1
 4692 1303 F701     		.2byte	0x1f7
 4693 1305 6A150000 		.4byte	0x156a
 4694 1309 03       		.uleb128 0x3
 4695 130a 91       		.byte	0x91
 4696 130b B87F     		.sleb128 -72
 4697 130d 37       		.uleb128 0x37
 4698 130e B4000000 		.4byte	.LBB2
 4699 1312 CE000000 		.4byte	.LBE2-.LBB2
 4700 1316 6F140000 		.4byte	0x146f
 4701 131a 2D       		.uleb128 0x2d
 4702 131b B0060000 		.4byte	.LASF175
 4703 131f 01       		.byte	0x1
 4704 1320 1202     		.2byte	0x212
 4705 1322 EE020000 		.4byte	0x2ee
 4706 1326 03       		.uleb128 0x3
 4707 1327 91       		.byte	0x91
 4708 1328 B07F     		.sleb128 -80
 4709 132a 37       		.uleb128 0x37
 4710 132b C2000000 		.4byte	.LBB3
 4711 132f 4A000000 		.4byte	.LBE3-.LBB3
 4712 1333 AC130000 		.4byte	0x13ac
 4713 1337 2E       		.uleb128 0x2e
ARM GAS  C:\Users\jaohe\AppData\Local\Temp\ccbQAV2C.s 			page 101


 4714 1338 640C0000 		.4byte	.LASF176
 4715 133c 01       		.byte	0x1
 4716 133d 0402     		.2byte	0x204
 4717 133f 33000000 		.4byte	0x33
 4718 1343 A7010000 		.4byte	.LLST9
 4719 1347 2E       		.uleb128 0x2e
 4720 1348 0A070000 		.4byte	.LASF177
 4721 134c 01       		.byte	0x1
 4722 134d 0502     		.2byte	0x205
 4723 134f 33000000 		.4byte	0x33
 4724 1353 0F020000 		.4byte	.LLST10
 4725 1357 2E       		.uleb128 0x2e
 4726 1358 9B070000 		.4byte	.LASF178
 4727 135c 01       		.byte	0x1
 4728 135d 0602     		.2byte	0x206
 4729 135f 33000000 		.4byte	0x33
 4730 1363 22020000 		.4byte	.LLST11
 4731 1367 21       		.uleb128 0x21
 4732 1368 FE000000 		.4byte	.LVL89
 4733 136c E51F0000 		.4byte	0x1fe5
 4734 1370 7E130000 		.4byte	0x137e
 4735 1374 22       		.uleb128 0x22
 4736 1375 01       		.uleb128 0x1
 4737 1376 50       		.byte	0x50
 4738 1377 05       		.uleb128 0x5
 4739 1378 0C       		.byte	0xc
 4740 1379 6262EA00 		.4byte	0xea6262
 4741 137d 00       		.byte	0
 4742 137e 23       		.uleb128 0x23
 4743 137f 0C010000 		.4byte	.LVL90
 4744 1383 F0200000 		.4byte	0x20f0
 4745 1387 22       		.uleb128 0x22
 4746 1388 01       		.uleb128 0x1
 4747 1389 53       		.byte	0x53
 4748 138a 02       		.uleb128 0x2
 4749 138b 75       		.byte	0x75
 4750 138c 00       		.sleb128 0
 4751 138d 22       		.uleb128 0x22
 4752 138e 01       		.uleb128 0x1
 4753 138f 52       		.byte	0x52
 4754 1390 02       		.uleb128 0x2
 4755 1391 76       		.byte	0x76
 4756 1392 00       		.sleb128 0
 4757 1393 22       		.uleb128 0x22
 4758 1394 01       		.uleb128 0x1
 4759 1395 51       		.byte	0x51
 4760 1396 05       		.uleb128 0x5
 4761 1397 03       		.byte	0x3
 4762 1398 B0010000 		.4byte	.LC19
 4763 139c 22       		.uleb128 0x22
 4764 139d 01       		.uleb128 0x1
 4765 139e 50       		.byte	0x50
 4766 139f 03       		.uleb128 0x3
 4767 13a0 91       		.byte	0x91
 4768 13a1 B87F     		.sleb128 -72
 4769 13a3 22       		.uleb128 0x22
 4770 13a4 02       		.uleb128 0x2
ARM GAS  C:\Users\jaohe\AppData\Local\Temp\ccbQAV2C.s 			page 102


 4771 13a5 7D       		.byte	0x7d
 4772 13a6 00       		.sleb128 0
 4773 13a7 02       		.uleb128 0x2
 4774 13a8 74       		.byte	0x74
 4775 13a9 00       		.sleb128 0
 4776 13aa 00       		.byte	0
 4777 13ab 00       		.byte	0
 4778 13ac 37       		.uleb128 0x37
 4779 13ad 0E010000 		.4byte	.LBB4
 4780 13b1 50000000 		.4byte	.LBE4-.LBB4
 4781 13b5 2E140000 		.4byte	0x142e
 4782 13b9 2E       		.uleb128 0x2e
 4783 13ba 640C0000 		.4byte	.LASF176
 4784 13be 01       		.byte	0x1
 4785 13bf 0A02     		.2byte	0x20a
 4786 13c1 33000000 		.4byte	0x33
 4787 13c5 35020000 		.4byte	.LLST12
 4788 13c9 2E       		.uleb128 0x2e
 4789 13ca 0A070000 		.4byte	.LASF177
 4790 13ce 01       		.byte	0x1
 4791 13cf 0B02     		.2byte	0x20b
 4792 13d1 33000000 		.4byte	0x33
 4793 13d5 9D020000 		.4byte	.LLST13
 4794 13d9 2E       		.uleb128 0x2e
 4795 13da 9B070000 		.4byte	.LASF178
 4796 13de 01       		.byte	0x1
 4797 13df 0C02     		.2byte	0x20c
 4798 13e1 33000000 		.4byte	0x33
 4799 13e5 B0020000 		.4byte	.LLST14
 4800 13e9 21       		.uleb128 0x21
 4801 13ea 50010000 		.4byte	.LVL96
 4802 13ee E51F0000 		.4byte	0x1fe5
 4803 13f2 00140000 		.4byte	0x1400
 4804 13f6 22       		.uleb128 0x22
 4805 13f7 01       		.uleb128 0x1
 4806 13f8 50       		.byte	0x50
 4807 13f9 05       		.uleb128 0x5
 4808 13fa 0C       		.byte	0xc
 4809 13fb FFFFFF00 		.4byte	0xffffff
 4810 13ff 00       		.byte	0
 4811 1400 23       		.uleb128 0x23
 4812 1401 5E010000 		.4byte	.LVL97
 4813 1405 F0200000 		.4byte	0x20f0
 4814 1409 22       		.uleb128 0x22
 4815 140a 01       		.uleb128 0x1
 4816 140b 53       		.byte	0x53
 4817 140c 02       		.uleb128 0x2
 4818 140d 75       		.byte	0x75
 4819 140e 00       		.sleb128 0
 4820 140f 22       		.uleb128 0x22
 4821 1410 01       		.uleb128 0x1
 4822 1411 52       		.byte	0x52
 4823 1412 02       		.uleb128 0x2
 4824 1413 76       		.byte	0x76
 4825 1414 00       		.sleb128 0
 4826 1415 22       		.uleb128 0x22
 4827 1416 01       		.uleb128 0x1
ARM GAS  C:\Users\jaohe\AppData\Local\Temp\ccbQAV2C.s 			page 103


 4828 1417 51       		.byte	0x51
 4829 1418 05       		.uleb128 0x5
 4830 1419 03       		.byte	0x3
 4831 141a B0010000 		.4byte	.LC19
 4832 141e 22       		.uleb128 0x22
 4833 141f 01       		.uleb128 0x1
 4834 1420 50       		.byte	0x50
 4835 1421 03       		.uleb128 0x3
 4836 1422 91       		.byte	0x91
 4837 1423 B87F     		.sleb128 -72
 4838 1425 22       		.uleb128 0x22
 4839 1426 02       		.uleb128 0x2
 4840 1427 7D       		.byte	0x7d
 4841 1428 00       		.sleb128 0
 4842 1429 02       		.uleb128 0x2
 4843 142a 74       		.byte	0x74
 4844 142b 00       		.sleb128 0
 4845 142c 00       		.byte	0
 4846 142d 00       		.byte	0
 4847 142e 27       		.uleb128 0x27
 4848 142f 70010000 		.4byte	.LVL98
 4849 1433 CF1F0000 		.4byte	0x1fcf
 4850 1437 21       		.uleb128 0x21
 4851 1438 76010000 		.4byte	.LVL99
 4852 143c 89210000 		.4byte	0x2189
 4853 1440 4C140000 		.4byte	0x144c
 4854 1444 22       		.uleb128 0x22
 4855 1445 01       		.uleb128 0x1
 4856 1446 50       		.byte	0x50
 4857 1447 03       		.uleb128 0x3
 4858 1448 91       		.byte	0x91
 4859 1449 B07F     		.sleb128 -80
 4860 144b 00       		.byte	0
 4861 144c 23       		.uleb128 0x23
 4862 144d 82010000 		.4byte	.LVL100
 4863 1451 CF200000 		.4byte	0x20cf
 4864 1455 22       		.uleb128 0x22
 4865 1456 01       		.uleb128 0x1
 4866 1457 53       		.byte	0x53
 4867 1458 01       		.uleb128 0x1
 4868 1459 31       		.byte	0x31
 4869 145a 22       		.uleb128 0x22
 4870 145b 01       		.uleb128 0x1
 4871 145c 52       		.byte	0x52
 4872 145d 01       		.uleb128 0x1
 4873 145e 3E       		.byte	0x3e
 4874 145f 22       		.uleb128 0x22
 4875 1460 01       		.uleb128 0x1
 4876 1461 51       		.byte	0x51
 4877 1462 03       		.uleb128 0x3
 4878 1463 91       		.byte	0x91
 4879 1464 B07F     		.sleb128 -80
 4880 1466 22       		.uleb128 0x22
 4881 1467 01       		.uleb128 0x1
 4882 1468 50       		.byte	0x50
 4883 1469 03       		.uleb128 0x3
 4884 146a 91       		.byte	0x91
ARM GAS  C:\Users\jaohe\AppData\Local\Temp\ccbQAV2C.s 			page 104


 4885 146b B87F     		.sleb128 -72
 4886 146d 00       		.byte	0
 4887 146e 00       		.byte	0
 4888 146f 21       		.uleb128 0x21
 4889 1470 10000000 		.4byte	.LVL76
 4890 1474 9B210000 		.4byte	0x219b
 4891 1478 83140000 		.4byte	0x1483
 4892 147c 22       		.uleb128 0x22
 4893 147d 01       		.uleb128 0x1
 4894 147e 50       		.byte	0x50
 4895 147f 02       		.uleb128 0x2
 4896 1480 91       		.byte	0x91
 4897 1481 68       		.sleb128 -24
 4898 1482 00       		.byte	0
 4899 1483 21       		.uleb128 0x21
 4900 1484 4E000000 		.4byte	.LVL77
 4901 1488 B51F0000 		.4byte	0x1fb5
 4902 148c 9A140000 		.4byte	0x149a
 4903 1490 22       		.uleb128 0x22
 4904 1491 01       		.uleb128 0x1
 4905 1492 50       		.byte	0x50
 4906 1493 05       		.uleb128 0x5
 4907 1494 0C       		.byte	0xc
 4908 1495 442B2600 		.4byte	0x262b44
 4909 1499 00       		.byte	0
 4910 149a 27       		.uleb128 0x27
 4911 149b 52000000 		.4byte	.LVL78
 4912 149f C71F0000 		.4byte	0x1fc7
 4913 14a3 21       		.uleb128 0x21
 4914 14a4 5A000000 		.4byte	.LVL79
 4915 14a8 CF1F0000 		.4byte	0x1fcf
 4916 14ac B7140000 		.4byte	0x14b7
 4917 14b0 22       		.uleb128 0x22
 4918 14b1 01       		.uleb128 0x1
 4919 14b2 50       		.byte	0x50
 4920 14b3 02       		.uleb128 0x2
 4921 14b4 76       		.byte	0x76
 4922 14b5 00       		.sleb128 0
 4923 14b6 00       		.byte	0
 4924 14b7 21       		.uleb128 0x21
 4925 14b8 70000000 		.4byte	.LVL80
 4926 14bc E51F0000 		.4byte	0x1fe5
 4927 14c0 CE140000 		.4byte	0x14ce
 4928 14c4 22       		.uleb128 0x22
 4929 14c5 01       		.uleb128 0x1
 4930 14c6 50       		.byte	0x50
 4931 14c7 05       		.uleb128 0x5
 4932 14c8 0C       		.byte	0xc
 4933 14c9 FFFFFF00 		.4byte	0xffffff
 4934 14cd 00       		.byte	0
 4935 14ce 21       		.uleb128 0x21
 4936 14cf 7C000000 		.4byte	.LVL81
 4937 14d3 CF200000 		.4byte	0x20cf
 4938 14d7 F5140000 		.4byte	0x14f5
 4939 14db 22       		.uleb128 0x22
 4940 14dc 01       		.uleb128 0x1
 4941 14dd 53       		.byte	0x53
ARM GAS  C:\Users\jaohe\AppData\Local\Temp\ccbQAV2C.s 			page 105


 4942 14de 01       		.uleb128 0x1
 4943 14df 31       		.byte	0x31
 4944 14e0 22       		.uleb128 0x22
 4945 14e1 01       		.uleb128 0x1
 4946 14e2 52       		.byte	0x52
 4947 14e3 01       		.uleb128 0x1
 4948 14e4 3E       		.byte	0x3e
 4949 14e5 22       		.uleb128 0x22
 4950 14e6 01       		.uleb128 0x1
 4951 14e7 51       		.byte	0x51
 4952 14e8 02       		.uleb128 0x2
 4953 14e9 91       		.byte	0x91
 4954 14ea 5C       		.sleb128 -36
 4955 14eb 22       		.uleb128 0x22
 4956 14ec 01       		.uleb128 0x1
 4957 14ed 50       		.byte	0x50
 4958 14ee 05       		.uleb128 0x5
 4959 14ef 03       		.byte	0x3
 4960 14f0 90010000 		.4byte	.LC17
 4961 14f4 00       		.byte	0
 4962 14f5 21       		.uleb128 0x21
 4963 14f6 82000000 		.4byte	.LVL82
 4964 14fa CF1F0000 		.4byte	0x1fcf
 4965 14fe 09150000 		.4byte	0x1509
 4966 1502 22       		.uleb128 0x22
 4967 1503 01       		.uleb128 0x1
 4968 1504 50       		.byte	0x50
 4969 1505 02       		.uleb128 0x2
 4970 1506 76       		.byte	0x76
 4971 1507 00       		.sleb128 0
 4972 1508 00       		.byte	0
 4973 1509 21       		.uleb128 0x21
 4974 150a 9A000000 		.4byte	.LVL83
 4975 150e CF200000 		.4byte	0x20cf
 4976 1512 2F150000 		.4byte	0x152f
 4977 1516 22       		.uleb128 0x22
 4978 1517 01       		.uleb128 0x1
 4979 1518 53       		.byte	0x53
 4980 1519 01       		.uleb128 0x1
 4981 151a 31       		.byte	0x31
 4982 151b 22       		.uleb128 0x22
 4983 151c 01       		.uleb128 0x1
 4984 151d 52       		.byte	0x52
 4985 151e 01       		.uleb128 0x1
 4986 151f 3E       		.byte	0x3e
 4987 1520 22       		.uleb128 0x22
 4988 1521 01       		.uleb128 0x1
 4989 1522 51       		.byte	0x51
 4990 1523 02       		.uleb128 0x2
 4991 1524 91       		.byte	0x91
 4992 1525 54       		.sleb128 -44
 4993 1526 22       		.uleb128 0x22
 4994 1527 01       		.uleb128 0x1
 4995 1528 50       		.byte	0x50
 4996 1529 04       		.uleb128 0x4
 4997 152a 91       		.byte	0x91
 4998 152b A47F     		.sleb128 -92
ARM GAS  C:\Users\jaohe\AppData\Local\Temp\ccbQAV2C.s 			page 106


 4999 152d 06       		.byte	0x6
 5000 152e 00       		.byte	0
 5001 152f 21       		.uleb128 0x21
 5002 1530 B2000000 		.4byte	.LVL84
 5003 1534 F00E0000 		.4byte	0xef0
 5004 1538 60150000 		.4byte	0x1560
 5005 153c 22       		.uleb128 0x22
 5006 153d 01       		.uleb128 0x1
 5007 153e 53       		.byte	0x53
 5008 153f 03       		.uleb128 0x3
 5009 1540 0A       		.byte	0xa
 5010 1541 3601     		.2byte	0x136
 5011 1543 22       		.uleb128 0x22
 5012 1544 01       		.uleb128 0x1
 5013 1545 52       		.byte	0x52
 5014 1546 02       		.uleb128 0x2
 5015 1547 08       		.byte	0x8
 5016 1548 E6       		.byte	0xe6
 5017 1549 22       		.uleb128 0x22
 5018 154a 01       		.uleb128 0x1
 5019 154b 51       		.byte	0x51
 5020 154c 03       		.uleb128 0x3
 5021 154d 0A       		.byte	0xa
 5022 154e 0A01     		.2byte	0x10a
 5023 1550 22       		.uleb128 0x22
 5024 1551 01       		.uleb128 0x1
 5025 1552 50       		.byte	0x50
 5026 1553 01       		.uleb128 0x1
 5027 1554 3A       		.byte	0x3a
 5028 1555 22       		.uleb128 0x22
 5029 1556 02       		.uleb128 0x2
 5030 1557 7D       		.byte	0x7d
 5031 1558 00       		.sleb128 0
 5032 1559 05       		.uleb128 0x5
 5033 155a 03       		.byte	0x3
 5034 155b A4010000 		.4byte	.LC18
 5035 155f 00       		.byte	0
 5036 1560 27       		.uleb128 0x27
 5037 1561 8E010000 		.4byte	.LVL101
 5038 1565 3F100000 		.4byte	0x103f
 5039 1569 00       		.byte	0
 5040 156a 1B       		.uleb128 0x1b
 5041 156b CB000000 		.4byte	0xcb
 5042 156f 7A150000 		.4byte	0x157a
 5043 1573 1C       		.uleb128 0x1c
 5044 1574 53090000 		.4byte	0x953
 5045 1578 1A       		.byte	0x1a
 5046 1579 00       		.byte	0
 5047 157a 2B       		.uleb128 0x2b
 5048 157b 2A080000 		.4byte	.LASF179
 5049 157f 01       		.byte	0x1
 5050 1580 6702     		.2byte	0x267
 5051 1582 33000000 		.4byte	0x33
 5052 1586 00000000 		.4byte	.LFB76
 5053 158a A8000000 		.4byte	.LFE76-.LFB76
 5054 158e 01       		.uleb128 0x1
 5055 158f 9C       		.byte	0x9c
ARM GAS  C:\Users\jaohe\AppData\Local\Temp\ccbQAV2C.s 			page 107


 5056 1590 F4160000 		.4byte	0x16f4
 5057 1594 2D       		.uleb128 0x2d
 5058 1595 7B020000 		.4byte	.LASF169
 5059 1599 01       		.byte	0x1
 5060 159a 6B02     		.2byte	0x26b
 5061 159c EE020000 		.4byte	0x2ee
 5062 15a0 02       		.uleb128 0x2
 5063 15a1 91       		.byte	0x91
 5064 15a2 68       		.sleb128 -24
 5065 15a3 2D       		.uleb128 0x2d
 5066 15a4 83070000 		.4byte	.LASF180
 5067 15a8 01       		.byte	0x1
 5068 15a9 6F02     		.2byte	0x26f
 5069 15ab 5E0A0000 		.4byte	0xa5e
 5070 15af 02       		.uleb128 0x2
 5071 15b0 91       		.byte	0x91
 5072 15b1 50       		.sleb128 -48
 5073 15b2 38       		.uleb128 0x38
 5074 15b3 7800     		.ascii	"x\000"
 5075 15b5 01       		.byte	0x1
 5076 15b6 7102     		.2byte	0x271
 5077 15b8 EC090000 		.4byte	0x9ec
 5078 15bc 05       		.byte	0x5
 5079 15bd 39       		.uleb128 0x39
 5080 15be 7900     		.ascii	"y\000"
 5081 15c0 01       		.byte	0x1
 5082 15c1 7202     		.2byte	0x272
 5083 15c3 EC090000 		.4byte	0x9ec
 5084 15c7 C3020000 		.4byte	.LLST15
 5085 15cb 39       		.uleb128 0x39
 5086 15cc 6100     		.ascii	"a\000"
 5087 15ce 01       		.byte	0x1
 5088 15cf 7402     		.2byte	0x274
 5089 15d1 E1090000 		.4byte	0x9e1
 5090 15d5 ED020000 		.4byte	.LLST16
 5091 15d9 3A       		.uleb128 0x3a
 5092 15da AF070000 		.4byte	.LASF181
 5093 15de 01       		.byte	0x1
 5094 15df 7502     		.2byte	0x275
 5095 15e1 EC090000 		.4byte	0x9ec
 5096 15e5 05       		.byte	0x5
 5097 15e6 37       		.uleb128 0x37
 5098 15e7 5C000000 		.4byte	.LBB5
 5099 15eb 1C000000 		.4byte	.LBE5-.LBB5
 5100 15ef 3B160000 		.4byte	0x163b
 5101 15f3 35       		.uleb128 0x35
 5102 15f4 6300     		.ascii	"c\000"
 5103 15f6 01       		.byte	0x1
 5104 15f7 7A02     		.2byte	0x27a
 5105 15f9 0D0A0000 		.4byte	0xa0d
 5106 15fd 02       		.uleb128 0x2
 5107 15fe 91       		.byte	0x91
 5108 15ff 4F       		.sleb128 -49
 5109 1600 27       		.uleb128 0x27
 5110 1601 60000000 		.4byte	.LVL109
 5111 1605 AC210000 		.4byte	0x21ac
 5112 1609 27       		.uleb128 0x27
ARM GAS  C:\Users\jaohe\AppData\Local\Temp\ccbQAV2C.s 			page 108


 5113 160a 6A000000 		.4byte	.LVL110
 5114 160e B7210000 		.4byte	0x21b7
 5115 1612 21       		.uleb128 0x21
 5116 1613 72000000 		.4byte	.LVL111
 5117 1617 C8210000 		.4byte	0x21c8
 5118 161b 2A160000 		.4byte	0x162a
 5119 161f 22       		.uleb128 0x22
 5120 1620 01       		.uleb128 0x1
 5121 1621 51       		.byte	0x51
 5122 1622 01       		.uleb128 0x1
 5123 1623 30       		.byte	0x30
 5124 1624 22       		.uleb128 0x22
 5125 1625 01       		.uleb128 0x1
 5126 1626 50       		.byte	0x50
 5127 1627 01       		.uleb128 0x1
 5128 1628 30       		.byte	0x30
 5129 1629 00       		.byte	0
 5130 162a 23       		.uleb128 0x23
 5131 162b 78000000 		.4byte	.LVL112
 5132 162f DE210000 		.4byte	0x21de
 5133 1633 22       		.uleb128 0x22
 5134 1634 01       		.uleb128 0x1
 5135 1635 50       		.byte	0x50
 5136 1636 02       		.uleb128 0x2
 5137 1637 76       		.byte	0x76
 5138 1638 00       		.sleb128 0
 5139 1639 00       		.byte	0
 5140 163a 00       		.byte	0
 5141 163b 21       		.uleb128 0x21
 5142 163c 18000000 		.4byte	.LVL102
 5143 1640 E51F0000 		.4byte	0x1fe5
 5144 1644 52160000 		.4byte	0x1652
 5145 1648 22       		.uleb128 0x22
 5146 1649 01       		.uleb128 0x1
 5147 164a 50       		.byte	0x50
 5148 164b 05       		.uleb128 0x5
 5149 164c 0C       		.byte	0xc
 5150 164d A68E8600 		.4byte	0x868ea6
 5151 1651 00       		.byte	0
 5152 1652 21       		.uleb128 0x21
 5153 1653 24000000 		.4byte	.LVL103
 5154 1657 77200000 		.4byte	0x2077
 5155 165b 78160000 		.4byte	0x1678
 5156 165f 22       		.uleb128 0x22
 5157 1660 01       		.uleb128 0x1
 5158 1661 53       		.byte	0x53
 5159 1662 02       		.uleb128 0x2
 5160 1663 08       		.byte	0x8
 5161 1664 F0       		.byte	0xf0
 5162 1665 22       		.uleb128 0x22
 5163 1666 01       		.uleb128 0x1
 5164 1667 52       		.byte	0x52
 5165 1668 02       		.uleb128 0x2
 5166 1669 08       		.byte	0x8
 5167 166a B4       		.byte	0xb4
 5168 166b 22       		.uleb128 0x22
 5169 166c 01       		.uleb128 0x1
ARM GAS  C:\Users\jaohe\AppData\Local\Temp\ccbQAV2C.s 			page 109


 5170 166d 51       		.byte	0x51
 5171 166e 02       		.uleb128 0x2
 5172 166f 08       		.byte	0x8
 5173 1670 50       		.byte	0x50
 5174 1671 22       		.uleb128 0x22
 5175 1672 01       		.uleb128 0x1
 5176 1673 50       		.byte	0x50
 5177 1674 02       		.uleb128 0x2
 5178 1675 08       		.byte	0x8
 5179 1676 3C       		.byte	0x3c
 5180 1677 00       		.byte	0
 5181 1678 21       		.uleb128 0x21
 5182 1679 2C000000 		.4byte	.LVL104
 5183 167d E51F0000 		.4byte	0x1fe5
 5184 1681 8F160000 		.4byte	0x168f
 5185 1685 22       		.uleb128 0x22
 5186 1686 01       		.uleb128 0x1
 5187 1687 50       		.byte	0x50
 5188 1688 05       		.uleb128 0x5
 5189 1689 0C       		.byte	0xc
 5190 168a FFFFFF00 		.4byte	0xffffff
 5191 168e 00       		.byte	0
 5192 168f 21       		.uleb128 0x21
 5193 1690 42000000 		.4byte	.LVL105
 5194 1694 EF210000 		.4byte	0x21ef
 5195 1698 A3160000 		.4byte	0x16a3
 5196 169c 22       		.uleb128 0x22
 5197 169d 01       		.uleb128 0x1
 5198 169e 50       		.byte	0x50
 5199 169f 02       		.uleb128 0x2
 5200 16a0 75       		.byte	0x75
 5201 16a1 70       		.sleb128 -16
 5202 16a2 00       		.byte	0
 5203 16a3 21       		.uleb128 0x21
 5204 16a4 52000000 		.4byte	.LVL106
 5205 16a8 04220000 		.4byte	0x2204
 5206 16ac C8160000 		.4byte	0x16c8
 5207 16b0 22       		.uleb128 0x22
 5208 16b1 01       		.uleb128 0x1
 5209 16b2 52       		.byte	0x52
 5210 16b3 01       		.uleb128 0x1
 5211 16b4 3E       		.byte	0x3e
 5212 16b5 22       		.uleb128 0x22
 5213 16b6 01       		.uleb128 0x1
 5214 16b7 51       		.byte	0x51
 5215 16b8 02       		.uleb128 0x2
 5216 16b9 91       		.byte	0x91
 5217 16ba 68       		.sleb128 -24
 5218 16bb 22       		.uleb128 0x22
 5219 16bc 01       		.uleb128 0x1
 5220 16bd 50       		.byte	0x50
 5221 16be 02       		.uleb128 0x2
 5222 16bf 75       		.byte	0x75
 5223 16c0 70       		.sleb128 -16
 5224 16c1 22       		.uleb128 0x22
 5225 16c2 02       		.uleb128 0x2
 5226 16c3 7D       		.byte	0x7d
ARM GAS  C:\Users\jaohe\AppData\Local\Temp\ccbQAV2C.s 			page 110


 5227 16c4 00       		.sleb128 0
 5228 16c5 01       		.uleb128 0x1
 5229 16c6 30       		.byte	0x30
 5230 16c7 00       		.byte	0
 5231 16c8 27       		.uleb128 0x27
 5232 16c9 5A000000 		.4byte	.LVL108
 5233 16cd 35220000 		.4byte	0x2235
 5234 16d1 21       		.uleb128 0x21
 5235 16d2 88000000 		.4byte	.LVL115
 5236 16d6 40220000 		.4byte	0x2240
 5237 16da EA160000 		.4byte	0x16ea
 5238 16de 22       		.uleb128 0x22
 5239 16df 01       		.uleb128 0x1
 5240 16e0 52       		.byte	0x52
 5241 16e1 02       		.uleb128 0x2
 5242 16e2 75       		.byte	0x75
 5243 16e3 00       		.sleb128 0
 5244 16e4 22       		.uleb128 0x22
 5245 16e5 01       		.uleb128 0x1
 5246 16e6 51       		.byte	0x51
 5247 16e7 01       		.uleb128 0x1
 5248 16e8 35       		.byte	0x35
 5249 16e9 00       		.byte	0
 5250 16ea 27       		.uleb128 0x27
 5251 16eb 8C000000 		.4byte	.LVL116
 5252 16ef 7E210000 		.4byte	0x217e
 5253 16f3 00       		.byte	0
 5254 16f4 30       		.uleb128 0x30
 5255 16f5 BA060000 		.4byte	.LASF182
 5256 16f9 01       		.byte	0x1
 5257 16fa A002     		.2byte	0x2a0
 5258 16fc 00000000 		.4byte	.LFB78
 5259 1700 44000000 		.4byte	.LFE78-.LFB78
 5260 1704 01       		.uleb128 0x1
 5261 1705 9C       		.byte	0x9c
 5262 1706 96170000 		.4byte	0x1796
 5263 170a 32       		.uleb128 0x32
 5264 170b F80C0000 		.4byte	.LASF183
 5265 170f 01       		.byte	0x1
 5266 1710 A002     		.2byte	0x2a0
 5267 1712 B4060000 		.4byte	0x6b4
 5268 1716 26030000 		.4byte	.LLST17
 5269 171a 2D       		.uleb128 0x2d
 5270 171b 7B020000 		.4byte	.LASF169
 5271 171f 01       		.byte	0x1
 5272 1720 A402     		.2byte	0x2a4
 5273 1722 EE020000 		.4byte	0x2ee
 5274 1726 02       		.uleb128 0x2
 5275 1727 91       		.byte	0x91
 5276 1728 70       		.sleb128 -16
 5277 1729 21       		.uleb128 0x21
 5278 172a 0C000000 		.4byte	.LVL122
 5279 172e B51F0000 		.4byte	0x1fb5
 5280 1732 40170000 		.4byte	0x1740
 5281 1736 22       		.uleb128 0x22
 5282 1737 01       		.uleb128 0x1
 5283 1738 50       		.byte	0x50
ARM GAS  C:\Users\jaohe\AppData\Local\Temp\ccbQAV2C.s 			page 111


 5284 1739 05       		.uleb128 0x5
 5285 173a 0C       		.byte	0xc
 5286 173b 442B2600 		.4byte	0x262b44
 5287 173f 00       		.byte	0
 5288 1740 27       		.uleb128 0x27
 5289 1741 10000000 		.4byte	.LVL123
 5290 1745 C71F0000 		.4byte	0x1fc7
 5291 1749 21       		.uleb128 0x21
 5292 174a 24000000 		.4byte	.LVL124
 5293 174e E51F0000 		.4byte	0x1fe5
 5294 1752 60170000 		.4byte	0x1760
 5295 1756 22       		.uleb128 0x22
 5296 1757 01       		.uleb128 0x1
 5297 1758 50       		.byte	0x50
 5298 1759 05       		.uleb128 0x5
 5299 175a 0C       		.byte	0xc
 5300 175b FFFFFF00 		.4byte	0xffffff
 5301 175f 00       		.byte	0
 5302 1760 21       		.uleb128 0x21
 5303 1761 30000000 		.4byte	.LVL125
 5304 1765 CF200000 		.4byte	0x20cf
 5305 1769 84170000 		.4byte	0x1784
 5306 176d 22       		.uleb128 0x22
 5307 176e 01       		.uleb128 0x1
 5308 176f 53       		.byte	0x53
 5309 1770 01       		.uleb128 0x1
 5310 1771 31       		.byte	0x31
 5311 1772 22       		.uleb128 0x22
 5312 1773 01       		.uleb128 0x1
 5313 1774 52       		.byte	0x52
 5314 1775 01       		.uleb128 0x1
 5315 1776 3E       		.byte	0x3e
 5316 1777 22       		.uleb128 0x22
 5317 1778 01       		.uleb128 0x1
 5318 1779 51       		.byte	0x51
 5319 177a 02       		.uleb128 0x2
 5320 177b 7D       		.byte	0x7d
 5321 177c 00       		.sleb128 0
 5322 177d 22       		.uleb128 0x22
 5323 177e 01       		.uleb128 0x1
 5324 177f 50       		.byte	0x50
 5325 1780 02       		.uleb128 0x2
 5326 1781 74       		.byte	0x74
 5327 1782 00       		.sleb128 0
 5328 1783 00       		.byte	0
 5329 1784 23       		.uleb128 0x23
 5330 1785 38000000 		.4byte	.LVL126
 5331 1789 721F0000 		.4byte	0x1f72
 5332 178d 22       		.uleb128 0x22
 5333 178e 01       		.uleb128 0x1
 5334 178f 50       		.byte	0x50
 5335 1790 03       		.uleb128 0x3
 5336 1791 0A       		.byte	0xa
 5337 1792 8813     		.2byte	0x1388
 5338 1794 00       		.byte	0
 5339 1795 00       		.byte	0
 5340 1796 30       		.uleb128 0x30
ARM GAS  C:\Users\jaohe\AppData\Local\Temp\ccbQAV2C.s 			page 112


 5341 1797 BF080000 		.4byte	.LASF184
 5342 179b 01       		.byte	0x1
 5343 179c AC02     		.2byte	0x2ac
 5344 179e 00000000 		.4byte	.LFB79
 5345 17a2 22000000 		.4byte	.LFE79-.LFB79
 5346 17a6 01       		.uleb128 0x1
 5347 17a7 9C       		.byte	0x9c
 5348 17a8 0D180000 		.4byte	0x180d
 5349 17ac 32       		.uleb128 0x32
 5350 17ad F80C0000 		.4byte	.LASF183
 5351 17b1 01       		.byte	0x1
 5352 17b2 AC02     		.2byte	0x2ac
 5353 17b4 B4060000 		.4byte	0x6b4
 5354 17b8 52030000 		.4byte	.LLST18
 5355 17bc 21       		.uleb128 0x21
 5356 17bd 0A000000 		.4byte	.LVL130
 5357 17c1 5C220000 		.4byte	0x225c
 5358 17c5 CF170000 		.4byte	0x17cf
 5359 17c9 22       		.uleb128 0x22
 5360 17ca 01       		.uleb128 0x1
 5361 17cb 50       		.byte	0x50
 5362 17cc 01       		.uleb128 0x1
 5363 17cd 31       		.byte	0x31
 5364 17ce 00       		.byte	0
 5365 17cf 21       		.uleb128 0x21
 5366 17d0 12000000 		.4byte	.LVL131
 5367 17d4 C8210000 		.4byte	0x21c8
 5368 17d8 E7170000 		.4byte	0x17e7
 5369 17dc 22       		.uleb128 0x22
 5370 17dd 01       		.uleb128 0x1
 5371 17de 51       		.byte	0x51
 5372 17df 01       		.uleb128 0x1
 5373 17e0 30       		.byte	0x30
 5374 17e1 22       		.uleb128 0x22
 5375 17e2 01       		.uleb128 0x1
 5376 17e3 50       		.byte	0x50
 5377 17e4 01       		.uleb128 0x1
 5378 17e5 30       		.byte	0x30
 5379 17e6 00       		.byte	0
 5380 17e7 21       		.uleb128 0x21
 5381 17e8 18000000 		.4byte	.LVL132
 5382 17ec DE210000 		.4byte	0x21de
 5383 17f0 FB170000 		.4byte	0x17fb
 5384 17f4 22       		.uleb128 0x22
 5385 17f5 01       		.uleb128 0x1
 5386 17f6 50       		.byte	0x50
 5387 17f7 02       		.uleb128 0x2
 5388 17f8 74       		.byte	0x74
 5389 17f9 00       		.sleb128 0
 5390 17fa 00       		.byte	0
 5391 17fb 23       		.uleb128 0x23
 5392 17fc 20000000 		.4byte	.LVL133
 5393 1800 721F0000 		.4byte	0x1f72
 5394 1804 22       		.uleb128 0x22
 5395 1805 01       		.uleb128 0x1
 5396 1806 50       		.byte	0x50
 5397 1807 03       		.uleb128 0x3
ARM GAS  C:\Users\jaohe\AppData\Local\Temp\ccbQAV2C.s 			page 113


 5398 1808 0A       		.byte	0xa
 5399 1809 E803     		.2byte	0x3e8
 5400 180b 00       		.byte	0
 5401 180c 00       		.byte	0
 5402 180d 1F       		.uleb128 0x1f
 5403 180e F10B0000 		.4byte	.LASF185
 5404 1812 01       		.byte	0x1
 5405 1813 8E       		.byte	0x8e
 5406 1814 00000000 		.4byte	.LFB65
 5407 1818 5C010000 		.4byte	.LFE65-.LFB65
 5408 181c 01       		.uleb128 0x1
 5409 181d 9C       		.byte	0x9c
 5410 181e 78190000 		.4byte	0x1978
 5411 1822 3B       		.uleb128 0x3b
 5412 1823 6E6F7700 		.ascii	"now\000"
 5413 1827 01       		.byte	0x1
 5414 1828 94       		.byte	0x94
 5415 1829 B80A0000 		.4byte	0xab8
 5416 182d 02       		.uleb128 0x2
 5417 182e 91       		.byte	0x91
 5418 182f 68       		.sleb128 -24
 5419 1830 25       		.uleb128 0x25
 5420 1831 76060000 		.4byte	.LASF170
 5421 1835 01       		.byte	0x1
 5422 1836 95       		.byte	0x95
 5423 1837 5E0A0000 		.4byte	0xa5e
 5424 183b 02       		.uleb128 0x2
 5425 183c 91       		.byte	0x91
 5426 183d 50       		.sleb128 -48
 5427 183e 21       		.uleb128 0x21
 5428 183f 0C000000 		.4byte	.LVL134
 5429 1843 C8210000 		.4byte	0x21c8
 5430 1847 56180000 		.4byte	0x1856
 5431 184b 22       		.uleb128 0x22
 5432 184c 01       		.uleb128 0x1
 5433 184d 51       		.byte	0x51
 5434 184e 01       		.uleb128 0x1
 5435 184f 30       		.byte	0x30
 5436 1850 22       		.uleb128 0x22
 5437 1851 01       		.uleb128 0x1
 5438 1852 50       		.byte	0x50
 5439 1853 01       		.uleb128 0x1
 5440 1854 31       		.byte	0x31
 5441 1855 00       		.byte	0
 5442 1856 21       		.uleb128 0x21
 5443 1857 14000000 		.4byte	.LVL135
 5444 185b 9B210000 		.4byte	0x219b
 5445 185f 6A180000 		.4byte	0x186a
 5446 1863 22       		.uleb128 0x22
 5447 1864 01       		.uleb128 0x1
 5448 1865 50       		.byte	0x50
 5449 1866 02       		.uleb128 0x2
 5450 1867 74       		.byte	0x74
 5451 1868 00       		.sleb128 0
 5452 1869 00       		.byte	0
 5453 186a 21       		.uleb128 0x21
 5454 186b 36000000 		.4byte	.LVL136
ARM GAS  C:\Users\jaohe\AppData\Local\Temp\ccbQAV2C.s 			page 114


 5455 186f F0200000 		.4byte	0x20f0
 5456 1873 BC180000 		.4byte	0x18bc
 5457 1877 22       		.uleb128 0x22
 5458 1878 01       		.uleb128 0x1
 5459 1879 53       		.byte	0x53
 5460 187a 07       		.uleb128 0x7
 5461 187b 91       		.byte	0x91
 5462 187c 6A       		.sleb128 -22
 5463 187d 94       		.byte	0x94
 5464 187e 01       		.byte	0x1
 5465 187f 08       		.byte	0x8
 5466 1880 FF       		.byte	0xff
 5467 1881 1A       		.byte	0x1a
 5468 1882 22       		.uleb128 0x22
 5469 1883 01       		.uleb128 0x1
 5470 1884 52       		.byte	0x52
 5471 1885 07       		.uleb128 0x7
 5472 1886 91       		.byte	0x91
 5473 1887 69       		.sleb128 -23
 5474 1888 94       		.byte	0x94
 5475 1889 01       		.byte	0x1
 5476 188a 08       		.byte	0x8
 5477 188b FF       		.byte	0xff
 5478 188c 1A       		.byte	0x1a
 5479 188d 22       		.uleb128 0x22
 5480 188e 01       		.uleb128 0x1
 5481 188f 51       		.byte	0x51
 5482 1890 05       		.uleb128 0x5
 5483 1891 03       		.byte	0x3
 5484 1892 C0010000 		.4byte	.LC21
 5485 1896 22       		.uleb128 0x22
 5486 1897 01       		.uleb128 0x1
 5487 1898 50       		.byte	0x50
 5488 1899 02       		.uleb128 0x2
 5489 189a 91       		.byte	0x91
 5490 189b 50       		.sleb128 -48
 5491 189c 22       		.uleb128 0x22
 5492 189d 02       		.uleb128 0x2
 5493 189e 7D       		.byte	0x7d
 5494 189f 08       		.sleb128 8
 5495 18a0 07       		.uleb128 0x7
 5496 18a1 91       		.byte	0x91
 5497 18a2 6D       		.sleb128 -19
 5498 18a3 94       		.byte	0x94
 5499 18a4 01       		.byte	0x1
 5500 18a5 08       		.byte	0x8
 5501 18a6 FF       		.byte	0xff
 5502 18a7 1A       		.byte	0x1a
 5503 18a8 22       		.uleb128 0x22
 5504 18a9 02       		.uleb128 0x2
 5505 18aa 7D       		.byte	0x7d
 5506 18ab 04       		.sleb128 4
 5507 18ac 07       		.uleb128 0x7
 5508 18ad 91       		.byte	0x91
 5509 18ae 6C       		.sleb128 -20
 5510 18af 94       		.byte	0x94
 5511 18b0 01       		.byte	0x1
ARM GAS  C:\Users\jaohe\AppData\Local\Temp\ccbQAV2C.s 			page 115


 5512 18b1 08       		.byte	0x8
 5513 18b2 FF       		.byte	0xff
 5514 18b3 1A       		.byte	0x1a
 5515 18b4 22       		.uleb128 0x22
 5516 18b5 02       		.uleb128 0x2
 5517 18b6 7D       		.byte	0x7d
 5518 18b7 00       		.sleb128 0
 5519 18b8 02       		.uleb128 0x2
 5520 18b9 75       		.byte	0x75
 5521 18ba 00       		.sleb128 0
 5522 18bb 00       		.byte	0
 5523 18bc 21       		.uleb128 0x21
 5524 18bd 3E000000 		.4byte	.LVL137
 5525 18c1 C8210000 		.4byte	0x21c8
 5526 18c5 D4180000 		.4byte	0x18d4
 5527 18c9 22       		.uleb128 0x22
 5528 18ca 01       		.uleb128 0x1
 5529 18cb 51       		.byte	0x51
 5530 18cc 01       		.uleb128 0x1
 5531 18cd 30       		.byte	0x30
 5532 18ce 22       		.uleb128 0x22
 5533 18cf 01       		.uleb128 0x1
 5534 18d0 50       		.byte	0x50
 5535 18d1 01       		.uleb128 0x1
 5536 18d2 31       		.byte	0x31
 5537 18d3 00       		.byte	0
 5538 18d4 21       		.uleb128 0x21
 5539 18d5 44000000 		.4byte	.LVL138
 5540 18d9 DE210000 		.4byte	0x21de
 5541 18dd EB180000 		.4byte	0x18eb
 5542 18e1 22       		.uleb128 0x22
 5543 18e2 01       		.uleb128 0x1
 5544 18e3 50       		.byte	0x50
 5545 18e4 05       		.uleb128 0x5
 5546 18e5 03       		.byte	0x3
 5547 18e6 DC010000 		.4byte	.LC22
 5548 18ea 00       		.byte	0
 5549 18eb 21       		.uleb128 0x21
 5550 18ec 4C000000 		.4byte	.LVL139
 5551 18f0 C8210000 		.4byte	0x21c8
 5552 18f4 03190000 		.4byte	0x1903
 5553 18f8 22       		.uleb128 0x22
 5554 18f9 01       		.uleb128 0x1
 5555 18fa 51       		.byte	0x51
 5556 18fb 01       		.uleb128 0x1
 5557 18fc 30       		.byte	0x30
 5558 18fd 22       		.uleb128 0x22
 5559 18fe 01       		.uleb128 0x1
 5560 18ff 50       		.byte	0x50
 5561 1900 01       		.uleb128 0x1
 5562 1901 31       		.byte	0x31
 5563 1902 00       		.byte	0
 5564 1903 21       		.uleb128 0x21
 5565 1904 52000000 		.4byte	.LVL140
 5566 1908 DE210000 		.4byte	0x21de
 5567 190c 17190000 		.4byte	0x1917
 5568 1910 22       		.uleb128 0x22
ARM GAS  C:\Users\jaohe\AppData\Local\Temp\ccbQAV2C.s 			page 116


 5569 1911 01       		.uleb128 0x1
 5570 1912 50       		.byte	0x50
 5571 1913 02       		.uleb128 0x2
 5572 1914 91       		.byte	0x91
 5573 1915 50       		.sleb128 -48
 5574 1916 00       		.byte	0
 5575 1917 27       		.uleb128 0x27
 5576 1918 5A000000 		.4byte	.LVL141
 5577 191c 290D0000 		.4byte	0xd29
 5578 1920 27       		.uleb128 0x27
 5579 1921 68000000 		.4byte	.LVL142
 5580 1925 6D220000 		.4byte	0x226d
 5581 1929 27       		.uleb128 0x27
 5582 192a 70000000 		.4byte	.LVL143
 5583 192e 78220000 		.4byte	0x2278
 5584 1932 27       		.uleb128 0x27
 5585 1933 7A000000 		.4byte	.LVL144
 5586 1937 89220000 		.4byte	0x2289
 5587 193b 21       		.uleb128 0x21
 5588 193c 80000000 		.4byte	.LVL145
 5589 1940 96170000 		.4byte	0x1796
 5590 1944 52190000 		.4byte	0x1952
 5591 1948 22       		.uleb128 0x22
 5592 1949 01       		.uleb128 0x1
 5593 194a 50       		.byte	0x50
 5594 194b 05       		.uleb128 0x5
 5595 194c 03       		.byte	0x3
 5596 194d F4010000 		.4byte	.LC23
 5597 1951 00       		.byte	0
 5598 1952 21       		.uleb128 0x21
 5599 1953 CC000000 		.4byte	.LVL146
 5600 1957 96220000 		.4byte	0x2296
 5601 195b 65190000 		.4byte	0x1965
 5602 195f 22       		.uleb128 0x22
 5603 1960 01       		.uleb128 0x1
 5604 1961 51       		.byte	0x51
 5605 1962 01       		.uleb128 0x1
 5606 1963 35       		.byte	0x35
 5607 1964 00       		.byte	0
 5608 1965 27       		.uleb128 0x27
 5609 1966 E0000000 		.4byte	.LVL147
 5610 196a B0220000 		.4byte	0x22b0
 5611 196e 27       		.uleb128 0x27
 5612 196f 3E010000 		.4byte	.LVL148
 5613 1973 BD220000 		.4byte	0x22bd
 5614 1977 00       		.byte	0
 5615 1978 1F       		.uleb128 0x1f
 5616 1979 BF070000 		.4byte	.LASF186
 5617 197d 01       		.byte	0x1
 5618 197e CA       		.byte	0xca
 5619 197f 00000000 		.4byte	.LFB66
 5620 1983 6C000000 		.4byte	.LFE66-.LFB66
 5621 1987 01       		.uleb128 0x1
 5622 1988 9C       		.byte	0x9c
 5623 1989 EC190000 		.4byte	0x19ec
 5624 198d 27       		.uleb128 0x27
 5625 198e 16000000 		.4byte	.LVL149
ARM GAS  C:\Users\jaohe\AppData\Local\Temp\ccbQAV2C.s 			page 117


 5626 1992 B0220000 		.4byte	0x22b0
 5627 1996 21       		.uleb128 0x21
 5628 1997 1C000000 		.4byte	.LVL150
 5629 199b A41F0000 		.4byte	0x1fa4
 5630 199f AA190000 		.4byte	0x19aa
 5631 19a3 22       		.uleb128 0x22
 5632 19a4 01       		.uleb128 0x1
 5633 19a5 50       		.byte	0x50
 5634 19a6 02       		.uleb128 0x2
 5635 19a7 74       		.byte	0x74
 5636 19a8 00       		.sleb128 0
 5637 19a9 00       		.byte	0
 5638 19aa 21       		.uleb128 0x21
 5639 19ab 30000000 		.4byte	.LVL151
 5640 19af 96170000 		.4byte	0x1796
 5641 19b3 C1190000 		.4byte	0x19c1
 5642 19b7 22       		.uleb128 0x22
 5643 19b8 01       		.uleb128 0x1
 5644 19b9 50       		.byte	0x50
 5645 19ba 05       		.uleb128 0x5
 5646 19bb 03       		.byte	0x3
 5647 19bc 00020000 		.4byte	.LC24
 5648 19c0 00       		.byte	0
 5649 19c1 21       		.uleb128 0x21
 5650 19c2 38000000 		.4byte	.LVL152
 5651 19c6 96170000 		.4byte	0x1796
 5652 19ca D8190000 		.4byte	0x19d8
 5653 19ce 22       		.uleb128 0x22
 5654 19cf 01       		.uleb128 0x1
 5655 19d0 50       		.byte	0x50
 5656 19d1 05       		.uleb128 0x5
 5657 19d2 03       		.byte	0x3
 5658 19d3 10020000 		.4byte	.LC25
 5659 19d7 00       		.byte	0
 5660 19d8 23       		.uleb128 0x23
 5661 19d9 54000000 		.4byte	.LVL153
 5662 19dd 96170000 		.4byte	0x1796
 5663 19e1 22       		.uleb128 0x22
 5664 19e2 01       		.uleb128 0x1
 5665 19e3 50       		.byte	0x50
 5666 19e4 05       		.uleb128 0x5
 5667 19e5 03       		.byte	0x3
 5668 19e6 10020000 		.4byte	.LC25
 5669 19ea 00       		.byte	0
 5670 19eb 00       		.byte	0
 5671 19ec 2B       		.uleb128 0x2b
 5672 19ed 1D000000 		.4byte	.LASF187
 5673 19f1 01       		.byte	0x1
 5674 19f2 8501     		.2byte	0x185
 5675 19f4 33000000 		.4byte	0x33
 5676 19f8 00000000 		.4byte	.LFB72
 5677 19fc 50010000 		.4byte	.LFE72-.LFB72
 5678 1a00 01       		.uleb128 0x1
 5679 1a01 9C       		.byte	0x9c
 5680 1a02 F81B0000 		.4byte	0x1bf8
 5681 1a06 39       		.uleb128 0x39
 5682 1a07 6900     		.ascii	"i\000"
ARM GAS  C:\Users\jaohe\AppData\Local\Temp\ccbQAV2C.s 			page 118


 5683 1a09 01       		.byte	0x1
 5684 1a0a 8B01     		.2byte	0x18b
 5685 1a0c 33000000 		.4byte	0x33
 5686 1a10 70030000 		.4byte	.LLST19
 5687 1a14 3C       		.uleb128 0x3c
 5688 1a15 0B1C0000 		.4byte	0x1c0b
 5689 1a19 8F030000 		.4byte	.LLST20
 5690 1a1d 2E       		.uleb128 0x2e
 5691 1a1e AB0A0000 		.4byte	.LASF188
 5692 1a22 01       		.byte	0x1
 5693 1a23 8C01     		.2byte	0x18c
 5694 1a25 F81B0000 		.4byte	0x1bf8
 5695 1a29 B7030000 		.4byte	.LLST21
 5696 1a2d 2E       		.uleb128 0x2e
 5697 1a2e F0090000 		.4byte	.LASF189
 5698 1a32 01       		.byte	0x1
 5699 1a33 9101     		.2byte	0x191
 5700 1a35 180A0000 		.4byte	0xa18
 5701 1a39 CB030000 		.4byte	.LLST22
 5702 1a3d 2E       		.uleb128 0x2e
 5703 1a3e 97080000 		.4byte	.LASF162
 5704 1a42 01       		.byte	0x1
 5705 1a43 9201     		.2byte	0x192
 5706 1a45 33000000 		.4byte	0x33
 5707 1a49 00040000 		.4byte	.LLST23
 5708 1a4d 37       		.uleb128 0x37
 5709 1a4e 6C000000 		.4byte	.LBB6
 5710 1a52 5C000000 		.4byte	.LBE6-.LBB6
 5711 1a56 CC1A0000 		.4byte	0x1acc
 5712 1a5a 2D       		.uleb128 0x2d
 5713 1a5b 76060000 		.4byte	.LASF170
 5714 1a5f 01       		.byte	0x1
 5715 1a60 9A01     		.2byte	0x19a
 5716 1a62 6B120000 		.4byte	0x126b
 5717 1a66 03       		.uleb128 0x3
 5718 1a67 91       		.byte	0x91
 5719 1a68 B47F     		.sleb128 -76
 5720 1a6a 27       		.uleb128 0x27
 5721 1a6b 70000000 		.4byte	.LVL169
 5722 1a6f C71F0000 		.4byte	0x1fc7
 5723 1a73 21       		.uleb128 0x21
 5724 1a74 7C000000 		.4byte	.LVL170
 5725 1a78 F0200000 		.4byte	0x20f0
 5726 1a7c 901A0000 		.4byte	0x1a90
 5727 1a80 22       		.uleb128 0x22
 5728 1a81 01       		.uleb128 0x1
 5729 1a82 51       		.byte	0x51
 5730 1a83 05       		.uleb128 0x5
 5731 1a84 03       		.byte	0x3
 5732 1a85 30020000 		.4byte	.LC27
 5733 1a89 22       		.uleb128 0x22
 5734 1a8a 01       		.uleb128 0x1
 5735 1a8b 50       		.byte	0x50
 5736 1a8c 02       		.uleb128 0x2
 5737 1a8d 77       		.byte	0x77
 5738 1a8e 14       		.sleb128 20
 5739 1a8f 00       		.byte	0
ARM GAS  C:\Users\jaohe\AppData\Local\Temp\ccbQAV2C.s 			page 119


 5740 1a90 21       		.uleb128 0x21
 5741 1a91 82000000 		.4byte	.LVL171
 5742 1a95 F4160000 		.4byte	0x16f4
 5743 1a99 A41A0000 		.4byte	0x1aa4
 5744 1a9d 22       		.uleb128 0x22
 5745 1a9e 01       		.uleb128 0x1
 5746 1a9f 50       		.byte	0x50
 5747 1aa0 02       		.uleb128 0x2
 5748 1aa1 77       		.byte	0x77
 5749 1aa2 14       		.sleb128 20
 5750 1aa3 00       		.byte	0
 5751 1aa4 21       		.uleb128 0x21
 5752 1aa5 8A000000 		.4byte	.LVL172
 5753 1aa9 721F0000 		.4byte	0x1f72
 5754 1aad B91A0000 		.4byte	0x1ab9
 5755 1ab1 22       		.uleb128 0x22
 5756 1ab2 01       		.uleb128 0x1
 5757 1ab3 50       		.byte	0x50
 5758 1ab4 03       		.uleb128 0x3
 5759 1ab5 0A       		.byte	0xa
 5760 1ab6 E803     		.2byte	0x3e8
 5761 1ab8 00       		.byte	0
 5762 1ab9 27       		.uleb128 0x27
 5763 1aba A8000000 		.4byte	.LVL174
 5764 1abe 8B120000 		.4byte	0x128b
 5765 1ac2 27       		.uleb128 0x27
 5766 1ac3 C4000000 		.4byte	.LVL177
 5767 1ac7 B50E0000 		.4byte	0xeb5
 5768 1acb 00       		.byte	0
 5769 1acc 37       		.uleb128 0x37
 5770 1acd D2000000 		.4byte	.LBB7
 5771 1ad1 54000000 		.4byte	.LBE7-.LBB7
 5772 1ad5 581B0000 		.4byte	0x1b58
 5773 1ad9 34       		.uleb128 0x34
 5774 1ada 54060000 		.4byte	.LASF190
 5775 1ade 01       		.byte	0x1
 5776 1adf B401     		.2byte	0x1b4
 5777 1ae1 180A0000 		.4byte	0xa18
 5778 1ae5 2D       		.uleb128 0x2d
 5779 1ae6 76060000 		.4byte	.LASF170
 5780 1aea 01       		.byte	0x1
 5781 1aeb B601     		.2byte	0x1b6
 5782 1aed B4060000 		.4byte	0x6b4
 5783 1af1 01       		.uleb128 0x1
 5784 1af2 56       		.byte	0x56
 5785 1af3 21       		.uleb128 0x21
 5786 1af4 DC000000 		.4byte	.LVL180
 5787 1af8 35200000 		.4byte	0x2035
 5788 1afc 071B0000 		.4byte	0x1b07
 5789 1b00 22       		.uleb128 0x22
 5790 1b01 01       		.uleb128 0x1
 5791 1b02 50       		.byte	0x50
 5792 1b03 02       		.uleb128 0x2
 5793 1b04 74       		.byte	0x74
 5794 1b05 00       		.sleb128 0
 5795 1b06 00       		.byte	0
 5796 1b07 27       		.uleb128 0x27
ARM GAS  C:\Users\jaohe\AppData\Local\Temp\ccbQAV2C.s 			page 120


 5797 1b08 E0000000 		.4byte	.LVL181
 5798 1b0c C8220000 		.4byte	0x22c8
 5799 1b10 21       		.uleb128 0x21
 5800 1b11 14010000 		.4byte	.LVL188
 5801 1b15 F0200000 		.4byte	0x20f0
 5802 1b19 331B0000 		.4byte	0x1b33
 5803 1b1d 22       		.uleb128 0x22
 5804 1b1e 01       		.uleb128 0x1
 5805 1b1f 52       		.byte	0x52
 5806 1b20 02       		.uleb128 0x2
 5807 1b21 74       		.byte	0x74
 5808 1b22 00       		.sleb128 0
 5809 1b23 22       		.uleb128 0x22
 5810 1b24 01       		.uleb128 0x1
 5811 1b25 51       		.byte	0x51
 5812 1b26 05       		.uleb128 0x5
 5813 1b27 03       		.byte	0x3
 5814 1b28 44020000 		.4byte	.LC28
 5815 1b2c 22       		.uleb128 0x22
 5816 1b2d 01       		.uleb128 0x1
 5817 1b2e 50       		.byte	0x50
 5818 1b2f 02       		.uleb128 0x2
 5819 1b30 76       		.byte	0x76
 5820 1b31 00       		.sleb128 0
 5821 1b32 00       		.byte	0
 5822 1b33 21       		.uleb128 0x21
 5823 1b34 1A010000 		.4byte	.LVL189
 5824 1b38 96170000 		.4byte	0x1796
 5825 1b3c 471B0000 		.4byte	0x1b47
 5826 1b40 22       		.uleb128 0x22
 5827 1b41 01       		.uleb128 0x1
 5828 1b42 50       		.byte	0x50
 5829 1b43 02       		.uleb128 0x2
 5830 1b44 76       		.byte	0x76
 5831 1b45 00       		.sleb128 0
 5832 1b46 00       		.byte	0
 5833 1b47 23       		.uleb128 0x23
 5834 1b48 24010000 		.4byte	.LVL190
 5835 1b4c 4B200000 		.4byte	0x204b
 5836 1b50 22       		.uleb128 0x22
 5837 1b51 01       		.uleb128 0x1
 5838 1b52 50       		.byte	0x50
 5839 1b53 02       		.uleb128 0x2
 5840 1b54 74       		.byte	0x74
 5841 1b55 00       		.sleb128 0
 5842 1b56 00       		.byte	0
 5843 1b57 00       		.byte	0
 5844 1b58 21       		.uleb128 0x21
 5845 1b59 0C000000 		.4byte	.LVL154
 5846 1b5d B51F0000 		.4byte	0x1fb5
 5847 1b61 6F1B0000 		.4byte	0x1b6f
 5848 1b65 22       		.uleb128 0x22
 5849 1b66 01       		.uleb128 0x1
 5850 1b67 50       		.byte	0x50
 5851 1b68 05       		.uleb128 0x5
 5852 1b69 0C       		.byte	0xc
 5853 1b6a FFF9F700 		.4byte	0xf7f9ff
ARM GAS  C:\Users\jaohe\AppData\Local\Temp\ccbQAV2C.s 			page 121


 5854 1b6e 00       		.byte	0
 5855 1b6f 27       		.uleb128 0x27
 5856 1b70 10000000 		.4byte	.LVL155
 5857 1b74 C71F0000 		.4byte	0x1fc7
 5858 1b78 27       		.uleb128 0x27
 5859 1b79 16000000 		.4byte	.LVL156
 5860 1b7d CF1F0000 		.4byte	0x1fcf
 5861 1b81 21       		.uleb128 0x21
 5862 1b82 1C000000 		.4byte	.LVL157
 5863 1b86 E51F0000 		.4byte	0x1fe5
 5864 1b8a 981B0000 		.4byte	0x1b98
 5865 1b8e 22       		.uleb128 0x22
 5866 1b8f 01       		.uleb128 0x1
 5867 1b90 50       		.byte	0x50
 5868 1b91 05       		.uleb128 0x5
 5869 1b92 0C       		.byte	0xc
 5870 1b93 25141800 		.4byte	0x181425
 5871 1b97 00       		.byte	0
 5872 1b98 21       		.uleb128 0x21
 5873 1b99 26000000 		.4byte	.LVL158
 5874 1b9d F71F0000 		.4byte	0x1ff7
 5875 1ba1 B91B0000 		.4byte	0x1bb9
 5876 1ba5 22       		.uleb128 0x22
 5877 1ba6 01       		.uleb128 0x1
 5878 1ba7 52       		.byte	0x52
 5879 1ba8 01       		.uleb128 0x1
 5880 1ba9 35       		.byte	0x35
 5881 1baa 22       		.uleb128 0x22
 5882 1bab 01       		.uleb128 0x1
 5883 1bac 51       		.byte	0x51
 5884 1bad 01       		.uleb128 0x1
 5885 1bae 35       		.byte	0x35
 5886 1baf 22       		.uleb128 0x22
 5887 1bb0 01       		.uleb128 0x1
 5888 1bb1 50       		.byte	0x50
 5889 1bb2 05       		.uleb128 0x5
 5890 1bb3 03       		.byte	0x3
 5891 1bb4 20020000 		.4byte	.LC26
 5892 1bb8 00       		.byte	0
 5893 1bb9 21       		.uleb128 0x21
 5894 1bba 5C000000 		.4byte	.LVL164
 5895 1bbe 13200000 		.4byte	0x2013
 5896 1bc2 CD1B0000 		.4byte	0x1bcd
 5897 1bc6 22       		.uleb128 0x22
 5898 1bc7 01       		.uleb128 0x1
 5899 1bc8 50       		.byte	0x50
 5900 1bc9 02       		.uleb128 0x2
 5901 1bca 75       		.byte	0x75
 5902 1bcb 00       		.sleb128 0
 5903 1bcc 00       		.byte	0
 5904 1bcd 27       		.uleb128 0x27
 5905 1bce 60000000 		.4byte	.LVL165
 5906 1bd2 D3220000 		.4byte	0x22d3
 5907 1bd6 27       		.uleb128 0x27
 5908 1bd7 64000000 		.4byte	.LVL166
 5909 1bdb DA220000 		.4byte	0x22da
 5910 1bdf 27       		.uleb128 0x27
ARM GAS  C:\Users\jaohe\AppData\Local\Temp\ccbQAV2C.s 			page 122


 5911 1be0 6A000000 		.4byte	.LVL168
 5912 1be4 7E210000 		.4byte	0x217e
 5913 1be8 23       		.uleb128 0x23
 5914 1be9 CE000000 		.4byte	.LVL179
 5915 1bed E1220000 		.4byte	0x22e1
 5916 1bf1 22       		.uleb128 0x22
 5917 1bf2 01       		.uleb128 0x1
 5918 1bf3 50       		.byte	0x50
 5919 1bf4 01       		.uleb128 0x1
 5920 1bf5 30       		.byte	0x30
 5921 1bf6 00       		.byte	0
 5922 1bf7 00       		.byte	0
 5923 1bf8 1B       		.uleb128 0x1b
 5924 1bf9 B4060000 		.4byte	0x6b4
 5925 1bfd 0B1C0000 		.4byte	0x1c0b
 5926 1c01 3D       		.uleb128 0x3d
 5927 1c02 53090000 		.4byte	0x953
 5928 1c06 141A0000 		.4byte	0x1a14
 5929 1c0a 00       		.byte	0
 5930 1c0b 09       		.uleb128 0x9
 5931 1c0c 53090000 		.4byte	0x953
 5932 1c10 33       		.uleb128 0x33
 5933 1c11 BC020000 		.4byte	.LASF191
 5934 1c15 01       		.byte	0x1
 5935 1c16 0F01     		.2byte	0x10f
 5936 1c18 33000000 		.4byte	0x33
 5937 1c1c 00000000 		.4byte	.LFB69
 5938 1c20 C8000000 		.4byte	.LFE69-.LFB69
 5939 1c24 01       		.uleb128 0x1
 5940 1c25 9C       		.byte	0x9c
 5941 1c26 3C1D0000 		.4byte	0x1d3c
 5942 1c2a 27       		.uleb128 0x27
 5943 1c2b 08000000 		.4byte	.LVL193
 5944 1c2f F6220000 		.4byte	0x22f6
 5945 1c33 27       		.uleb128 0x27
 5946 1c34 0C000000 		.4byte	.LVL194
 5947 1c38 FD220000 		.4byte	0x22fd
 5948 1c3c 27       		.uleb128 0x27
 5949 1c3d 10000000 		.4byte	.LVL195
 5950 1c41 04230000 		.4byte	0x2304
 5951 1c45 21       		.uleb128 0x21
 5952 1c46 16000000 		.4byte	.LVL196
 5953 1c4a 0B230000 		.4byte	0x230b
 5954 1c4e 5C1C0000 		.4byte	0x1c5c
 5955 1c52 22       		.uleb128 0x22
 5956 1c53 01       		.uleb128 0x1
 5957 1c54 50       		.byte	0x50
 5958 1c55 05       		.uleb128 0x5
 5959 1c56 03       		.byte	0x3
 5960 1c57 00000000 		.4byte	Timer_1_Handler
 5961 1c5b 00       		.byte	0
 5962 1c5c 21       		.uleb128 0x21
 5963 1c5d 1C000000 		.4byte	.LVL197
 5964 1c61 1C230000 		.4byte	0x231c
 5965 1c65 731C0000 		.4byte	0x1c73
 5966 1c69 22       		.uleb128 0x22
 5967 1c6a 01       		.uleb128 0x1
ARM GAS  C:\Users\jaohe\AppData\Local\Temp\ccbQAV2C.s 			page 123


 5968 1c6b 50       		.byte	0x50
 5969 1c6c 05       		.uleb128 0x5
 5970 1c6d 03       		.byte	0x3
 5971 1c6e 00000000 		.4byte	Snooze_Btn_Handler
 5972 1c72 00       		.byte	0
 5973 1c73 27       		.uleb128 0x27
 5974 1c74 20000000 		.4byte	.LVL198
 5975 1c78 2D230000 		.4byte	0x232d
 5976 1c7c 27       		.uleb128 0x27
 5977 1c7d 24000000 		.4byte	.LVL199
 5978 1c81 34230000 		.4byte	0x2334
 5979 1c85 27       		.uleb128 0x27
 5980 1c86 28000000 		.4byte	.LVL200
 5981 1c8a 3B230000 		.4byte	0x233b
 5982 1c8e 21       		.uleb128 0x21
 5983 1c8f 2E000000 		.4byte	.LVL201
 5984 1c93 5C220000 		.4byte	0x225c
 5985 1c97 A11C0000 		.4byte	0x1ca1
 5986 1c9b 22       		.uleb128 0x22
 5987 1c9c 01       		.uleb128 0x1
 5988 1c9d 50       		.byte	0x50
 5989 1c9e 01       		.uleb128 0x1
 5990 1c9f 31       		.byte	0x31
 5991 1ca0 00       		.byte	0
 5992 1ca1 21       		.uleb128 0x21
 5993 1ca2 34000000 		.4byte	.LVL202
 5994 1ca6 DE210000 		.4byte	0x21de
 5995 1caa B81C0000 		.4byte	0x1cb8
 5996 1cae 22       		.uleb128 0x22
 5997 1caf 01       		.uleb128 0x1
 5998 1cb0 50       		.byte	0x50
 5999 1cb1 05       		.uleb128 0x5
 6000 1cb2 03       		.byte	0x3
 6001 1cb3 50020000 		.4byte	.LC29
 6002 1cb7 00       		.byte	0
 6003 1cb8 27       		.uleb128 0x27
 6004 1cb9 38000000 		.4byte	.LVL203
 6005 1cbd 42230000 		.4byte	0x2342
 6006 1cc1 27       		.uleb128 0x27
 6007 1cc2 3C000000 		.4byte	.LVL204
 6008 1cc6 49230000 		.4byte	0x2349
 6009 1cca 27       		.uleb128 0x27
 6010 1ccb 40000000 		.4byte	.LVL205
 6011 1ccf 50230000 		.4byte	0x2350
 6012 1cd3 27       		.uleb128 0x27
 6013 1cd4 44000000 		.4byte	.LVL206
 6014 1cd8 57230000 		.4byte	0x2357
 6015 1cdc 27       		.uleb128 0x27
 6016 1cdd 48000000 		.4byte	.LVL207
 6017 1ce1 5E230000 		.4byte	0x235e
 6018 1ce5 21       		.uleb128 0x21
 6019 1ce6 4E000000 		.4byte	.LVL208
 6020 1cea B51F0000 		.4byte	0x1fb5
 6021 1cee FC1C0000 		.4byte	0x1cfc
 6022 1cf2 22       		.uleb128 0x22
 6023 1cf3 01       		.uleb128 0x1
 6024 1cf4 50       		.byte	0x50
ARM GAS  C:\Users\jaohe\AppData\Local\Temp\ccbQAV2C.s 			page 124


 6025 1cf5 05       		.uleb128 0x5
 6026 1cf6 0C       		.byte	0xc
 6027 1cf7 FFF9F700 		.4byte	0xf7f9ff
 6028 1cfb 00       		.byte	0
 6029 1cfc 27       		.uleb128 0x27
 6030 1cfd 52000000 		.4byte	.LVL209
 6031 1d01 C71F0000 		.4byte	0x1fc7
 6032 1d05 27       		.uleb128 0x27
 6033 1d06 58000000 		.4byte	.LVL210
 6034 1d0a CF1F0000 		.4byte	0x1fcf
 6035 1d0e 27       		.uleb128 0x27
 6036 1d0f 5C000000 		.4byte	.LVL211
 6037 1d13 700D0000 		.4byte	0xd70
 6038 1d17 27       		.uleb128 0x27
 6039 1d18 8C000000 		.4byte	.LVL212
 6040 1d1c 810D0000 		.4byte	0xd81
 6041 1d20 27       		.uleb128 0x27
 6042 1d21 96000000 		.4byte	.LVL213
 6043 1d25 7A150000 		.4byte	0x157a
 6044 1d29 27       		.uleb128 0x27
 6045 1d2a A0000000 		.4byte	.LVL214
 6046 1d2e EC190000 		.4byte	0x19ec
 6047 1d32 27       		.uleb128 0x27
 6048 1d33 AA000000 		.4byte	.LVL215
 6049 1d37 EC190000 		.4byte	0x19ec
 6050 1d3b 00       		.byte	0
 6051 1d3c 2B       		.uleb128 0x2b
 6052 1d3d D9020000 		.4byte	.LASF192
 6053 1d41 01       		.byte	0x1
 6054 1d42 9A02     		.2byte	0x29a
 6055 1d44 33000000 		.4byte	0x33
 6056 1d48 00000000 		.4byte	.LFB77
 6057 1d4c 12000000 		.4byte	.LFE77-.LFB77
 6058 1d50 01       		.uleb128 0x1
 6059 1d51 9C       		.byte	0x9c
 6060 1d52 8D1D0000 		.4byte	0x1d8d
 6061 1d56 32       		.uleb128 0x32
 6062 1d57 F80C0000 		.4byte	.LASF183
 6063 1d5b 01       		.byte	0x1
 6064 1d5c 9A02     		.2byte	0x29a
 6065 1d5e B4060000 		.4byte	0x6b4
 6066 1d62 35040000 		.4byte	.LLST24
 6067 1d66 21       		.uleb128 0x21
 6068 1d67 06000000 		.4byte	.LVL217
 6069 1d6b 96170000 		.4byte	0x1796
 6070 1d6f 7B1D0000 		.4byte	0x1d7b
 6071 1d73 22       		.uleb128 0x22
 6072 1d74 01       		.uleb128 0x1
 6073 1d75 50       		.byte	0x50
 6074 1d76 03       		.uleb128 0x3
 6075 1d77 F3       		.byte	0xf3
 6076 1d78 01       		.uleb128 0x1
 6077 1d79 50       		.byte	0x50
 6078 1d7a 00       		.byte	0
 6079 1d7b 23       		.uleb128 0x23
 6080 1d7c 0E000000 		.4byte	.LVL218
 6081 1d80 721F0000 		.4byte	0x1f72
ARM GAS  C:\Users\jaohe\AppData\Local\Temp\ccbQAV2C.s 			page 125


 6082 1d84 22       		.uleb128 0x22
 6083 1d85 01       		.uleb128 0x1
 6084 1d86 50       		.byte	0x50
 6085 1d87 03       		.uleb128 0x3
 6086 1d88 0A       		.byte	0xa
 6087 1d89 E803     		.2byte	0x3e8
 6088 1d8b 00       		.byte	0
 6089 1d8c 00       		.byte	0
 6090 1d8d 30       		.uleb128 0x30
 6091 1d8e 6D060000 		.4byte	.LASF193
 6092 1d92 01       		.byte	0x1
 6093 1d93 B802     		.2byte	0x2b8
 6094 1d95 00000000 		.4byte	.LFB80
 6095 1d99 24000000 		.4byte	.LFE80-.LFB80
 6096 1d9d 01       		.uleb128 0x1
 6097 1d9e 9C       		.byte	0x9c
 6098 1d9f DE1D0000 		.4byte	0x1dde
 6099 1da3 27       		.uleb128 0x27
 6100 1da4 06000000 		.4byte	.LVL219
 6101 1da8 5E230000 		.4byte	0x235e
 6102 1dac 27       		.uleb128 0x27
 6103 1dad 0A000000 		.4byte	.LVL220
 6104 1db1 C71F0000 		.4byte	0x1fc7
 6105 1db5 27       		.uleb128 0x27
 6106 1db6 10000000 		.4byte	.LVL221
 6107 1dba CF1F0000 		.4byte	0x1fcf
 6108 1dbe 23       		.uleb128 0x23
 6109 1dbf 1A000000 		.4byte	.LVL222
 6110 1dc3 F71F0000 		.4byte	0x1ff7
 6111 1dc7 22       		.uleb128 0x22
 6112 1dc8 01       		.uleb128 0x1
 6113 1dc9 52       		.byte	0x52
 6114 1dca 02       		.uleb128 0x2
 6115 1dcb 08       		.byte	0x8
 6116 1dcc 32       		.byte	0x32
 6117 1dcd 22       		.uleb128 0x22
 6118 1dce 01       		.uleb128 0x1
 6119 1dcf 51       		.byte	0x51
 6120 1dd0 02       		.uleb128 0x2
 6121 1dd1 08       		.byte	0x8
 6122 1dd2 32       		.byte	0x32
 6123 1dd3 22       		.uleb128 0x22
 6124 1dd4 01       		.uleb128 0x1
 6125 1dd5 50       		.byte	0x50
 6126 1dd6 05       		.uleb128 0x5
 6127 1dd7 03       		.byte	0x3
 6128 1dd8 58020000 		.4byte	.LC30
 6129 1ddc 00       		.byte	0
 6130 1ddd 00       		.byte	0
 6131 1dde 30       		.uleb128 0x30
 6132 1ddf B0090000 		.4byte	.LASF194
 6133 1de3 01       		.byte	0x1
 6134 1de4 C202     		.2byte	0x2c2
 6135 1de6 00000000 		.4byte	.LFB81
 6136 1dea 2E000000 		.4byte	.LFE81-.LFB81
 6137 1dee 01       		.uleb128 0x1
 6138 1def 9C       		.byte	0x9c
ARM GAS  C:\Users\jaohe\AppData\Local\Temp\ccbQAV2C.s 			page 126


 6139 1df0 5D1E0000 		.4byte	0x1e5d
 6140 1df4 2E       		.uleb128 0x2e
 6141 1df5 F9050000 		.4byte	.LASF139
 6142 1df9 01       		.byte	0x1
 6143 1dfa C302     		.2byte	0x2c3
 6144 1dfc 33000000 		.4byte	0x33
 6145 1e00 56040000 		.4byte	.LLST25
 6146 1e04 21       		.uleb128 0x21
 6147 1e05 20000000 		.4byte	.LVL223
 6148 1e09 6A230000 		.4byte	0x236a
 6149 1e0d 4A1E0000 		.4byte	0x1e4a
 6150 1e11 22       		.uleb128 0x22
 6151 1e12 01       		.uleb128 0x1
 6152 1e13 53       		.byte	0x53
 6153 1e14 01       		.uleb128 0x1
 6154 1e15 30       		.byte	0x30
 6155 1e16 22       		.uleb128 0x22
 6156 1e17 01       		.uleb128 0x1
 6157 1e18 52       		.byte	0x52
 6158 1e19 01       		.uleb128 0x1
 6159 1e1a 30       		.byte	0x30
 6160 1e1b 22       		.uleb128 0x22
 6161 1e1c 01       		.uleb128 0x1
 6162 1e1d 51       		.byte	0x51
 6163 1e1e 01       		.uleb128 0x1
 6164 1e1f 30       		.byte	0x30
 6165 1e20 22       		.uleb128 0x22
 6166 1e21 01       		.uleb128 0x1
 6167 1e22 50       		.byte	0x50
 6168 1e23 01       		.uleb128 0x1
 6169 1e24 30       		.byte	0x30
 6170 1e25 22       		.uleb128 0x22
 6171 1e26 02       		.uleb128 0x2
 6172 1e27 7D       		.byte	0x7d
 6173 1e28 14       		.sleb128 20
 6174 1e29 01       		.uleb128 0x1
 6175 1e2a 37       		.byte	0x37
 6176 1e2b 22       		.uleb128 0x22
 6177 1e2c 02       		.uleb128 0x2
 6178 1e2d 7D       		.byte	0x7d
 6179 1e2e 10       		.sleb128 16
 6180 1e2f 01       		.uleb128 0x1
 6181 1e30 31       		.byte	0x31
 6182 1e31 22       		.uleb128 0x22
 6183 1e32 02       		.uleb128 0x2
 6184 1e33 7D       		.byte	0x7d
 6185 1e34 0C       		.sleb128 12
 6186 1e35 01       		.uleb128 0x1
 6187 1e36 31       		.byte	0x31
 6188 1e37 22       		.uleb128 0x22
 6189 1e38 02       		.uleb128 0x2
 6190 1e39 7D       		.byte	0x7d
 6191 1e3a 08       		.sleb128 8
 6192 1e3b 01       		.uleb128 0x1
 6193 1e3c 31       		.byte	0x31
 6194 1e3d 22       		.uleb128 0x22
 6195 1e3e 02       		.uleb128 0x2
ARM GAS  C:\Users\jaohe\AppData\Local\Temp\ccbQAV2C.s 			page 127


 6196 1e3f 7D       		.byte	0x7d
 6197 1e40 04       		.sleb128 4
 6198 1e41 01       		.uleb128 0x1
 6199 1e42 31       		.byte	0x31
 6200 1e43 22       		.uleb128 0x22
 6201 1e44 02       		.uleb128 0x2
 6202 1e45 7D       		.byte	0x7d
 6203 1e46 00       		.sleb128 0
 6204 1e47 01       		.uleb128 0x1
 6205 1e48 30       		.byte	0x30
 6206 1e49 00       		.byte	0
 6207 1e4a 27       		.uleb128 0x27
 6208 1e4b 24000000 		.4byte	.LVL224
 6209 1e4f AC230000 		.4byte	0x23ac
 6210 1e53 27       		.uleb128 0x27
 6211 1e54 28000000 		.4byte	.LVL225
 6212 1e58 BD230000 		.4byte	0x23bd
 6213 1e5c 00       		.byte	0
 6214 1e5d 36       		.uleb128 0x36
 6215 1e5e 66050000 		.4byte	.LASF196
 6216 1e62 05       		.byte	0x5
 6217 1e63 2108     		.2byte	0x821
 6218 1e65 7E080000 		.4byte	0x87e
 6219 1e69 36       		.uleb128 0x36
 6220 1e6a 0E080000 		.4byte	.LASF197
 6221 1e6e 05       		.byte	0x5
 6222 1e6f 2208     		.2byte	0x822
 6223 1e71 7E080000 		.4byte	0x87e
 6224 1e75 36       		.uleb128 0x36
 6225 1e76 210A0000 		.4byte	.LASF198
 6226 1e7a 05       		.byte	0x5
 6227 1e7b 2308     		.2byte	0x823
 6228 1e7d 7E080000 		.4byte	0x87e
 6229 1e81 36       		.uleb128 0x36
 6230 1e82 69070000 		.4byte	.LASF199
 6231 1e86 0C       		.byte	0xc
 6232 1e87 2A06     		.2byte	0x62a
 6233 1e89 8D1E0000 		.4byte	0x1e8d
 6234 1e8d 3E       		.uleb128 0x3e
 6235 1e8e 020A0000 		.4byte	0xa02
 6236 1e92 3F       		.uleb128 0x3f
 6237 1e93 C1020000 		.4byte	.LASF200
 6238 1e97 01       		.byte	0x1
 6239 1e98 75       		.byte	0x75
 6240 1e99 9D1E0000 		.4byte	0x1e9d
 6241 1e9d 3E       		.uleb128 0x3e
 6242 1e9e 570B0000 		.4byte	0xb57
 6243 1ea2 3F       		.uleb128 0x3f
 6244 1ea3 3F060000 		.4byte	.LASF201
 6245 1ea7 01       		.byte	0x1
 6246 1ea8 48       		.byte	0x48
 6247 1ea9 71090000 		.4byte	0x971
 6248 1ead 1B       		.uleb128 0x1b
 6249 1eae 110C0000 		.4byte	0xc11
 6250 1eb2 BD1E0000 		.4byte	0x1ebd
 6251 1eb6 1C       		.uleb128 0x1c
 6252 1eb7 53090000 		.4byte	0x953
ARM GAS  C:\Users\jaohe\AppData\Local\Temp\ccbQAV2C.s 			page 128


 6253 1ebb 01       		.byte	0x1
 6254 1ebc 00       		.byte	0
 6255 1ebd 40       		.uleb128 0x40
 6256 1ebe 8F0D0000 		.4byte	.LASF202
 6257 1ec2 01       		.byte	0x1
 6258 1ec3 49       		.byte	0x49
 6259 1ec4 AD1E0000 		.4byte	0x1ead
 6260 1ec8 05       		.uleb128 0x5
 6261 1ec9 03       		.byte	0x3
 6262 1eca 00000000 		.4byte	alarms
 6263 1ece 1B       		.uleb128 0x1b
 6264 1ecf A20B0000 		.4byte	0xba2
 6265 1ed3 DE1E0000 		.4byte	0x1ede
 6266 1ed7 1C       		.uleb128 0x1c
 6267 1ed8 53090000 		.4byte	0x953
 6268 1edc 02       		.byte	0x2
 6269 1edd 00       		.byte	0
 6270 1ede 40       		.uleb128 0x40
 6271 1edf 16090000 		.4byte	.LASF203
 6272 1ee3 01       		.byte	0x1
 6273 1ee4 4F       		.byte	0x4f
 6274 1ee5 CE1E0000 		.4byte	0x1ece
 6275 1ee9 05       		.uleb128 0x5
 6276 1eea 03       		.byte	0x3
 6277 1eeb 00000000 		.4byte	tasks
 6278 1eef 40       		.uleb128 0x40
 6279 1ef0 90000000 		.4byte	.LASF204
 6280 1ef4 01       		.byte	0x1
 6281 1ef5 63       		.byte	0x63
 6282 1ef6 33000000 		.4byte	0x33
 6283 1efa 05       		.uleb128 0x5
 6284 1efb 03       		.byte	0x3
 6285 1efc 00000000 		.4byte	numAlarms
 6286 1f00 40       		.uleb128 0x40
 6287 1f01 E3050000 		.4byte	.LASF205
 6288 1f05 01       		.byte	0x1
 6289 1f06 64       		.byte	0x64
 6290 1f07 33000000 		.4byte	0x33
 6291 1f0b 05       		.uleb128 0x5
 6292 1f0c 03       		.byte	0x3
 6293 1f0d 00000000 		.4byte	numTasks
 6294 1f11 40       		.uleb128 0x40
 6295 1f12 C3090000 		.4byte	.LASF206
 6296 1f16 01       		.byte	0x1
 6297 1f17 6C       		.byte	0x6c
 6298 1f18 33000000 		.4byte	0x33
 6299 1f1c 05       		.uleb128 0x5
 6300 1f1d 03       		.byte	0x3
 6301 1f1e 00000000 		.4byte	fsmState
 6302 1f22 40       		.uleb128 0x40
 6303 1f23 E4000000 		.4byte	.LASF207
 6304 1f27 01       		.byte	0x1
 6305 1f28 6F       		.byte	0x6f
 6306 1f29 110C0000 		.4byte	0xc11
 6307 1f2d 05       		.uleb128 0x5
 6308 1f2e 03       		.byte	0x3
 6309 1f2f 00000000 		.4byte	current_alarm
ARM GAS  C:\Users\jaohe\AppData\Local\Temp\ccbQAV2C.s 			page 129


 6310 1f33 41       		.uleb128 0x41
 6311 1f34 6F010000 		.4byte	.LASF195
 6312 1f38 01       		.byte	0x1
 6313 1f39 DF01     		.2byte	0x1df
 6314 1f3b E60B0000 		.4byte	0xbe6
 6315 1f3f 05       		.uleb128 0x5
 6316 1f40 03       		.byte	0x3
 6317 1f41 00000000 		.4byte	current_task
 6318 1f45 40       		.uleb128 0x40
 6319 1f46 F50D0000 		.4byte	.LASF208
 6320 1f4a 01       		.byte	0x1
 6321 1f4b 71       		.byte	0x71
 6322 1f4c 9D1E0000 		.4byte	0x1e9d
 6323 1f50 05       		.uleb128 0x5
 6324 1f51 03       		.byte	0x3
 6325 1f52 00000000 		.4byte	isr_flag
 6326 1f56 42       		.uleb128 0x42
 6327 1f57 05090000 		.4byte	.LASF209
 6328 1f5b 0D       		.byte	0xd
 6329 1f5c 8B       		.byte	0x8b
 6330 1f5d 671F0000 		.4byte	0x1f67
 6331 1f61 0B       		.uleb128 0xb
 6332 1f62 671F0000 		.4byte	0x1f67
 6333 1f66 00       		.byte	0
 6334 1f67 08       		.uleb128 0x8
 6335 1f68 04       		.byte	0x4
 6336 1f69 6D1F0000 		.4byte	0x1f6d
 6337 1f6d 09       		.uleb128 0x9
 6338 1f6e 470A0000 		.4byte	0xa47
 6339 1f72 42       		.uleb128 0x42
 6340 1f73 9F090000 		.4byte	.LASF210
 6341 1f77 0E       		.byte	0xe
 6342 1f78 77       		.byte	0x77
 6343 1f79 831F0000 		.4byte	0x1f83
 6344 1f7d 0B       		.uleb128 0xb
 6345 1f7e 230A0000 		.4byte	0xa23
 6346 1f82 00       		.byte	0
 6347 1f83 43       		.uleb128 0x43
 6348 1f84 3A030000 		.4byte	.LASF211
 6349 1f88 0D       		.byte	0xd
 6350 1f89 71       		.byte	0x71
 6351 1f8a 0D0A0000 		.4byte	0xa0d
 6352 1f8e 43       		.uleb128 0x43
 6353 1f8f AF050000 		.4byte	.LASF212
 6354 1f93 0D       		.byte	0xd
 6355 1f94 73       		.byte	0x73
 6356 1f95 0D0A0000 		.4byte	0xa0d
 6357 1f99 43       		.uleb128 0x43
 6358 1f9a 3F070000 		.4byte	.LASF213
 6359 1f9e 0F       		.byte	0xf
 6360 1f9f 29       		.byte	0x29
 6361 1fa0 0D0A0000 		.4byte	0xa0d
 6362 1fa4 42       		.uleb128 0x42
 6363 1fa5 F9080000 		.4byte	.LASF214
 6364 1fa9 0F       		.byte	0xf
 6365 1faa 26       		.byte	0x26
 6366 1fab B51F0000 		.4byte	0x1fb5
ARM GAS  C:\Users\jaohe\AppData\Local\Temp\ccbQAV2C.s 			page 130


 6367 1faf 0B       		.uleb128 0xb
 6368 1fb0 0D0A0000 		.4byte	0xa0d
 6369 1fb4 00       		.byte	0
 6370 1fb5 44       		.uleb128 0x44
 6371 1fb6 87040000 		.4byte	.LASF215
 6372 1fba 05       		.byte	0x5
 6373 1fbb C001     		.2byte	0x1c0
 6374 1fbd C71F0000 		.4byte	0x1fc7
 6375 1fc1 0B       		.uleb128 0xb
 6376 1fc2 D8020000 		.4byte	0x2d8
 6377 1fc6 00       		.byte	0
 6378 1fc7 45       		.uleb128 0x45
 6379 1fc8 2F080000 		.4byte	.LASF254
 6380 1fcc 05       		.byte	0x5
 6381 1fcd F601     		.2byte	0x1f6
 6382 1fcf 46       		.uleb128 0x46
 6383 1fd0 360C0000 		.4byte	.LASF225
 6384 1fd4 05       		.byte	0x5
 6385 1fd5 2B03     		.2byte	0x32b
 6386 1fd7 78080000 		.4byte	0x878
 6387 1fdb E51F0000 		.4byte	0x1fe5
 6388 1fdf 0B       		.uleb128 0xb
 6389 1fe0 78080000 		.4byte	0x878
 6390 1fe4 00       		.byte	0
 6391 1fe5 44       		.uleb128 0x44
 6392 1fe6 76070000 		.4byte	.LASF216
 6393 1fea 05       		.byte	0x5
 6394 1feb C101     		.2byte	0x1c1
 6395 1fed F71F0000 		.4byte	0x1ff7
 6396 1ff1 0B       		.uleb128 0xb
 6397 1ff2 D8020000 		.4byte	0x2d8
 6398 1ff6 00       		.byte	0
 6399 1ff7 44       		.uleb128 0x44
 6400 1ff8 42020000 		.4byte	.LASF217
 6401 1ffc 05       		.byte	0x5
 6402 1ffd 0503     		.2byte	0x305
 6403 1fff 13200000 		.4byte	0x2013
 6404 2003 0B       		.uleb128 0xb
 6405 2004 CD020000 		.4byte	0x2cd
 6406 2008 0B       		.uleb128 0xb
 6407 2009 33000000 		.4byte	0x33
 6408 200d 0B       		.uleb128 0xb
 6409 200e 33000000 		.4byte	0x33
 6410 2012 00       		.byte	0
 6411 2013 42       		.uleb128 0x42
 6412 2014 4C050000 		.4byte	.LASF218
 6413 2018 0A       		.byte	0xa
 6414 2019 55       		.byte	0x55
 6415 201a 24200000 		.4byte	0x2024
 6416 201e 0B       		.uleb128 0xb
 6417 201f 24200000 		.4byte	0x2024
 6418 2023 00       		.byte	0
 6419 2024 08       		.uleb128 0x8
 6420 2025 04       		.byte	0x4
 6421 2026 B4060000 		.4byte	0x6b4
 6422 202a 43       		.uleb128 0x43
 6423 202b 12070000 		.4byte	.LASF219
ARM GAS  C:\Users\jaohe\AppData\Local\Temp\ccbQAV2C.s 			page 131


 6424 202f 10       		.byte	0x10
 6425 2030 29       		.byte	0x29
 6426 2031 0D0A0000 		.4byte	0xa0d
 6427 2035 42       		.uleb128 0x42
 6428 2036 C5080000 		.4byte	.LASF220
 6429 203a 0A       		.byte	0xa
 6430 203b 57       		.byte	0x57
 6431 203c 4B200000 		.4byte	0x204b
 6432 2040 0B       		.uleb128 0xb
 6433 2041 33000000 		.4byte	0x33
 6434 2045 0B       		.uleb128 0xb
 6435 2046 B4060000 		.4byte	0x6b4
 6436 204a 00       		.byte	0
 6437 204b 42       		.uleb128 0x42
 6438 204c 4A070000 		.4byte	.LASF221
 6439 2050 0A       		.byte	0xa
 6440 2051 56       		.byte	0x56
 6441 2052 61200000 		.4byte	0x2061
 6442 2056 0B       		.uleb128 0xb
 6443 2057 33000000 		.4byte	0x33
 6444 205b 0B       		.uleb128 0xb
 6445 205c B4060000 		.4byte	0x6b4
 6446 2060 00       		.byte	0
 6447 2061 43       		.uleb128 0x43
 6448 2062 00060000 		.4byte	.LASF222
 6449 2066 11       		.byte	0x11
 6450 2067 29       		.byte	0x29
 6451 2068 0D0A0000 		.4byte	0xa0d
 6452 206c 43       		.uleb128 0x43
 6453 206d 87080000 		.4byte	.LASF223
 6454 2071 12       		.byte	0x12
 6455 2072 29       		.byte	0x29
 6456 2073 0D0A0000 		.4byte	0xa0d
 6457 2077 44       		.uleb128 0x44
 6458 2078 940A0000 		.4byte	.LASF224
 6459 207c 05       		.byte	0x5
 6460 207d 1A02     		.2byte	0x21a
 6461 207f 98200000 		.4byte	0x2098
 6462 2083 0B       		.uleb128 0xb
 6463 2084 33000000 		.4byte	0x33
 6464 2088 0B       		.uleb128 0xb
 6465 2089 33000000 		.4byte	0x33
 6466 208d 0B       		.uleb128 0xb
 6467 208e 33000000 		.4byte	0x33
 6468 2092 0B       		.uleb128 0xb
 6469 2093 33000000 		.4byte	0x33
 6470 2097 00       		.byte	0
 6471 2098 46       		.uleb128 0x46
 6472 2099 C20C0000 		.4byte	.LASF226
 6473 209d 05       		.byte	0x5
 6474 209e C501     		.2byte	0x1c5
 6475 20a0 E8000000 		.4byte	0xe8
 6476 20a4 AE200000 		.4byte	0x20ae
 6477 20a8 0B       		.uleb128 0xb
 6478 20a9 E8000000 		.4byte	0xe8
 6479 20ad 00       		.byte	0
 6480 20ae 44       		.uleb128 0x44
ARM GAS  C:\Users\jaohe\AppData\Local\Temp\ccbQAV2C.s 			page 132


 6481 20af AF020000 		.4byte	.LASF227
 6482 20b3 05       		.byte	0x5
 6483 20b4 1202     		.2byte	0x212
 6484 20b6 CF200000 		.4byte	0x20cf
 6485 20ba 0B       		.uleb128 0xb
 6486 20bb 33000000 		.4byte	0x33
 6487 20bf 0B       		.uleb128 0xb
 6488 20c0 33000000 		.4byte	0x33
 6489 20c4 0B       		.uleb128 0xb
 6490 20c5 33000000 		.4byte	0x33
 6491 20c9 0B       		.uleb128 0xb
 6492 20ca 33000000 		.4byte	0x33
 6493 20ce 00       		.byte	0
 6494 20cf 44       		.uleb128 0x44
 6495 20d0 450D0000 		.4byte	.LASF228
 6496 20d4 05       		.byte	0x5
 6497 20d5 0E03     		.2byte	0x30e
 6498 20d7 F0200000 		.4byte	0x20f0
 6499 20db 0B       		.uleb128 0xb
 6500 20dc CD020000 		.4byte	0x2cd
 6501 20e0 0B       		.uleb128 0xb
 6502 20e1 5A090000 		.4byte	0x95a
 6503 20e5 0B       		.uleb128 0xb
 6504 20e6 33000000 		.4byte	0x33
 6505 20ea 0B       		.uleb128 0xb
 6506 20eb 92090000 		.4byte	0x992
 6507 20ef 00       		.byte	0
 6508 20f0 47       		.uleb128 0x47
 6509 20f1 7B060000 		.4byte	.LASF229
 6510 20f5 13       		.byte	0x13
 6511 20f6 DE       		.byte	0xde
 6512 20f7 33000000 		.4byte	0x33
 6513 20fb 0B210000 		.4byte	0x210b
 6514 20ff 0B       		.uleb128 0xb
 6515 2100 B4060000 		.4byte	0x6b4
 6516 2104 0B       		.uleb128 0xb
 6517 2105 CD020000 		.4byte	0x2cd
 6518 2109 48       		.uleb128 0x48
 6519 210a 00       		.byte	0
 6520 210b 47       		.uleb128 0x47
 6521 210c 90070000 		.4byte	.LASF230
 6522 2110 0A       		.byte	0xa
 6523 2111 4A       		.byte	0x4a
 6524 2112 2B0B0000 		.4byte	0xb2b
 6525 2116 20210000 		.4byte	0x2120
 6526 211a 0B       		.uleb128 0xb
 6527 211b E60B0000 		.4byte	0xbe6
 6528 211f 00       		.byte	0
 6529 2120 46       		.uleb128 0x46
 6530 2121 D2060000 		.4byte	.LASF231
 6531 2125 13       		.byte	0x13
 6532 2126 0C01     		.2byte	0x10c
 6533 2128 33000000 		.4byte	0x33
 6534 212c 41210000 		.4byte	0x2141
 6535 2130 0B       		.uleb128 0xb
 6536 2131 B4060000 		.4byte	0x6b4
 6537 2135 0B       		.uleb128 0xb
ARM GAS  C:\Users\jaohe\AppData\Local\Temp\ccbQAV2C.s 			page 133


 6538 2136 3A000000 		.4byte	0x3a
 6539 213a 0B       		.uleb128 0xb
 6540 213b CD020000 		.4byte	0x2cd
 6541 213f 48       		.uleb128 0x48
 6542 2140 00       		.byte	0
 6543 2141 42       		.uleb128 0x42
 6544 2142 1D010000 		.4byte	.LASF232
 6545 2146 0A       		.byte	0xa
 6546 2147 58       		.byte	0x58
 6547 2148 5C210000 		.4byte	0x215c
 6548 214c 0B       		.uleb128 0xb
 6549 214d 33000000 		.4byte	0x33
 6550 2151 0B       		.uleb128 0xb
 6551 2152 B4060000 		.4byte	0x6b4
 6552 2156 0B       		.uleb128 0xb
 6553 2157 B4060000 		.4byte	0x6b4
 6554 215b 00       		.byte	0
 6555 215c 42       		.uleb128 0x42
 6556 215d DC080000 		.4byte	.LASF233
 6557 2161 14       		.byte	0x14
 6558 2162 8B       		.byte	0x8b
 6559 2163 6D210000 		.4byte	0x216d
 6560 2167 0B       		.uleb128 0xb
 6561 2168 671F0000 		.4byte	0x1f67
 6562 216c 00       		.byte	0
 6563 216d 42       		.uleb128 0x42
 6564 216e 410B0000 		.4byte	.LASF234
 6565 2172 14       		.byte	0x14
 6566 2173 8E       		.byte	0x8e
 6567 2174 7E210000 		.4byte	0x217e
 6568 2178 0B       		.uleb128 0xb
 6569 2179 0D0A0000 		.4byte	0xa0d
 6570 217d 00       		.byte	0
 6571 217e 43       		.uleb128 0x43
 6572 217f A70B0000 		.4byte	.LASF235
 6573 2183 15       		.byte	0x15
 6574 2184 29       		.byte	0x29
 6575 2185 0D0A0000 		.4byte	0xa0d
 6576 2189 44       		.uleb128 0x44
 6577 218a A0040000 		.4byte	.LASF236
 6578 218e 05       		.byte	0x5
 6579 218f F801     		.2byte	0x1f8
 6580 2191 9B210000 		.4byte	0x219b
 6581 2195 0B       		.uleb128 0xb
 6582 2196 60090000 		.4byte	0x960
 6583 219a 00       		.byte	0
 6584 219b 49       		.uleb128 0x49
 6585 219c 67010000 		.4byte	.LASF237
 6586 21a0 09       		.byte	0x9
 6587 21a1 55       		.byte	0x55
 6588 21a2 B80A0000 		.4byte	0xab8
 6589 21a6 AC210000 		.4byte	0x21ac
 6590 21aa 48       		.uleb128 0x48
 6591 21ab 00       		.byte	0
 6592 21ac 43       		.uleb128 0x43
 6593 21ad D5000000 		.4byte	.LASF238
 6594 21b1 14       		.byte	0x14
ARM GAS  C:\Users\jaohe\AppData\Local\Temp\ccbQAV2C.s 			page 134


 6595 21b2 71       		.byte	0x71
 6596 21b3 0D0A0000 		.4byte	0xa0d
 6597 21b7 42       		.uleb128 0x42
 6598 21b8 960D0000 		.4byte	.LASF239
 6599 21bc 14       		.byte	0x14
 6600 21bd 8A       		.byte	0x8a
 6601 21be C8210000 		.4byte	0x21c8
 6602 21c2 0B       		.uleb128 0xb
 6603 21c3 0D0A0000 		.4byte	0xa0d
 6604 21c7 00       		.byte	0
 6605 21c8 42       		.uleb128 0x42
 6606 21c9 690D0000 		.4byte	.LASF240
 6607 21cd 16       		.byte	0x16
 6608 21ce 3D       		.byte	0x3d
 6609 21cf DE210000 		.4byte	0x21de
 6610 21d3 0B       		.uleb128 0xb
 6611 21d4 0D0A0000 		.4byte	0xa0d
 6612 21d8 0B       		.uleb128 0xb
 6613 21d9 0D0A0000 		.4byte	0xa0d
 6614 21dd 00       		.byte	0
 6615 21de 42       		.uleb128 0x42
 6616 21df 2E050000 		.4byte	.LASF241
 6617 21e3 16       		.byte	0x16
 6618 21e4 3C       		.byte	0x3c
 6619 21e5 EF210000 		.4byte	0x21ef
 6620 21e9 0B       		.uleb128 0xb
 6621 21ea 671F0000 		.4byte	0x1f67
 6622 21ee 00       		.byte	0
 6623 21ef 47       		.uleb128 0x47
 6624 21f0 E5030000 		.4byte	.LASF242
 6625 21f4 17       		.byte	0x17
 6626 21f5 21       		.byte	0x21
 6627 21f6 3A000000 		.4byte	0x3a
 6628 21fa 04220000 		.4byte	0x2204
 6629 21fe 0B       		.uleb128 0xb
 6630 21ff CD020000 		.4byte	0x2cd
 6631 2203 00       		.byte	0
 6632 2204 44       		.uleb128 0x44
 6633 2205 000D0000 		.4byte	.LASF243
 6634 2209 05       		.byte	0x5
 6635 220a 0B03     		.2byte	0x30b
 6636 220c 2A220000 		.4byte	0x222a
 6637 2210 0B       		.uleb128 0xb
 6638 2211 CD020000 		.4byte	0x2cd
 6639 2215 0B       		.uleb128 0xb
 6640 2216 5A090000 		.4byte	0x95a
 6641 221a 0B       		.uleb128 0xb
 6642 221b 33000000 		.4byte	0x33
 6643 221f 0B       		.uleb128 0xb
 6644 2220 33000000 		.4byte	0x33
 6645 2224 0B       		.uleb128 0xb
 6646 2225 2A220000 		.4byte	0x222a
 6647 2229 00       		.byte	0
 6648 222a 08       		.uleb128 0x8
 6649 222b 04       		.byte	0x4
 6650 222c 30220000 		.4byte	0x2230
 6651 2230 09       		.uleb128 0x9
ARM GAS  C:\Users\jaohe\AppData\Local\Temp\ccbQAV2C.s 			page 135


 6652 2231 C1020000 		.4byte	0x2c1
 6653 2235 43       		.uleb128 0x43
 6654 2236 CD0A0000 		.4byte	.LASF244
 6655 223a 14       		.byte	0x14
 6656 223b 73       		.byte	0x73
 6657 223c 0D0A0000 		.4byte	0xa0d
 6658 2240 44       		.uleb128 0x44
 6659 2241 34000000 		.4byte	.LASF245
 6660 2245 05       		.byte	0x5
 6661 2246 FB01     		.2byte	0x1fb
 6662 2248 5C220000 		.4byte	0x225c
 6663 224c 0B       		.uleb128 0xb
 6664 224d 6B090000 		.4byte	0x96b
 6665 2251 0B       		.uleb128 0xb
 6666 2252 33000000 		.4byte	0x33
 6667 2256 0B       		.uleb128 0xb
 6668 2257 33000000 		.4byte	0x33
 6669 225b 00       		.byte	0
 6670 225c 42       		.uleb128 0x42
 6671 225d 6F040000 		.4byte	.LASF246
 6672 2261 16       		.byte	0x16
 6673 2262 3A       		.byte	0x3a
 6674 2263 6D220000 		.4byte	0x226d
 6675 2267 0B       		.uleb128 0xb
 6676 2268 0D0A0000 		.4byte	0xa0d
 6677 226c 00       		.byte	0
 6678 226d 43       		.uleb128 0x43
 6679 226e C6050000 		.4byte	.LASF247
 6680 2272 18       		.byte	0x18
 6681 2273 29       		.byte	0x29
 6682 2274 0D0A0000 		.4byte	0xa0d
 6683 2278 42       		.uleb128 0x42
 6684 2279 A3070000 		.4byte	.LASF248
 6685 227d 18       		.byte	0x18
 6686 227e 26       		.byte	0x26
 6687 227f 89220000 		.4byte	0x2289
 6688 2283 0B       		.uleb128 0xb
 6689 2284 0D0A0000 		.4byte	0xa0d
 6690 2288 00       		.byte	0
 6691 2289 4A       		.uleb128 0x4a
 6692 228a 010C0000 		.4byte	.LASF250
 6693 228e 0A       		.byte	0xa
 6694 228f 47       		.byte	0x47
 6695 2290 96220000 		.4byte	0x2296
 6696 2294 48       		.uleb128 0x48
 6697 2295 00       		.byte	0
 6698 2296 47       		.uleb128 0x47
 6699 2297 59050000 		.4byte	.LASF249
 6700 229b 0A       		.byte	0xa
 6701 229c 4B       		.byte	0x4b
 6702 229d 2B0B0000 		.4byte	0xb2b
 6703 22a1 B0220000 		.4byte	0x22b0
 6704 22a5 0B       		.uleb128 0xb
 6705 22a6 2B0B0000 		.4byte	0xb2b
 6706 22aa 0B       		.uleb128 0xb
 6707 22ab 33000000 		.4byte	0x33
 6708 22af 00       		.byte	0
ARM GAS  C:\Users\jaohe\AppData\Local\Temp\ccbQAV2C.s 			page 136


 6709 22b0 4A       		.uleb128 0x4a
 6710 22b1 1D060000 		.4byte	.LASF251
 6711 22b5 0A       		.byte	0xa
 6712 22b6 48       		.byte	0x48
 6713 22b7 BD220000 		.4byte	0x22bd
 6714 22bb 48       		.uleb128 0x48
 6715 22bc 00       		.byte	0
 6716 22bd 43       		.uleb128 0x43
 6717 22be 830B0000 		.4byte	.LASF252
 6718 22c2 19       		.byte	0x19
 6719 22c3 5E       		.byte	0x5e
 6720 22c4 0D0A0000 		.4byte	0xa0d
 6721 22c8 43       		.uleb128 0x43
 6722 22c9 26060000 		.4byte	.LASF253
 6723 22cd 1A       		.byte	0x1a
 6724 22ce 41       		.byte	0x41
 6725 22cf 2E0A0000 		.4byte	0xa2e
 6726 22d3 4B       		.uleb128 0x4b
 6727 22d4 A50D0000 		.4byte	.LASF255
 6728 22d8 1A       		.byte	0x1a
 6729 22d9 3A       		.byte	0x3a
 6730 22da 4B       		.uleb128 0x4b
 6731 22db 6E000000 		.4byte	.LASF256
 6732 22df 1A       		.byte	0x1a
 6733 22e0 3D       		.byte	0x3d
 6734 22e1 47       		.uleb128 0x47
 6735 22e2 B80B0000 		.4byte	.LASF257
 6736 22e6 1A       		.byte	0x1a
 6737 22e7 3F       		.byte	0x3f
 6738 22e8 0D0A0000 		.4byte	0xa0d
 6739 22ec F6220000 		.4byte	0x22f6
 6740 22f0 0B       		.uleb128 0xb
 6741 22f1 0D0A0000 		.4byte	0xa0d
 6742 22f5 00       		.byte	0
 6743 22f6 4B       		.uleb128 0x4b
 6744 22f7 71080000 		.4byte	.LASF258
 6745 22fb 1B       		.byte	0x1b
 6746 22fc 28       		.byte	0x28
 6747 22fd 4B       		.uleb128 0x4b
 6748 22fe 840C0000 		.4byte	.LASF259
 6749 2302 1C       		.byte	0x1c
 6750 2303 28       		.byte	0x28
 6751 2304 4B       		.uleb128 0x4b
 6752 2305 E9040000 		.4byte	.LASF260
 6753 2309 19       		.byte	0x19
 6754 230a 5A       		.byte	0x5a
 6755 230b 42       		.uleb128 0x42
 6756 230c 5C060000 		.4byte	.LASF261
 6757 2310 1B       		.byte	0x1b
 6758 2311 18       		.byte	0x18
 6759 2312 1C230000 		.4byte	0x231c
 6760 2316 0B       		.uleb128 0xb
 6761 2317 520A0000 		.4byte	0xa52
 6762 231b 00       		.byte	0
 6763 231c 42       		.uleb128 0x42
 6764 231d 750B0000 		.4byte	.LASF262
 6765 2321 1C       		.byte	0x1c
ARM GAS  C:\Users\jaohe\AppData\Local\Temp\ccbQAV2C.s 			page 137


 6766 2322 18       		.byte	0x18
 6767 2323 2D230000 		.4byte	0x232d
 6768 2327 0B       		.uleb128 0xb
 6769 2328 520A0000 		.4byte	0xa52
 6770 232c 00       		.byte	0
 6771 232d 4B       		.uleb128 0x4b
 6772 232e 11020000 		.4byte	.LASF263
 6773 2332 1D       		.byte	0x1d
 6774 2333 93       		.byte	0x93
 6775 2334 4B       		.uleb128 0x4b
 6776 2335 FE0D0000 		.4byte	.LASF264
 6777 2339 1E       		.byte	0x1e
 6778 233a 53       		.byte	0x53
 6779 233b 4B       		.uleb128 0x4b
 6780 233c 1E020000 		.4byte	.LASF265
 6781 2340 16       		.byte	0x16
 6782 2341 38       		.byte	0x38
 6783 2342 4B       		.uleb128 0x4b
 6784 2343 A0080000 		.4byte	.LASF266
 6785 2347 0D       		.byte	0xd
 6786 2348 59       		.byte	0x59
 6787 2349 4B       		.uleb128 0x4b
 6788 234a A2020000 		.4byte	.LASF267
 6789 234e 0D       		.byte	0xd
 6790 234f 54       		.byte	0x54
 6791 2350 4B       		.uleb128 0x4b
 6792 2351 EC030000 		.4byte	.LASF268
 6793 2355 14       		.byte	0x14
 6794 2356 59       		.byte	0x59
 6795 2357 4B       		.uleb128 0x4b
 6796 2358 19030000 		.4byte	.LASF269
 6797 235c 14       		.byte	0x14
 6798 235d 54       		.byte	0x54
 6799 235e 4C       		.uleb128 0x4c
 6800 235f 01070000 		.4byte	.LASF270
 6801 2363 05       		.byte	0x5
 6802 2364 6D01     		.2byte	0x16d
 6803 2366 33000000 		.4byte	0x33
 6804 236a 47       		.uleb128 0x47
 6805 236b B0040000 		.4byte	.LASF271
 6806 236f 09       		.byte	0x9
 6807 2370 5D       		.byte	0x5d
 6808 2371 33000000 		.4byte	0x33
 6809 2375 AC230000 		.4byte	0x23ac
 6810 2379 0B       		.uleb128 0xb
 6811 237a EC090000 		.4byte	0x9ec
 6812 237e 0B       		.uleb128 0xb
 6813 237f EC090000 		.4byte	0x9ec
 6814 2383 0B       		.uleb128 0xb
 6815 2384 EC090000 		.4byte	0x9ec
 6816 2388 0B       		.uleb128 0xb
 6817 2389 EC090000 		.4byte	0x9ec
 6818 238d 0B       		.uleb128 0xb
 6819 238e 570B0000 		.4byte	0xb57
 6820 2392 0B       		.uleb128 0xb
 6821 2393 570B0000 		.4byte	0xb57
 6822 2397 0B       		.uleb128 0xb
ARM GAS  C:\Users\jaohe\AppData\Local\Temp\ccbQAV2C.s 			page 138


 6823 2398 570B0000 		.4byte	0xb57
 6824 239c 0B       		.uleb128 0xb
 6825 239d 570B0000 		.4byte	0xb57
 6826 23a1 0B       		.uleb128 0xb
 6827 23a2 570B0000 		.4byte	0xb57
 6828 23a6 0B       		.uleb128 0xb
 6829 23a7 F7090000 		.4byte	0x9f7
 6830 23ab 00       		.byte	0
 6831 23ac 42       		.uleb128 0x42
 6832 23ad C7060000 		.4byte	.LASF272
 6833 23b1 09       		.byte	0x9
 6834 23b2 63       		.byte	0x63
 6835 23b3 BD230000 		.4byte	0x23bd
 6836 23b7 0B       		.uleb128 0xb
 6837 23b8 33000000 		.4byte	0x33
 6838 23bc 00       		.byte	0
 6839 23bd 4D       		.uleb128 0x4d
 6840 23be 9A000000 		.4byte	.LASF273
 6841 23c2 09       		.byte	0x9
 6842 23c3 5C       		.byte	0x5c
 6843 23c4 33000000 		.4byte	0x33
 6844 23c8 48       		.uleb128 0x48
 6845 23c9 00       		.byte	0
 6846 23ca 00       		.byte	0
 6847              		.section	.debug_abbrev,"",%progbits
 6848              	.Ldebug_abbrev0:
 6849 0000 01       		.uleb128 0x1
 6850 0001 11       		.uleb128 0x11
 6851 0002 01       		.byte	0x1
 6852 0003 25       		.uleb128 0x25
 6853 0004 0E       		.uleb128 0xe
 6854 0005 13       		.uleb128 0x13
 6855 0006 0B       		.uleb128 0xb
 6856 0007 03       		.uleb128 0x3
 6857 0008 0E       		.uleb128 0xe
 6858 0009 1B       		.uleb128 0x1b
 6859 000a 0E       		.uleb128 0xe
 6860 000b 55       		.uleb128 0x55
 6861 000c 17       		.uleb128 0x17
 6862 000d 11       		.uleb128 0x11
 6863 000e 01       		.uleb128 0x1
 6864 000f 10       		.uleb128 0x10
 6865 0010 17       		.uleb128 0x17
 6866 0011 00       		.byte	0
 6867 0012 00       		.byte	0
 6868 0013 02       		.uleb128 0x2
 6869 0014 24       		.uleb128 0x24
 6870 0015 00       		.byte	0
 6871 0016 0B       		.uleb128 0xb
 6872 0017 0B       		.uleb128 0xb
 6873 0018 3E       		.uleb128 0x3e
 6874 0019 0B       		.uleb128 0xb
 6875 001a 03       		.uleb128 0x3
 6876 001b 0E       		.uleb128 0xe
 6877 001c 00       		.byte	0
 6878 001d 00       		.byte	0
 6879 001e 03       		.uleb128 0x3
ARM GAS  C:\Users\jaohe\AppData\Local\Temp\ccbQAV2C.s 			page 139


 6880 001f 24       		.uleb128 0x24
 6881 0020 00       		.byte	0
 6882 0021 0B       		.uleb128 0xb
 6883 0022 0B       		.uleb128 0xb
 6884 0023 3E       		.uleb128 0x3e
 6885 0024 0B       		.uleb128 0xb
 6886 0025 03       		.uleb128 0x3
 6887 0026 08       		.uleb128 0x8
 6888 0027 00       		.byte	0
 6889 0028 00       		.byte	0
 6890 0029 04       		.uleb128 0x4
 6891 002a 16       		.uleb128 0x16
 6892 002b 00       		.byte	0
 6893 002c 03       		.uleb128 0x3
 6894 002d 0E       		.uleb128 0xe
 6895 002e 3A       		.uleb128 0x3a
 6896 002f 0B       		.uleb128 0xb
 6897 0030 3B       		.uleb128 0x3b
 6898 0031 0B       		.uleb128 0xb
 6899 0032 49       		.uleb128 0x49
 6900 0033 13       		.uleb128 0x13
 6901 0034 00       		.byte	0
 6902 0035 00       		.byte	0
 6903 0036 05       		.uleb128 0x5
 6904 0037 13       		.uleb128 0x13
 6905 0038 01       		.byte	0x1
 6906 0039 0B       		.uleb128 0xb
 6907 003a 0B       		.uleb128 0xb
 6908 003b 3A       		.uleb128 0x3a
 6909 003c 0B       		.uleb128 0xb
 6910 003d 3B       		.uleb128 0x3b
 6911 003e 0B       		.uleb128 0xb
 6912 003f 01       		.uleb128 0x1
 6913 0040 13       		.uleb128 0x13
 6914 0041 00       		.byte	0
 6915 0042 00       		.byte	0
 6916 0043 06       		.uleb128 0x6
 6917 0044 0D       		.uleb128 0xd
 6918 0045 00       		.byte	0
 6919 0046 03       		.uleb128 0x3
 6920 0047 08       		.uleb128 0x8
 6921 0048 3A       		.uleb128 0x3a
 6922 0049 0B       		.uleb128 0xb
 6923 004a 3B       		.uleb128 0x3b
 6924 004b 0B       		.uleb128 0xb
 6925 004c 49       		.uleb128 0x49
 6926 004d 13       		.uleb128 0x13
 6927 004e 38       		.uleb128 0x38
 6928 004f 0B       		.uleb128 0xb
 6929 0050 00       		.byte	0
 6930 0051 00       		.byte	0
 6931 0052 07       		.uleb128 0x7
 6932 0053 0D       		.uleb128 0xd
 6933 0054 00       		.byte	0
 6934 0055 03       		.uleb128 0x3
 6935 0056 0E       		.uleb128 0xe
 6936 0057 3A       		.uleb128 0x3a
ARM GAS  C:\Users\jaohe\AppData\Local\Temp\ccbQAV2C.s 			page 140


 6937 0058 0B       		.uleb128 0xb
 6938 0059 3B       		.uleb128 0x3b
 6939 005a 0B       		.uleb128 0xb
 6940 005b 49       		.uleb128 0x49
 6941 005c 13       		.uleb128 0x13
 6942 005d 38       		.uleb128 0x38
 6943 005e 0B       		.uleb128 0xb
 6944 005f 00       		.byte	0
 6945 0060 00       		.byte	0
 6946 0061 08       		.uleb128 0x8
 6947 0062 0F       		.uleb128 0xf
 6948 0063 00       		.byte	0
 6949 0064 0B       		.uleb128 0xb
 6950 0065 0B       		.uleb128 0xb
 6951 0066 49       		.uleb128 0x49
 6952 0067 13       		.uleb128 0x13
 6953 0068 00       		.byte	0
 6954 0069 00       		.byte	0
 6955 006a 09       		.uleb128 0x9
 6956 006b 26       		.uleb128 0x26
 6957 006c 00       		.byte	0
 6958 006d 49       		.uleb128 0x49
 6959 006e 13       		.uleb128 0x13
 6960 006f 00       		.byte	0
 6961 0070 00       		.byte	0
 6962 0071 0A       		.uleb128 0xa
 6963 0072 15       		.uleb128 0x15
 6964 0073 01       		.byte	0x1
 6965 0074 27       		.uleb128 0x27
 6966 0075 19       		.uleb128 0x19
 6967 0076 49       		.uleb128 0x49
 6968 0077 13       		.uleb128 0x13
 6969 0078 01       		.uleb128 0x1
 6970 0079 13       		.uleb128 0x13
 6971 007a 00       		.byte	0
 6972 007b 00       		.byte	0
 6973 007c 0B       		.uleb128 0xb
 6974 007d 05       		.uleb128 0x5
 6975 007e 00       		.byte	0
 6976 007f 49       		.uleb128 0x49
 6977 0080 13       		.uleb128 0x13
 6978 0081 00       		.byte	0
 6979 0082 00       		.byte	0
 6980 0083 0C       		.uleb128 0xc
 6981 0084 15       		.uleb128 0x15
 6982 0085 00       		.byte	0
 6983 0086 27       		.uleb128 0x27
 6984 0087 19       		.uleb128 0x19
 6985 0088 49       		.uleb128 0x49
 6986 0089 13       		.uleb128 0x13
 6987 008a 00       		.byte	0
 6988 008b 00       		.byte	0
 6989 008c 0D       		.uleb128 0xd
 6990 008d 15       		.uleb128 0x15
 6991 008e 01       		.byte	0x1
 6992 008f 27       		.uleb128 0x27
 6993 0090 19       		.uleb128 0x19
ARM GAS  C:\Users\jaohe\AppData\Local\Temp\ccbQAV2C.s 			page 141


 6994 0091 01       		.uleb128 0x1
 6995 0092 13       		.uleb128 0x13
 6996 0093 00       		.byte	0
 6997 0094 00       		.byte	0
 6998 0095 0E       		.uleb128 0xe
 6999 0096 0F       		.uleb128 0xf
 7000 0097 00       		.byte	0
 7001 0098 0B       		.uleb128 0xb
 7002 0099 0B       		.uleb128 0xb
 7003 009a 00       		.byte	0
 7004 009b 00       		.byte	0
 7005 009c 0F       		.uleb128 0xf
 7006 009d 15       		.uleb128 0x15
 7007 009e 00       		.byte	0
 7008 009f 27       		.uleb128 0x27
 7009 00a0 19       		.uleb128 0x19
 7010 00a1 00       		.byte	0
 7011 00a2 00       		.byte	0
 7012 00a3 10       		.uleb128 0x10
 7013 00a4 26       		.uleb128 0x26
 7014 00a5 00       		.byte	0
 7015 00a6 00       		.byte	0
 7016 00a7 00       		.byte	0
 7017 00a8 11       		.uleb128 0x11
 7018 00a9 16       		.uleb128 0x16
 7019 00aa 00       		.byte	0
 7020 00ab 03       		.uleb128 0x3
 7021 00ac 0E       		.uleb128 0xe
 7022 00ad 3A       		.uleb128 0x3a
 7023 00ae 0B       		.uleb128 0xb
 7024 00af 3B       		.uleb128 0x3b
 7025 00b0 05       		.uleb128 0x5
 7026 00b1 49       		.uleb128 0x49
 7027 00b2 13       		.uleb128 0x13
 7028 00b3 00       		.byte	0
 7029 00b4 00       		.byte	0
 7030 00b5 12       		.uleb128 0x12
 7031 00b6 13       		.uleb128 0x13
 7032 00b7 01       		.byte	0x1
 7033 00b8 03       		.uleb128 0x3
 7034 00b9 0E       		.uleb128 0xe
 7035 00ba 0B       		.uleb128 0xb
 7036 00bb 0B       		.uleb128 0xb
 7037 00bc 3A       		.uleb128 0x3a
 7038 00bd 0B       		.uleb128 0xb
 7039 00be 3B       		.uleb128 0x3b
 7040 00bf 05       		.uleb128 0x5
 7041 00c0 01       		.uleb128 0x1
 7042 00c1 13       		.uleb128 0x13
 7043 00c2 00       		.byte	0
 7044 00c3 00       		.byte	0
 7045 00c4 13       		.uleb128 0x13
 7046 00c5 0D       		.uleb128 0xd
 7047 00c6 00       		.byte	0
 7048 00c7 03       		.uleb128 0x3
 7049 00c8 0E       		.uleb128 0xe
 7050 00c9 3A       		.uleb128 0x3a
ARM GAS  C:\Users\jaohe\AppData\Local\Temp\ccbQAV2C.s 			page 142


 7051 00ca 0B       		.uleb128 0xb
 7052 00cb 3B       		.uleb128 0x3b
 7053 00cc 05       		.uleb128 0x5
 7054 00cd 49       		.uleb128 0x49
 7055 00ce 13       		.uleb128 0x13
 7056 00cf 38       		.uleb128 0x38
 7057 00d0 0B       		.uleb128 0xb
 7058 00d1 00       		.byte	0
 7059 00d2 00       		.byte	0
 7060 00d3 14       		.uleb128 0x14
 7061 00d4 13       		.uleb128 0x13
 7062 00d5 01       		.byte	0x1
 7063 00d6 03       		.uleb128 0x3
 7064 00d7 0E       		.uleb128 0xe
 7065 00d8 0B       		.uleb128 0xb
 7066 00d9 0B       		.uleb128 0xb
 7067 00da 3A       		.uleb128 0x3a
 7068 00db 0B       		.uleb128 0xb
 7069 00dc 3B       		.uleb128 0x3b
 7070 00dd 0B       		.uleb128 0xb
 7071 00de 01       		.uleb128 0x1
 7072 00df 13       		.uleb128 0x13
 7073 00e0 00       		.byte	0
 7074 00e1 00       		.byte	0
 7075 00e2 15       		.uleb128 0x15
 7076 00e3 13       		.uleb128 0x13
 7077 00e4 01       		.byte	0x1
 7078 00e5 0B       		.uleb128 0xb
 7079 00e6 0B       		.uleb128 0xb
 7080 00e7 3A       		.uleb128 0x3a
 7081 00e8 0B       		.uleb128 0xb
 7082 00e9 3B       		.uleb128 0x3b
 7083 00ea 05       		.uleb128 0x5
 7084 00eb 01       		.uleb128 0x1
 7085 00ec 13       		.uleb128 0x13
 7086 00ed 00       		.byte	0
 7087 00ee 00       		.byte	0
 7088 00ef 16       		.uleb128 0x16
 7089 00f0 0D       		.uleb128 0xd
 7090 00f1 00       		.byte	0
 7091 00f2 03       		.uleb128 0x3
 7092 00f3 08       		.uleb128 0x8
 7093 00f4 3A       		.uleb128 0x3a
 7094 00f5 0B       		.uleb128 0xb
 7095 00f6 3B       		.uleb128 0x3b
 7096 00f7 05       		.uleb128 0x5
 7097 00f8 49       		.uleb128 0x49
 7098 00f9 13       		.uleb128 0x13
 7099 00fa 38       		.uleb128 0x38
 7100 00fb 0B       		.uleb128 0xb
 7101 00fc 00       		.byte	0
 7102 00fd 00       		.byte	0
 7103 00fe 17       		.uleb128 0x17
 7104 00ff 17       		.uleb128 0x17
 7105 0100 01       		.byte	0x1
 7106 0101 0B       		.uleb128 0xb
 7107 0102 0B       		.uleb128 0xb
ARM GAS  C:\Users\jaohe\AppData\Local\Temp\ccbQAV2C.s 			page 143


 7108 0103 3A       		.uleb128 0x3a
 7109 0104 0B       		.uleb128 0xb
 7110 0105 3B       		.uleb128 0x3b
 7111 0106 05       		.uleb128 0x5
 7112 0107 01       		.uleb128 0x1
 7113 0108 13       		.uleb128 0x13
 7114 0109 00       		.byte	0
 7115 010a 00       		.byte	0
 7116 010b 18       		.uleb128 0x18
 7117 010c 0D       		.uleb128 0xd
 7118 010d 00       		.byte	0
 7119 010e 03       		.uleb128 0x3
 7120 010f 0E       		.uleb128 0xe
 7121 0110 3A       		.uleb128 0x3a
 7122 0111 0B       		.uleb128 0xb
 7123 0112 3B       		.uleb128 0x3b
 7124 0113 05       		.uleb128 0x5
 7125 0114 49       		.uleb128 0x49
 7126 0115 13       		.uleb128 0x13
 7127 0116 00       		.byte	0
 7128 0117 00       		.byte	0
 7129 0118 19       		.uleb128 0x19
 7130 0119 04       		.uleb128 0x4
 7131 011a 01       		.byte	0x1
 7132 011b 0B       		.uleb128 0xb
 7133 011c 0B       		.uleb128 0xb
 7134 011d 3A       		.uleb128 0x3a
 7135 011e 0B       		.uleb128 0xb
 7136 011f 3B       		.uleb128 0x3b
 7137 0120 05       		.uleb128 0x5
 7138 0121 01       		.uleb128 0x1
 7139 0122 13       		.uleb128 0x13
 7140 0123 00       		.byte	0
 7141 0124 00       		.byte	0
 7142 0125 1A       		.uleb128 0x1a
 7143 0126 28       		.uleb128 0x28
 7144 0127 00       		.byte	0
 7145 0128 03       		.uleb128 0x3
 7146 0129 0E       		.uleb128 0xe
 7147 012a 1C       		.uleb128 0x1c
 7148 012b 0D       		.uleb128 0xd
 7149 012c 00       		.byte	0
 7150 012d 00       		.byte	0
 7151 012e 1B       		.uleb128 0x1b
 7152 012f 01       		.uleb128 0x1
 7153 0130 01       		.byte	0x1
 7154 0131 49       		.uleb128 0x49
 7155 0132 13       		.uleb128 0x13
 7156 0133 01       		.uleb128 0x1
 7157 0134 13       		.uleb128 0x13
 7158 0135 00       		.byte	0
 7159 0136 00       		.byte	0
 7160 0137 1C       		.uleb128 0x1c
 7161 0138 21       		.uleb128 0x21
 7162 0139 00       		.byte	0
 7163 013a 49       		.uleb128 0x49
 7164 013b 13       		.uleb128 0x13
ARM GAS  C:\Users\jaohe\AppData\Local\Temp\ccbQAV2C.s 			page 144


 7165 013c 2F       		.uleb128 0x2f
 7166 013d 0B       		.uleb128 0xb
 7167 013e 00       		.byte	0
 7168 013f 00       		.byte	0
 7169 0140 1D       		.uleb128 0x1d
 7170 0141 04       		.uleb128 0x4
 7171 0142 01       		.byte	0x1
 7172 0143 03       		.uleb128 0x3
 7173 0144 0E       		.uleb128 0xe
 7174 0145 0B       		.uleb128 0xb
 7175 0146 0B       		.uleb128 0xb
 7176 0147 3A       		.uleb128 0x3a
 7177 0148 0B       		.uleb128 0xb
 7178 0149 3B       		.uleb128 0x3b
 7179 014a 0B       		.uleb128 0xb
 7180 014b 01       		.uleb128 0x1
 7181 014c 13       		.uleb128 0x13
 7182 014d 00       		.byte	0
 7183 014e 00       		.byte	0
 7184 014f 1E       		.uleb128 0x1e
 7185 0150 28       		.uleb128 0x28
 7186 0151 00       		.byte	0
 7187 0152 03       		.uleb128 0x3
 7188 0153 08       		.uleb128 0x8
 7189 0154 1C       		.uleb128 0x1c
 7190 0155 0D       		.uleb128 0xd
 7191 0156 00       		.byte	0
 7192 0157 00       		.byte	0
 7193 0158 1F       		.uleb128 0x1f
 7194 0159 2E       		.uleb128 0x2e
 7195 015a 01       		.byte	0x1
 7196 015b 3F       		.uleb128 0x3f
 7197 015c 19       		.uleb128 0x19
 7198 015d 03       		.uleb128 0x3
 7199 015e 0E       		.uleb128 0xe
 7200 015f 3A       		.uleb128 0x3a
 7201 0160 0B       		.uleb128 0xb
 7202 0161 3B       		.uleb128 0x3b
 7203 0162 0B       		.uleb128 0xb
 7204 0163 27       		.uleb128 0x27
 7205 0164 19       		.uleb128 0x19
 7206 0165 11       		.uleb128 0x11
 7207 0166 01       		.uleb128 0x1
 7208 0167 12       		.uleb128 0x12
 7209 0168 06       		.uleb128 0x6
 7210 0169 40       		.uleb128 0x40
 7211 016a 18       		.uleb128 0x18
 7212 016b 9742     		.uleb128 0x2117
 7213 016d 19       		.uleb128 0x19
 7214 016e 01       		.uleb128 0x1
 7215 016f 13       		.uleb128 0x13
 7216 0170 00       		.byte	0
 7217 0171 00       		.byte	0
 7218 0172 20       		.uleb128 0x20
 7219 0173 05       		.uleb128 0x5
 7220 0174 00       		.byte	0
 7221 0175 03       		.uleb128 0x3
ARM GAS  C:\Users\jaohe\AppData\Local\Temp\ccbQAV2C.s 			page 145


 7222 0176 08       		.uleb128 0x8
 7223 0177 3A       		.uleb128 0x3a
 7224 0178 0B       		.uleb128 0xb
 7225 0179 3B       		.uleb128 0x3b
 7226 017a 0B       		.uleb128 0xb
 7227 017b 49       		.uleb128 0x49
 7228 017c 13       		.uleb128 0x13
 7229 017d 02       		.uleb128 0x2
 7230 017e 17       		.uleb128 0x17
 7231 017f 00       		.byte	0
 7232 0180 00       		.byte	0
 7233 0181 21       		.uleb128 0x21
 7234 0182 898201   		.uleb128 0x4109
 7235 0185 01       		.byte	0x1
 7236 0186 11       		.uleb128 0x11
 7237 0187 01       		.uleb128 0x1
 7238 0188 31       		.uleb128 0x31
 7239 0189 13       		.uleb128 0x13
 7240 018a 01       		.uleb128 0x1
 7241 018b 13       		.uleb128 0x13
 7242 018c 00       		.byte	0
 7243 018d 00       		.byte	0
 7244 018e 22       		.uleb128 0x22
 7245 018f 8A8201   		.uleb128 0x410a
 7246 0192 00       		.byte	0
 7247 0193 02       		.uleb128 0x2
 7248 0194 18       		.uleb128 0x18
 7249 0195 9142     		.uleb128 0x2111
 7250 0197 18       		.uleb128 0x18
 7251 0198 00       		.byte	0
 7252 0199 00       		.byte	0
 7253 019a 23       		.uleb128 0x23
 7254 019b 898201   		.uleb128 0x4109
 7255 019e 01       		.byte	0x1
 7256 019f 11       		.uleb128 0x11
 7257 01a0 01       		.uleb128 0x1
 7258 01a1 31       		.uleb128 0x31
 7259 01a2 13       		.uleb128 0x13
 7260 01a3 00       		.byte	0
 7261 01a4 00       		.byte	0
 7262 01a5 24       		.uleb128 0x24
 7263 01a6 2E       		.uleb128 0x2e
 7264 01a7 01       		.byte	0x1
 7265 01a8 3F       		.uleb128 0x3f
 7266 01a9 19       		.uleb128 0x19
 7267 01aa 03       		.uleb128 0x3
 7268 01ab 0E       		.uleb128 0xe
 7269 01ac 3A       		.uleb128 0x3a
 7270 01ad 0B       		.uleb128 0xb
 7271 01ae 3B       		.uleb128 0x3b
 7272 01af 0B       		.uleb128 0xb
 7273 01b0 11       		.uleb128 0x11
 7274 01b1 01       		.uleb128 0x1
 7275 01b2 12       		.uleb128 0x12
 7276 01b3 06       		.uleb128 0x6
 7277 01b4 40       		.uleb128 0x40
 7278 01b5 18       		.uleb128 0x18
ARM GAS  C:\Users\jaohe\AppData\Local\Temp\ccbQAV2C.s 			page 146


 7279 01b6 9742     		.uleb128 0x2117
 7280 01b8 19       		.uleb128 0x19
 7281 01b9 01       		.uleb128 0x1
 7282 01ba 13       		.uleb128 0x13
 7283 01bb 00       		.byte	0
 7284 01bc 00       		.byte	0
 7285 01bd 25       		.uleb128 0x25
 7286 01be 34       		.uleb128 0x34
 7287 01bf 00       		.byte	0
 7288 01c0 03       		.uleb128 0x3
 7289 01c1 0E       		.uleb128 0xe
 7290 01c2 3A       		.uleb128 0x3a
 7291 01c3 0B       		.uleb128 0xb
 7292 01c4 3B       		.uleb128 0x3b
 7293 01c5 0B       		.uleb128 0xb
 7294 01c6 49       		.uleb128 0x49
 7295 01c7 13       		.uleb128 0x13
 7296 01c8 02       		.uleb128 0x2
 7297 01c9 18       		.uleb128 0x18
 7298 01ca 00       		.byte	0
 7299 01cb 00       		.byte	0
 7300 01cc 26       		.uleb128 0x26
 7301 01cd 34       		.uleb128 0x34
 7302 01ce 00       		.byte	0
 7303 01cf 03       		.uleb128 0x3
 7304 01d0 08       		.uleb128 0x8
 7305 01d1 3A       		.uleb128 0x3a
 7306 01d2 0B       		.uleb128 0xb
 7307 01d3 3B       		.uleb128 0x3b
 7308 01d4 0B       		.uleb128 0xb
 7309 01d5 49       		.uleb128 0x49
 7310 01d6 13       		.uleb128 0x13
 7311 01d7 02       		.uleb128 0x2
 7312 01d8 17       		.uleb128 0x17
 7313 01d9 00       		.byte	0
 7314 01da 00       		.byte	0
 7315 01db 27       		.uleb128 0x27
 7316 01dc 898201   		.uleb128 0x4109
 7317 01df 00       		.byte	0
 7318 01e0 11       		.uleb128 0x11
 7319 01e1 01       		.uleb128 0x1
 7320 01e2 31       		.uleb128 0x31
 7321 01e3 13       		.uleb128 0x13
 7322 01e4 00       		.byte	0
 7323 01e5 00       		.byte	0
 7324 01e6 28       		.uleb128 0x28
 7325 01e7 2E       		.uleb128 0x2e
 7326 01e8 01       		.byte	0x1
 7327 01e9 3F       		.uleb128 0x3f
 7328 01ea 19       		.uleb128 0x19
 7329 01eb 03       		.uleb128 0x3
 7330 01ec 0E       		.uleb128 0xe
 7331 01ed 3A       		.uleb128 0x3a
 7332 01ee 0B       		.uleb128 0xb
 7333 01ef 3B       		.uleb128 0x3b
 7334 01f0 0B       		.uleb128 0xb
 7335 01f1 27       		.uleb128 0x27
ARM GAS  C:\Users\jaohe\AppData\Local\Temp\ccbQAV2C.s 			page 147


 7336 01f2 19       		.uleb128 0x19
 7337 01f3 49       		.uleb128 0x49
 7338 01f4 13       		.uleb128 0x13
 7339 01f5 11       		.uleb128 0x11
 7340 01f6 01       		.uleb128 0x1
 7341 01f7 12       		.uleb128 0x12
 7342 01f8 06       		.uleb128 0x6
 7343 01f9 40       		.uleb128 0x40
 7344 01fa 18       		.uleb128 0x18
 7345 01fb 9742     		.uleb128 0x2117
 7346 01fd 19       		.uleb128 0x19
 7347 01fe 01       		.uleb128 0x1
 7348 01ff 13       		.uleb128 0x13
 7349 0200 00       		.byte	0
 7350 0201 00       		.byte	0
 7351 0202 29       		.uleb128 0x29
 7352 0203 05       		.uleb128 0x5
 7353 0204 00       		.byte	0
 7354 0205 03       		.uleb128 0x3
 7355 0206 08       		.uleb128 0x8
 7356 0207 3A       		.uleb128 0x3a
 7357 0208 0B       		.uleb128 0xb
 7358 0209 3B       		.uleb128 0x3b
 7359 020a 0B       		.uleb128 0xb
 7360 020b 49       		.uleb128 0x49
 7361 020c 13       		.uleb128 0x13
 7362 020d 02       		.uleb128 0x2
 7363 020e 18       		.uleb128 0x18
 7364 020f 00       		.byte	0
 7365 0210 00       		.byte	0
 7366 0211 2A       		.uleb128 0x2a
 7367 0212 2E       		.uleb128 0x2e
 7368 0213 00       		.byte	0
 7369 0214 3F       		.uleb128 0x3f
 7370 0215 19       		.uleb128 0x19
 7371 0216 03       		.uleb128 0x3
 7372 0217 0E       		.uleb128 0xe
 7373 0218 3A       		.uleb128 0x3a
 7374 0219 0B       		.uleb128 0xb
 7375 021a 3B       		.uleb128 0x3b
 7376 021b 0B       		.uleb128 0xb
 7377 021c 27       		.uleb128 0x27
 7378 021d 19       		.uleb128 0x19
 7379 021e 11       		.uleb128 0x11
 7380 021f 01       		.uleb128 0x1
 7381 0220 12       		.uleb128 0x12
 7382 0221 06       		.uleb128 0x6
 7383 0222 40       		.uleb128 0x40
 7384 0223 18       		.uleb128 0x18
 7385 0224 9742     		.uleb128 0x2117
 7386 0226 19       		.uleb128 0x19
 7387 0227 00       		.byte	0
 7388 0228 00       		.byte	0
 7389 0229 2B       		.uleb128 0x2b
 7390 022a 2E       		.uleb128 0x2e
 7391 022b 01       		.byte	0x1
 7392 022c 3F       		.uleb128 0x3f
ARM GAS  C:\Users\jaohe\AppData\Local\Temp\ccbQAV2C.s 			page 148


 7393 022d 19       		.uleb128 0x19
 7394 022e 03       		.uleb128 0x3
 7395 022f 0E       		.uleb128 0xe
 7396 0230 3A       		.uleb128 0x3a
 7397 0231 0B       		.uleb128 0xb
 7398 0232 3B       		.uleb128 0x3b
 7399 0233 05       		.uleb128 0x5
 7400 0234 27       		.uleb128 0x27
 7401 0235 19       		.uleb128 0x19
 7402 0236 49       		.uleb128 0x49
 7403 0237 13       		.uleb128 0x13
 7404 0238 11       		.uleb128 0x11
 7405 0239 01       		.uleb128 0x1
 7406 023a 12       		.uleb128 0x12
 7407 023b 06       		.uleb128 0x6
 7408 023c 40       		.uleb128 0x40
 7409 023d 18       		.uleb128 0x18
 7410 023e 9742     		.uleb128 0x2117
 7411 0240 19       		.uleb128 0x19
 7412 0241 01       		.uleb128 0x1
 7413 0242 13       		.uleb128 0x13
 7414 0243 00       		.byte	0
 7415 0244 00       		.byte	0
 7416 0245 2C       		.uleb128 0x2c
 7417 0246 34       		.uleb128 0x34
 7418 0247 00       		.byte	0
 7419 0248 03       		.uleb128 0x3
 7420 0249 08       		.uleb128 0x8
 7421 024a 3A       		.uleb128 0x3a
 7422 024b 0B       		.uleb128 0xb
 7423 024c 3B       		.uleb128 0x3b
 7424 024d 05       		.uleb128 0x5
 7425 024e 49       		.uleb128 0x49
 7426 024f 13       		.uleb128 0x13
 7427 0250 00       		.byte	0
 7428 0251 00       		.byte	0
 7429 0252 2D       		.uleb128 0x2d
 7430 0253 34       		.uleb128 0x34
 7431 0254 00       		.byte	0
 7432 0255 03       		.uleb128 0x3
 7433 0256 0E       		.uleb128 0xe
 7434 0257 3A       		.uleb128 0x3a
 7435 0258 0B       		.uleb128 0xb
 7436 0259 3B       		.uleb128 0x3b
 7437 025a 05       		.uleb128 0x5
 7438 025b 49       		.uleb128 0x49
 7439 025c 13       		.uleb128 0x13
 7440 025d 02       		.uleb128 0x2
 7441 025e 18       		.uleb128 0x18
 7442 025f 00       		.byte	0
 7443 0260 00       		.byte	0
 7444 0261 2E       		.uleb128 0x2e
 7445 0262 34       		.uleb128 0x34
 7446 0263 00       		.byte	0
 7447 0264 03       		.uleb128 0x3
 7448 0265 0E       		.uleb128 0xe
 7449 0266 3A       		.uleb128 0x3a
ARM GAS  C:\Users\jaohe\AppData\Local\Temp\ccbQAV2C.s 			page 149


 7450 0267 0B       		.uleb128 0xb
 7451 0268 3B       		.uleb128 0x3b
 7452 0269 05       		.uleb128 0x5
 7453 026a 49       		.uleb128 0x49
 7454 026b 13       		.uleb128 0x13
 7455 026c 02       		.uleb128 0x2
 7456 026d 17       		.uleb128 0x17
 7457 026e 00       		.byte	0
 7458 026f 00       		.byte	0
 7459 0270 2F       		.uleb128 0x2f
 7460 0271 05       		.uleb128 0x5
 7461 0272 00       		.byte	0
 7462 0273 03       		.uleb128 0x3
 7463 0274 0E       		.uleb128 0xe
 7464 0275 3A       		.uleb128 0x3a
 7465 0276 0B       		.uleb128 0xb
 7466 0277 3B       		.uleb128 0x3b
 7467 0278 05       		.uleb128 0x5
 7468 0279 49       		.uleb128 0x49
 7469 027a 13       		.uleb128 0x13
 7470 027b 02       		.uleb128 0x2
 7471 027c 18       		.uleb128 0x18
 7472 027d 00       		.byte	0
 7473 027e 00       		.byte	0
 7474 027f 30       		.uleb128 0x30
 7475 0280 2E       		.uleb128 0x2e
 7476 0281 01       		.byte	0x1
 7477 0282 3F       		.uleb128 0x3f
 7478 0283 19       		.uleb128 0x19
 7479 0284 03       		.uleb128 0x3
 7480 0285 0E       		.uleb128 0xe
 7481 0286 3A       		.uleb128 0x3a
 7482 0287 0B       		.uleb128 0xb
 7483 0288 3B       		.uleb128 0x3b
 7484 0289 05       		.uleb128 0x5
 7485 028a 27       		.uleb128 0x27
 7486 028b 19       		.uleb128 0x19
 7487 028c 11       		.uleb128 0x11
 7488 028d 01       		.uleb128 0x1
 7489 028e 12       		.uleb128 0x12
 7490 028f 06       		.uleb128 0x6
 7491 0290 40       		.uleb128 0x40
 7492 0291 18       		.uleb128 0x18
 7493 0292 9742     		.uleb128 0x2117
 7494 0294 19       		.uleb128 0x19
 7495 0295 01       		.uleb128 0x1
 7496 0296 13       		.uleb128 0x13
 7497 0297 00       		.byte	0
 7498 0298 00       		.byte	0
 7499 0299 31       		.uleb128 0x31
 7500 029a 05       		.uleb128 0x5
 7501 029b 00       		.byte	0
 7502 029c 03       		.uleb128 0x3
 7503 029d 08       		.uleb128 0x8
 7504 029e 3A       		.uleb128 0x3a
 7505 029f 0B       		.uleb128 0xb
 7506 02a0 3B       		.uleb128 0x3b
ARM GAS  C:\Users\jaohe\AppData\Local\Temp\ccbQAV2C.s 			page 150


 7507 02a1 05       		.uleb128 0x5
 7508 02a2 49       		.uleb128 0x49
 7509 02a3 13       		.uleb128 0x13
 7510 02a4 02       		.uleb128 0x2
 7511 02a5 17       		.uleb128 0x17
 7512 02a6 00       		.byte	0
 7513 02a7 00       		.byte	0
 7514 02a8 32       		.uleb128 0x32
 7515 02a9 05       		.uleb128 0x5
 7516 02aa 00       		.byte	0
 7517 02ab 03       		.uleb128 0x3
 7518 02ac 0E       		.uleb128 0xe
 7519 02ad 3A       		.uleb128 0x3a
 7520 02ae 0B       		.uleb128 0xb
 7521 02af 3B       		.uleb128 0x3b
 7522 02b0 05       		.uleb128 0x5
 7523 02b1 49       		.uleb128 0x49
 7524 02b2 13       		.uleb128 0x13
 7525 02b3 02       		.uleb128 0x2
 7526 02b4 17       		.uleb128 0x17
 7527 02b5 00       		.byte	0
 7528 02b6 00       		.byte	0
 7529 02b7 33       		.uleb128 0x33
 7530 02b8 2E       		.uleb128 0x2e
 7531 02b9 01       		.byte	0x1
 7532 02ba 3F       		.uleb128 0x3f
 7533 02bb 19       		.uleb128 0x19
 7534 02bc 03       		.uleb128 0x3
 7535 02bd 0E       		.uleb128 0xe
 7536 02be 3A       		.uleb128 0x3a
 7537 02bf 0B       		.uleb128 0xb
 7538 02c0 3B       		.uleb128 0x3b
 7539 02c1 05       		.uleb128 0x5
 7540 02c2 49       		.uleb128 0x49
 7541 02c3 13       		.uleb128 0x13
 7542 02c4 11       		.uleb128 0x11
 7543 02c5 01       		.uleb128 0x1
 7544 02c6 12       		.uleb128 0x12
 7545 02c7 06       		.uleb128 0x6
 7546 02c8 40       		.uleb128 0x40
 7547 02c9 18       		.uleb128 0x18
 7548 02ca 9742     		.uleb128 0x2117
 7549 02cc 19       		.uleb128 0x19
 7550 02cd 01       		.uleb128 0x1
 7551 02ce 13       		.uleb128 0x13
 7552 02cf 00       		.byte	0
 7553 02d0 00       		.byte	0
 7554 02d1 34       		.uleb128 0x34
 7555 02d2 34       		.uleb128 0x34
 7556 02d3 00       		.byte	0
 7557 02d4 03       		.uleb128 0x3
 7558 02d5 0E       		.uleb128 0xe
 7559 02d6 3A       		.uleb128 0x3a
 7560 02d7 0B       		.uleb128 0xb
 7561 02d8 3B       		.uleb128 0x3b
 7562 02d9 05       		.uleb128 0x5
 7563 02da 49       		.uleb128 0x49
ARM GAS  C:\Users\jaohe\AppData\Local\Temp\ccbQAV2C.s 			page 151


 7564 02db 13       		.uleb128 0x13
 7565 02dc 00       		.byte	0
 7566 02dd 00       		.byte	0
 7567 02de 35       		.uleb128 0x35
 7568 02df 34       		.uleb128 0x34
 7569 02e0 00       		.byte	0
 7570 02e1 03       		.uleb128 0x3
 7571 02e2 08       		.uleb128 0x8
 7572 02e3 3A       		.uleb128 0x3a
 7573 02e4 0B       		.uleb128 0xb
 7574 02e5 3B       		.uleb128 0x3b
 7575 02e6 05       		.uleb128 0x5
 7576 02e7 49       		.uleb128 0x49
 7577 02e8 13       		.uleb128 0x13
 7578 02e9 02       		.uleb128 0x2
 7579 02ea 18       		.uleb128 0x18
 7580 02eb 00       		.byte	0
 7581 02ec 00       		.byte	0
 7582 02ed 36       		.uleb128 0x36
 7583 02ee 34       		.uleb128 0x34
 7584 02ef 00       		.byte	0
 7585 02f0 03       		.uleb128 0x3
 7586 02f1 0E       		.uleb128 0xe
 7587 02f2 3A       		.uleb128 0x3a
 7588 02f3 0B       		.uleb128 0xb
 7589 02f4 3B       		.uleb128 0x3b
 7590 02f5 05       		.uleb128 0x5
 7591 02f6 49       		.uleb128 0x49
 7592 02f7 13       		.uleb128 0x13
 7593 02f8 3F       		.uleb128 0x3f
 7594 02f9 19       		.uleb128 0x19
 7595 02fa 3C       		.uleb128 0x3c
 7596 02fb 19       		.uleb128 0x19
 7597 02fc 00       		.byte	0
 7598 02fd 00       		.byte	0
 7599 02fe 37       		.uleb128 0x37
 7600 02ff 0B       		.uleb128 0xb
 7601 0300 01       		.byte	0x1
 7602 0301 11       		.uleb128 0x11
 7603 0302 01       		.uleb128 0x1
 7604 0303 12       		.uleb128 0x12
 7605 0304 06       		.uleb128 0x6
 7606 0305 01       		.uleb128 0x1
 7607 0306 13       		.uleb128 0x13
 7608 0307 00       		.byte	0
 7609 0308 00       		.byte	0
 7610 0309 38       		.uleb128 0x38
 7611 030a 34       		.uleb128 0x34
 7612 030b 00       		.byte	0
 7613 030c 03       		.uleb128 0x3
 7614 030d 08       		.uleb128 0x8
 7615 030e 3A       		.uleb128 0x3a
 7616 030f 0B       		.uleb128 0xb
 7617 0310 3B       		.uleb128 0x3b
 7618 0311 05       		.uleb128 0x5
 7619 0312 49       		.uleb128 0x49
 7620 0313 13       		.uleb128 0x13
ARM GAS  C:\Users\jaohe\AppData\Local\Temp\ccbQAV2C.s 			page 152


 7621 0314 1C       		.uleb128 0x1c
 7622 0315 0B       		.uleb128 0xb
 7623 0316 00       		.byte	0
 7624 0317 00       		.byte	0
 7625 0318 39       		.uleb128 0x39
 7626 0319 34       		.uleb128 0x34
 7627 031a 00       		.byte	0
 7628 031b 03       		.uleb128 0x3
 7629 031c 08       		.uleb128 0x8
 7630 031d 3A       		.uleb128 0x3a
 7631 031e 0B       		.uleb128 0xb
 7632 031f 3B       		.uleb128 0x3b
 7633 0320 05       		.uleb128 0x5
 7634 0321 49       		.uleb128 0x49
 7635 0322 13       		.uleb128 0x13
 7636 0323 02       		.uleb128 0x2
 7637 0324 17       		.uleb128 0x17
 7638 0325 00       		.byte	0
 7639 0326 00       		.byte	0
 7640 0327 3A       		.uleb128 0x3a
 7641 0328 34       		.uleb128 0x34
 7642 0329 00       		.byte	0
 7643 032a 03       		.uleb128 0x3
 7644 032b 0E       		.uleb128 0xe
 7645 032c 3A       		.uleb128 0x3a
 7646 032d 0B       		.uleb128 0xb
 7647 032e 3B       		.uleb128 0x3b
 7648 032f 05       		.uleb128 0x5
 7649 0330 49       		.uleb128 0x49
 7650 0331 13       		.uleb128 0x13
 7651 0332 1C       		.uleb128 0x1c
 7652 0333 0B       		.uleb128 0xb
 7653 0334 00       		.byte	0
 7654 0335 00       		.byte	0
 7655 0336 3B       		.uleb128 0x3b
 7656 0337 34       		.uleb128 0x34
 7657 0338 00       		.byte	0
 7658 0339 03       		.uleb128 0x3
 7659 033a 08       		.uleb128 0x8
 7660 033b 3A       		.uleb128 0x3a
 7661 033c 0B       		.uleb128 0xb
 7662 033d 3B       		.uleb128 0x3b
 7663 033e 0B       		.uleb128 0xb
 7664 033f 49       		.uleb128 0x49
 7665 0340 13       		.uleb128 0x13
 7666 0341 02       		.uleb128 0x2
 7667 0342 18       		.uleb128 0x18
 7668 0343 00       		.byte	0
 7669 0344 00       		.byte	0
 7670 0345 3C       		.uleb128 0x3c
 7671 0346 34       		.uleb128 0x34
 7672 0347 00       		.byte	0
 7673 0348 34       		.uleb128 0x34
 7674 0349 19       		.uleb128 0x19
 7675 034a 49       		.uleb128 0x49
 7676 034b 13       		.uleb128 0x13
 7677 034c 02       		.uleb128 0x2
ARM GAS  C:\Users\jaohe\AppData\Local\Temp\ccbQAV2C.s 			page 153


 7678 034d 17       		.uleb128 0x17
 7679 034e 00       		.byte	0
 7680 034f 00       		.byte	0
 7681 0350 3D       		.uleb128 0x3d
 7682 0351 21       		.uleb128 0x21
 7683 0352 00       		.byte	0
 7684 0353 49       		.uleb128 0x49
 7685 0354 13       		.uleb128 0x13
 7686 0355 2F       		.uleb128 0x2f
 7687 0356 13       		.uleb128 0x13
 7688 0357 00       		.byte	0
 7689 0358 00       		.byte	0
 7690 0359 3E       		.uleb128 0x3e
 7691 035a 35       		.uleb128 0x35
 7692 035b 00       		.byte	0
 7693 035c 49       		.uleb128 0x49
 7694 035d 13       		.uleb128 0x13
 7695 035e 00       		.byte	0
 7696 035f 00       		.byte	0
 7697 0360 3F       		.uleb128 0x3f
 7698 0361 34       		.uleb128 0x34
 7699 0362 00       		.byte	0
 7700 0363 03       		.uleb128 0x3
 7701 0364 0E       		.uleb128 0xe
 7702 0365 3A       		.uleb128 0x3a
 7703 0366 0B       		.uleb128 0xb
 7704 0367 3B       		.uleb128 0x3b
 7705 0368 0B       		.uleb128 0xb
 7706 0369 49       		.uleb128 0x49
 7707 036a 13       		.uleb128 0x13
 7708 036b 3F       		.uleb128 0x3f
 7709 036c 19       		.uleb128 0x19
 7710 036d 3C       		.uleb128 0x3c
 7711 036e 19       		.uleb128 0x19
 7712 036f 00       		.byte	0
 7713 0370 00       		.byte	0
 7714 0371 40       		.uleb128 0x40
 7715 0372 34       		.uleb128 0x34
 7716 0373 00       		.byte	0
 7717 0374 03       		.uleb128 0x3
 7718 0375 0E       		.uleb128 0xe
 7719 0376 3A       		.uleb128 0x3a
 7720 0377 0B       		.uleb128 0xb
 7721 0378 3B       		.uleb128 0x3b
 7722 0379 0B       		.uleb128 0xb
 7723 037a 49       		.uleb128 0x49
 7724 037b 13       		.uleb128 0x13
 7725 037c 3F       		.uleb128 0x3f
 7726 037d 19       		.uleb128 0x19
 7727 037e 02       		.uleb128 0x2
 7728 037f 18       		.uleb128 0x18
 7729 0380 00       		.byte	0
 7730 0381 00       		.byte	0
 7731 0382 41       		.uleb128 0x41
 7732 0383 34       		.uleb128 0x34
 7733 0384 00       		.byte	0
 7734 0385 03       		.uleb128 0x3
ARM GAS  C:\Users\jaohe\AppData\Local\Temp\ccbQAV2C.s 			page 154


 7735 0386 0E       		.uleb128 0xe
 7736 0387 3A       		.uleb128 0x3a
 7737 0388 0B       		.uleb128 0xb
 7738 0389 3B       		.uleb128 0x3b
 7739 038a 05       		.uleb128 0x5
 7740 038b 49       		.uleb128 0x49
 7741 038c 13       		.uleb128 0x13
 7742 038d 3F       		.uleb128 0x3f
 7743 038e 19       		.uleb128 0x19
 7744 038f 02       		.uleb128 0x2
 7745 0390 18       		.uleb128 0x18
 7746 0391 00       		.byte	0
 7747 0392 00       		.byte	0
 7748 0393 42       		.uleb128 0x42
 7749 0394 2E       		.uleb128 0x2e
 7750 0395 01       		.byte	0x1
 7751 0396 3F       		.uleb128 0x3f
 7752 0397 19       		.uleb128 0x19
 7753 0398 03       		.uleb128 0x3
 7754 0399 0E       		.uleb128 0xe
 7755 039a 3A       		.uleb128 0x3a
 7756 039b 0B       		.uleb128 0xb
 7757 039c 3B       		.uleb128 0x3b
 7758 039d 0B       		.uleb128 0xb
 7759 039e 27       		.uleb128 0x27
 7760 039f 19       		.uleb128 0x19
 7761 03a0 3C       		.uleb128 0x3c
 7762 03a1 19       		.uleb128 0x19
 7763 03a2 01       		.uleb128 0x1
 7764 03a3 13       		.uleb128 0x13
 7765 03a4 00       		.byte	0
 7766 03a5 00       		.byte	0
 7767 03a6 43       		.uleb128 0x43
 7768 03a7 2E       		.uleb128 0x2e
 7769 03a8 00       		.byte	0
 7770 03a9 3F       		.uleb128 0x3f
 7771 03aa 19       		.uleb128 0x19
 7772 03ab 03       		.uleb128 0x3
 7773 03ac 0E       		.uleb128 0xe
 7774 03ad 3A       		.uleb128 0x3a
 7775 03ae 0B       		.uleb128 0xb
 7776 03af 3B       		.uleb128 0x3b
 7777 03b0 0B       		.uleb128 0xb
 7778 03b1 27       		.uleb128 0x27
 7779 03b2 19       		.uleb128 0x19
 7780 03b3 49       		.uleb128 0x49
 7781 03b4 13       		.uleb128 0x13
 7782 03b5 3C       		.uleb128 0x3c
 7783 03b6 19       		.uleb128 0x19
 7784 03b7 00       		.byte	0
 7785 03b8 00       		.byte	0
 7786 03b9 44       		.uleb128 0x44
 7787 03ba 2E       		.uleb128 0x2e
 7788 03bb 01       		.byte	0x1
 7789 03bc 3F       		.uleb128 0x3f
 7790 03bd 19       		.uleb128 0x19
 7791 03be 03       		.uleb128 0x3
ARM GAS  C:\Users\jaohe\AppData\Local\Temp\ccbQAV2C.s 			page 155


 7792 03bf 0E       		.uleb128 0xe
 7793 03c0 3A       		.uleb128 0x3a
 7794 03c1 0B       		.uleb128 0xb
 7795 03c2 3B       		.uleb128 0x3b
 7796 03c3 05       		.uleb128 0x5
 7797 03c4 27       		.uleb128 0x27
 7798 03c5 19       		.uleb128 0x19
 7799 03c6 3C       		.uleb128 0x3c
 7800 03c7 19       		.uleb128 0x19
 7801 03c8 01       		.uleb128 0x1
 7802 03c9 13       		.uleb128 0x13
 7803 03ca 00       		.byte	0
 7804 03cb 00       		.byte	0
 7805 03cc 45       		.uleb128 0x45
 7806 03cd 2E       		.uleb128 0x2e
 7807 03ce 00       		.byte	0
 7808 03cf 3F       		.uleb128 0x3f
 7809 03d0 19       		.uleb128 0x19
 7810 03d1 03       		.uleb128 0x3
 7811 03d2 0E       		.uleb128 0xe
 7812 03d3 3A       		.uleb128 0x3a
 7813 03d4 0B       		.uleb128 0xb
 7814 03d5 3B       		.uleb128 0x3b
 7815 03d6 05       		.uleb128 0x5
 7816 03d7 27       		.uleb128 0x27
 7817 03d8 19       		.uleb128 0x19
 7818 03d9 3C       		.uleb128 0x3c
 7819 03da 19       		.uleb128 0x19
 7820 03db 00       		.byte	0
 7821 03dc 00       		.byte	0
 7822 03dd 46       		.uleb128 0x46
 7823 03de 2E       		.uleb128 0x2e
 7824 03df 01       		.byte	0x1
 7825 03e0 3F       		.uleb128 0x3f
 7826 03e1 19       		.uleb128 0x19
 7827 03e2 03       		.uleb128 0x3
 7828 03e3 0E       		.uleb128 0xe
 7829 03e4 3A       		.uleb128 0x3a
 7830 03e5 0B       		.uleb128 0xb
 7831 03e6 3B       		.uleb128 0x3b
 7832 03e7 05       		.uleb128 0x5
 7833 03e8 27       		.uleb128 0x27
 7834 03e9 19       		.uleb128 0x19
 7835 03ea 49       		.uleb128 0x49
 7836 03eb 13       		.uleb128 0x13
 7837 03ec 3C       		.uleb128 0x3c
 7838 03ed 19       		.uleb128 0x19
 7839 03ee 01       		.uleb128 0x1
 7840 03ef 13       		.uleb128 0x13
 7841 03f0 00       		.byte	0
 7842 03f1 00       		.byte	0
 7843 03f2 47       		.uleb128 0x47
 7844 03f3 2E       		.uleb128 0x2e
 7845 03f4 01       		.byte	0x1
 7846 03f5 3F       		.uleb128 0x3f
 7847 03f6 19       		.uleb128 0x19
 7848 03f7 03       		.uleb128 0x3
ARM GAS  C:\Users\jaohe\AppData\Local\Temp\ccbQAV2C.s 			page 156


 7849 03f8 0E       		.uleb128 0xe
 7850 03f9 3A       		.uleb128 0x3a
 7851 03fa 0B       		.uleb128 0xb
 7852 03fb 3B       		.uleb128 0x3b
 7853 03fc 0B       		.uleb128 0xb
 7854 03fd 27       		.uleb128 0x27
 7855 03fe 19       		.uleb128 0x19
 7856 03ff 49       		.uleb128 0x49
 7857 0400 13       		.uleb128 0x13
 7858 0401 3C       		.uleb128 0x3c
 7859 0402 19       		.uleb128 0x19
 7860 0403 01       		.uleb128 0x1
 7861 0404 13       		.uleb128 0x13
 7862 0405 00       		.byte	0
 7863 0406 00       		.byte	0
 7864 0407 48       		.uleb128 0x48
 7865 0408 18       		.uleb128 0x18
 7866 0409 00       		.byte	0
 7867 040a 00       		.byte	0
 7868 040b 00       		.byte	0
 7869 040c 49       		.uleb128 0x49
 7870 040d 2E       		.uleb128 0x2e
 7871 040e 01       		.byte	0x1
 7872 040f 3F       		.uleb128 0x3f
 7873 0410 19       		.uleb128 0x19
 7874 0411 03       		.uleb128 0x3
 7875 0412 0E       		.uleb128 0xe
 7876 0413 3A       		.uleb128 0x3a
 7877 0414 0B       		.uleb128 0xb
 7878 0415 3B       		.uleb128 0x3b
 7879 0416 0B       		.uleb128 0xb
 7880 0417 49       		.uleb128 0x49
 7881 0418 13       		.uleb128 0x13
 7882 0419 3C       		.uleb128 0x3c
 7883 041a 19       		.uleb128 0x19
 7884 041b 01       		.uleb128 0x1
 7885 041c 13       		.uleb128 0x13
 7886 041d 00       		.byte	0
 7887 041e 00       		.byte	0
 7888 041f 4A       		.uleb128 0x4a
 7889 0420 2E       		.uleb128 0x2e
 7890 0421 01       		.byte	0x1
 7891 0422 3F       		.uleb128 0x3f
 7892 0423 19       		.uleb128 0x19
 7893 0424 03       		.uleb128 0x3
 7894 0425 0E       		.uleb128 0xe
 7895 0426 3A       		.uleb128 0x3a
 7896 0427 0B       		.uleb128 0xb
 7897 0428 3B       		.uleb128 0x3b
 7898 0429 0B       		.uleb128 0xb
 7899 042a 3C       		.uleb128 0x3c
 7900 042b 19       		.uleb128 0x19
 7901 042c 01       		.uleb128 0x1
 7902 042d 13       		.uleb128 0x13
 7903 042e 00       		.byte	0
 7904 042f 00       		.byte	0
 7905 0430 4B       		.uleb128 0x4b
ARM GAS  C:\Users\jaohe\AppData\Local\Temp\ccbQAV2C.s 			page 157


 7906 0431 2E       		.uleb128 0x2e
 7907 0432 00       		.byte	0
 7908 0433 3F       		.uleb128 0x3f
 7909 0434 19       		.uleb128 0x19
 7910 0435 03       		.uleb128 0x3
 7911 0436 0E       		.uleb128 0xe
 7912 0437 3A       		.uleb128 0x3a
 7913 0438 0B       		.uleb128 0xb
 7914 0439 3B       		.uleb128 0x3b
 7915 043a 0B       		.uleb128 0xb
 7916 043b 27       		.uleb128 0x27
 7917 043c 19       		.uleb128 0x19
 7918 043d 3C       		.uleb128 0x3c
 7919 043e 19       		.uleb128 0x19
 7920 043f 00       		.byte	0
 7921 0440 00       		.byte	0
 7922 0441 4C       		.uleb128 0x4c
 7923 0442 2E       		.uleb128 0x2e
 7924 0443 00       		.byte	0
 7925 0444 3F       		.uleb128 0x3f
 7926 0445 19       		.uleb128 0x19
 7927 0446 03       		.uleb128 0x3
 7928 0447 0E       		.uleb128 0xe
 7929 0448 3A       		.uleb128 0x3a
 7930 0449 0B       		.uleb128 0xb
 7931 044a 3B       		.uleb128 0x3b
 7932 044b 05       		.uleb128 0x5
 7933 044c 27       		.uleb128 0x27
 7934 044d 19       		.uleb128 0x19
 7935 044e 49       		.uleb128 0x49
 7936 044f 13       		.uleb128 0x13
 7937 0450 3C       		.uleb128 0x3c
 7938 0451 19       		.uleb128 0x19
 7939 0452 00       		.byte	0
 7940 0453 00       		.byte	0
 7941 0454 4D       		.uleb128 0x4d
 7942 0455 2E       		.uleb128 0x2e
 7943 0456 01       		.byte	0x1
 7944 0457 3F       		.uleb128 0x3f
 7945 0458 19       		.uleb128 0x19
 7946 0459 03       		.uleb128 0x3
 7947 045a 0E       		.uleb128 0xe
 7948 045b 3A       		.uleb128 0x3a
 7949 045c 0B       		.uleb128 0xb
 7950 045d 3B       		.uleb128 0x3b
 7951 045e 0B       		.uleb128 0xb
 7952 045f 49       		.uleb128 0x49
 7953 0460 13       		.uleb128 0x13
 7954 0461 3C       		.uleb128 0x3c
 7955 0462 19       		.uleb128 0x19
 7956 0463 00       		.byte	0
 7957 0464 00       		.byte	0
 7958 0465 00       		.byte	0
 7959              		.section	.debug_loc,"",%progbits
 7960              	.Ldebug_loc0:
 7961              	.LLST0:
 7962 0000 00000000 		.4byte	.LVL0
ARM GAS  C:\Users\jaohe\AppData\Local\Temp\ccbQAV2C.s 			page 158


 7963 0004 05000000 		.4byte	.LVL1-1
 7964 0008 0100     		.2byte	0x1
 7965 000a 50       		.byte	0x50
 7966 000b 05000000 		.4byte	.LVL1-1
 7967 000f 10000000 		.4byte	.LFE63
 7968 0013 0400     		.2byte	0x4
 7969 0015 F3       		.byte	0xf3
 7970 0016 01       		.uleb128 0x1
 7971 0017 50       		.byte	0x50
 7972 0018 9F       		.byte	0x9f
 7973 0019 00000000 		.4byte	0
 7974 001d 00000000 		.4byte	0
 7975              	.LLST1:
 7976 0021 04000000 		.4byte	.LVL3
 7977 0025 0E000000 		.4byte	.LVL5
 7978 0029 0200     		.2byte	0x2
 7979 002b 30       		.byte	0x30
 7980 002c 9F       		.byte	0x9f
 7981 002d 0E000000 		.4byte	.LVL5
 7982 0031 10000000 		.4byte	.LVL6
 7983 0035 0100     		.2byte	0x1
 7984 0037 54       		.byte	0x54
 7985 0038 10000000 		.4byte	.LVL6
 7986 003c 24000000 		.4byte	.LVL9
 7987 0040 0100     		.2byte	0x1
 7988 0042 55       		.byte	0x55
 7989 0043 24000000 		.4byte	.LVL9
 7990 0047 30000000 		.4byte	.LVL11
 7991 004b 0100     		.2byte	0x1
 7992 004d 54       		.byte	0x54
 7993 004e 00000000 		.4byte	0
 7994 0052 00000000 		.4byte	0
 7995              	.LLST2:
 7996 0056 0A000000 		.4byte	.LVL13
 7997 005a 18000000 		.4byte	.LVL14
 7998 005e 0200     		.2byte	0x2
 7999 0060 30       		.byte	0x30
 8000 0061 9F       		.byte	0x9f
 8001 0062 18000000 		.4byte	.LVL14
 8002 0066 3E000000 		.4byte	.LVL15
 8003 006a 0100     		.2byte	0x1
 8004 006c 53       		.byte	0x53
 8005 006d 5E000000 		.4byte	.LVL18
 8006 0071 6C000000 		.4byte	.LVL20
 8007 0075 0100     		.2byte	0x1
 8008 0077 53       		.byte	0x53
 8009 0078 6C000000 		.4byte	.LVL20
 8010 007c 6E000000 		.4byte	.LVL21
 8011 0080 0200     		.2byte	0x2
 8012 0082 30       		.byte	0x30
 8013 0083 9F       		.byte	0x9f
 8014 0084 00000000 		.4byte	0
 8015 0088 00000000 		.4byte	0
 8016              	.LLST3:
 8017 008c 34000000 		.4byte	.LVL27
 8018 0090 36000000 		.4byte	.LVL28
 8019 0094 0200     		.2byte	0x2
ARM GAS  C:\Users\jaohe\AppData\Local\Temp\ccbQAV2C.s 			page 159


 8020 0096 30       		.byte	0x30
 8021 0097 9F       		.byte	0x9f
 8022 0098 36000000 		.4byte	.LVL28
 8023 009c 4E000000 		.4byte	.LVL31
 8024 00a0 0100     		.2byte	0x1
 8025 00a2 54       		.byte	0x54
 8026 00a3 50000000 		.4byte	.LVL32
 8027 00a7 5E000000 		.4byte	.LVL33
 8028 00ab 0100     		.2byte	0x1
 8029 00ad 54       		.byte	0x54
 8030 00ae 60000000 		.4byte	.LVL34
 8031 00b2 8A000000 		.4byte	.LVL38
 8032 00b6 0100     		.2byte	0x1
 8033 00b8 54       		.byte	0x54
 8034 00b9 8C000000 		.4byte	.LVL39
 8035 00bd 9A000000 		.4byte	.LVL40
 8036 00c1 0100     		.2byte	0x1
 8037 00c3 54       		.byte	0x54
 8038 00c4 9C000000 		.4byte	.LVL41
 8039 00c8 C6000000 		.4byte	.LVL44
 8040 00cc 0100     		.2byte	0x1
 8041 00ce 54       		.byte	0x54
 8042 00cf 00000000 		.4byte	0
 8043 00d3 00000000 		.4byte	0
 8044              	.LLST4:
 8045 00d7 00000000 		.4byte	.LVL46
 8046 00db 10000000 		.4byte	.LVL47
 8047 00df 0100     		.2byte	0x1
 8048 00e1 50       		.byte	0x50
 8049 00e2 10000000 		.4byte	.LVL47
 8050 00e6 80000000 		.4byte	.LVL57
 8051 00ea 0100     		.2byte	0x1
 8052 00ec 57       		.byte	0x57
 8053 00ed 80000000 		.4byte	.LVL57
 8054 00f1 88000000 		.4byte	.LFE73
 8055 00f5 0400     		.2byte	0x4
 8056 00f7 F3       		.byte	0xf3
 8057 00f8 01       		.uleb128 0x1
 8058 00f9 50       		.byte	0x50
 8059 00fa 9F       		.byte	0x9f
 8060 00fb 00000000 		.4byte	0
 8061 00ff 00000000 		.4byte	0
 8062              	.LLST5:
 8063 0103 00000000 		.4byte	.LVL46
 8064 0107 13000000 		.4byte	.LVL48-1
 8065 010b 0100     		.2byte	0x1
 8066 010d 51       		.byte	0x51
 8067 010e 13000000 		.4byte	.LVL48-1
 8068 0112 80000000 		.4byte	.LVL57
 8069 0116 0100     		.2byte	0x1
 8070 0118 56       		.byte	0x56
 8071 0119 80000000 		.4byte	.LVL57
 8072 011d 88000000 		.4byte	.LFE73
 8073 0121 0400     		.2byte	0x4
 8074 0123 F3       		.byte	0xf3
 8075 0124 01       		.uleb128 0x1
 8076 0125 51       		.byte	0x51
ARM GAS  C:\Users\jaohe\AppData\Local\Temp\ccbQAV2C.s 			page 160


 8077 0126 9F       		.byte	0x9f
 8078 0127 00000000 		.4byte	0
 8079 012b 00000000 		.4byte	0
 8080              	.LLST6:
 8081 012f 00000000 		.4byte	.LVL46
 8082 0133 13000000 		.4byte	.LVL48-1
 8083 0137 0100     		.2byte	0x1
 8084 0139 52       		.byte	0x52
 8085 013a 13000000 		.4byte	.LVL48-1
 8086 013e 80000000 		.4byte	.LVL57
 8087 0142 0100     		.2byte	0x1
 8088 0144 55       		.byte	0x55
 8089 0145 80000000 		.4byte	.LVL57
 8090 0149 88000000 		.4byte	.LFE73
 8091 014d 0400     		.2byte	0x4
 8092 014f F3       		.byte	0xf3
 8093 0150 01       		.uleb128 0x1
 8094 0151 52       		.byte	0x52
 8095 0152 9F       		.byte	0x9f
 8096 0153 00000000 		.4byte	0
 8097 0157 00000000 		.4byte	0
 8098              	.LLST7:
 8099 015b 00000000 		.4byte	.LVL46
 8100 015f 13000000 		.4byte	.LVL48-1
 8101 0163 0100     		.2byte	0x1
 8102 0165 53       		.byte	0x53
 8103 0166 13000000 		.4byte	.LVL48-1
 8104 016a 80000000 		.4byte	.LVL57
 8105 016e 0100     		.2byte	0x1
 8106 0170 54       		.byte	0x54
 8107 0171 80000000 		.4byte	.LVL57
 8108 0175 88000000 		.4byte	.LFE73
 8109 0179 0400     		.2byte	0x4
 8110 017b F3       		.byte	0xf3
 8111 017c 01       		.uleb128 0x1
 8112 017d 53       		.byte	0x53
 8113 017e 9F       		.byte	0x9f
 8114 017f 00000000 		.4byte	0
 8115 0183 00000000 		.4byte	0
 8116              	.LLST8:
 8117 0187 00000000 		.4byte	.LVL46
 8118 018b 80000000 		.4byte	.LVL57
 8119 018f 0200     		.2byte	0x2
 8120 0191 91       		.byte	0x91
 8121 0192 00       		.sleb128 0
 8122 0193 80000000 		.4byte	.LVL57
 8123 0197 88000000 		.4byte	.LFE73
 8124 019b 0200     		.2byte	0x2
 8125 019d 7D       		.byte	0x7d
 8126 019e 00       		.sleb128 0
 8127 019f 00000000 		.4byte	0
 8128 01a3 00000000 		.4byte	0
 8129              	.LLST9:
 8130 01a7 CC000000 		.4byte	.LVL85
 8131 01ab FA000000 		.4byte	.LVL88
 8132 01af 2200     		.2byte	0x22
 8133 01b1 70       		.byte	0x70
ARM GAS  C:\Users\jaohe\AppData\Local\Temp\ccbQAV2C.s 			page 161


 8134 01b2 00       		.sleb128 0
 8135 01b3 F7       		.byte	0xf7
 8136 01b4 33       		.uleb128 0x33
 8137 01b5 F7       		.byte	0xf7
 8138 01b6 25       		.uleb128 0x25
 8139 01b7 F4       		.byte	0xf4
 8140 01b8 25       		.uleb128 0x25
 8141 01b9 08       		.byte	0x8
 8142 01ba C5B3A291 		.8byte	0xffffffff91a2b3c5
 8142      FFFFFFFF 
 8143 01c2 1E       		.byte	0x1e
 8144 01c3 08       		.byte	0x8
 8145 01c4 20       		.byte	0x20
 8146 01c5 F7       		.byte	0xf7
 8147 01c6 25       		.uleb128 0x25
 8148 01c7 25       		.byte	0x25
 8149 01c8 F7       		.byte	0xf7
 8150 01c9 2C       		.uleb128 0x2c
 8151 01ca 70       		.byte	0x70
 8152 01cb 00       		.sleb128 0
 8153 01cc 22       		.byte	0x22
 8154 01cd 3B       		.byte	0x3b
 8155 01ce 26       		.byte	0x26
 8156 01cf 71       		.byte	0x71
 8157 01d0 00       		.sleb128 0
 8158 01d1 1C       		.byte	0x1c
 8159 01d2 9F       		.byte	0x9f
 8160 01d3 FA000000 		.4byte	.LVL88
 8161 01d7 FD000000 		.4byte	.LVL89-1
 8162 01db 2A00     		.2byte	0x2a
 8163 01dd 03       		.byte	0x3
 8164 01de 14000000 		.4byte	current_task+20
 8165 01e2 06       		.byte	0x6
 8166 01e3 F7       		.byte	0xf7
 8167 01e4 33       		.uleb128 0x33
 8168 01e5 F7       		.byte	0xf7
 8169 01e6 25       		.uleb128 0x25
 8170 01e7 F4       		.byte	0xf4
 8171 01e8 25       		.uleb128 0x25
 8172 01e9 08       		.byte	0x8
 8173 01ea C5B3A291 		.8byte	0xffffffff91a2b3c5
 8173      FFFFFFFF 
 8174 01f2 1E       		.byte	0x1e
 8175 01f3 08       		.byte	0x8
 8176 01f4 20       		.byte	0x20
 8177 01f5 F7       		.byte	0xf7
 8178 01f6 25       		.uleb128 0x25
 8179 01f7 25       		.byte	0x25
 8180 01f8 F7       		.byte	0xf7
 8181 01f9 2C       		.uleb128 0x2c
 8182 01fa 03       		.byte	0x3
 8183 01fb 14000000 		.4byte	current_task+20
 8184 01ff 06       		.byte	0x6
 8185 0200 22       		.byte	0x22
 8186 0201 3B       		.byte	0x3b
 8187 0202 26       		.byte	0x26
 8188 0203 71       		.byte	0x71
ARM GAS  C:\Users\jaohe\AppData\Local\Temp\ccbQAV2C.s 			page 162


 8189 0204 00       		.sleb128 0
 8190 0205 1C       		.byte	0x1c
 8191 0206 9F       		.byte	0x9f
 8192 0207 00000000 		.4byte	0
 8193 020b 00000000 		.4byte	0
 8194              	.LLST10:
 8195 020f E6000000 		.4byte	.LVL86
 8196 0213 0E010000 		.4byte	.LVL91
 8197 0217 0100     		.2byte	0x1
 8198 0219 55       		.byte	0x55
 8199 021a 00000000 		.4byte	0
 8200 021e 00000000 		.4byte	0
 8201              	.LLST11:
 8202 0222 F8000000 		.4byte	.LVL87
 8203 0226 0E010000 		.4byte	.LVL91
 8204 022a 0100     		.2byte	0x1
 8205 022c 54       		.byte	0x54
 8206 022d 00000000 		.4byte	0
 8207 0231 00000000 		.4byte	0
 8208              	.LLST12:
 8209 0235 1C010000 		.4byte	.LVL92
 8210 0239 4C010000 		.4byte	.LVL95
 8211 023d 2200     		.2byte	0x22
 8212 023f 70       		.byte	0x70
 8213 0240 00       		.sleb128 0
 8214 0241 F7       		.byte	0xf7
 8215 0242 33       		.uleb128 0x33
 8216 0243 F7       		.byte	0xf7
 8217 0244 25       		.uleb128 0x25
 8218 0245 F4       		.byte	0xf4
 8219 0246 25       		.uleb128 0x25
 8220 0247 08       		.byte	0x8
 8221 0248 C5B3A291 		.8byte	0xffffffff91a2b3c5
 8221      FFFFFFFF 
 8222 0250 1E       		.byte	0x1e
 8223 0251 08       		.byte	0x8
 8224 0252 20       		.byte	0x20
 8225 0253 F7       		.byte	0xf7
 8226 0254 25       		.uleb128 0x25
 8227 0255 25       		.byte	0x25
 8228 0256 F7       		.byte	0xf7
 8229 0257 2C       		.uleb128 0x2c
 8230 0258 70       		.byte	0x70
 8231 0259 00       		.sleb128 0
 8232 025a 22       		.byte	0x22
 8233 025b 3B       		.byte	0x3b
 8234 025c 26       		.byte	0x26
 8235 025d 71       		.byte	0x71
 8236 025e 00       		.sleb128 0
 8237 025f 1C       		.byte	0x1c
 8238 0260 9F       		.byte	0x9f
 8239 0261 4C010000 		.4byte	.LVL95
 8240 0265 4F010000 		.4byte	.LVL96-1
 8241 0269 2A00     		.2byte	0x2a
 8242 026b 03       		.byte	0x3
 8243 026c 10000000 		.4byte	current_task+16
 8244 0270 06       		.byte	0x6
ARM GAS  C:\Users\jaohe\AppData\Local\Temp\ccbQAV2C.s 			page 163


 8245 0271 F7       		.byte	0xf7
 8246 0272 33       		.uleb128 0x33
 8247 0273 F7       		.byte	0xf7
 8248 0274 25       		.uleb128 0x25
 8249 0275 F4       		.byte	0xf4
 8250 0276 25       		.uleb128 0x25
 8251 0277 08       		.byte	0x8
 8252 0278 C5B3A291 		.8byte	0xffffffff91a2b3c5
 8252      FFFFFFFF 
 8253 0280 1E       		.byte	0x1e
 8254 0281 08       		.byte	0x8
 8255 0282 20       		.byte	0x20
 8256 0283 F7       		.byte	0xf7
 8257 0284 25       		.uleb128 0x25
 8258 0285 25       		.byte	0x25
 8259 0286 F7       		.byte	0xf7
 8260 0287 2C       		.uleb128 0x2c
 8261 0288 03       		.byte	0x3
 8262 0289 10000000 		.4byte	current_task+16
 8263 028d 06       		.byte	0x6
 8264 028e 22       		.byte	0x22
 8265 028f 3B       		.byte	0x3b
 8266 0290 26       		.byte	0x26
 8267 0291 71       		.byte	0x71
 8268 0292 00       		.sleb128 0
 8269 0293 1C       		.byte	0x1c
 8270 0294 9F       		.byte	0x9f
 8271 0295 00000000 		.4byte	0
 8272 0299 00000000 		.4byte	0
 8273              	.LLST13:
 8274 029d 36010000 		.4byte	.LVL93
 8275 02a1 5E010000 		.4byte	.LVL97
 8276 02a5 0100     		.2byte	0x1
 8277 02a7 55       		.byte	0x55
 8278 02a8 00000000 		.4byte	0
 8279 02ac 00000000 		.4byte	0
 8280              	.LLST14:
 8281 02b0 48010000 		.4byte	.LVL94
 8282 02b4 5E010000 		.4byte	.LVL97
 8283 02b8 0100     		.2byte	0x1
 8284 02ba 54       		.byte	0x54
 8285 02bb 00000000 		.4byte	0
 8286 02bf 00000000 		.4byte	0
 8287              	.LLST15:
 8288 02c3 52000000 		.4byte	.LVL106
 8289 02c7 56000000 		.4byte	.LVL107
 8290 02cb 0200     		.2byte	0x2
 8291 02cd 4E       		.byte	0x4e
 8292 02ce 9F       		.byte	0x9f
 8293 02cf 56000000 		.4byte	.LVL107
 8294 02d3 7C000000 		.4byte	.LVL113
 8295 02d7 0100     		.2byte	0x1
 8296 02d9 55       		.byte	0x55
 8297 02da 7E000000 		.4byte	.LVL114
 8298 02de 9A000000 		.4byte	.LVL119
 8299 02e2 0100     		.2byte	0x1
 8300 02e4 55       		.byte	0x55
ARM GAS  C:\Users\jaohe\AppData\Local\Temp\ccbQAV2C.s 			page 164


 8301 02e5 00000000 		.4byte	0
 8302 02e9 00000000 		.4byte	0
 8303              	.LLST16:
 8304 02ed 52000000 		.4byte	.LVL106
 8305 02f1 56000000 		.4byte	.LVL107
 8306 02f5 0300     		.2byte	0x3
 8307 02f7 09       		.byte	0x9
 8308 02f8 FF       		.byte	0xff
 8309 02f9 9F       		.byte	0x9f
 8310 02fa 56000000 		.4byte	.LVL107
 8311 02fe 90000000 		.4byte	.LVL117
 8312 0302 0100     		.2byte	0x1
 8313 0304 54       		.byte	0x54
 8314 0305 90000000 		.4byte	.LVL117
 8315 0309 92000000 		.4byte	.LVL118
 8316 030d 0400     		.2byte	0x4
 8317 030f 74       		.byte	0x74
 8318 0310 00       		.sleb128 0
 8319 0311 1F       		.byte	0x1f
 8320 0312 9F       		.byte	0x9f
 8321 0313 92000000 		.4byte	.LVL118
 8322 0317 9A000000 		.4byte	.LVL119
 8323 031b 0100     		.2byte	0x1
 8324 031d 54       		.byte	0x54
 8325 031e 00000000 		.4byte	0
 8326 0322 00000000 		.4byte	0
 8327              	.LLST17:
 8328 0326 00000000 		.4byte	.LVL120
 8329 032a 08000000 		.4byte	.LVL121
 8330 032e 0100     		.2byte	0x1
 8331 0330 50       		.byte	0x50
 8332 0331 08000000 		.4byte	.LVL121
 8333 0335 3C000000 		.4byte	.LVL127
 8334 0339 0100     		.2byte	0x1
 8335 033b 54       		.byte	0x54
 8336 033c 3C000000 		.4byte	.LVL127
 8337 0340 44000000 		.4byte	.LFE78
 8338 0344 0400     		.2byte	0x4
 8339 0346 F3       		.byte	0xf3
 8340 0347 01       		.uleb128 0x1
 8341 0348 50       		.byte	0x50
 8342 0349 9F       		.byte	0x9f
 8343 034a 00000000 		.4byte	0
 8344 034e 00000000 		.4byte	0
 8345              	.LLST18:
 8346 0352 00000000 		.4byte	.LVL128
 8347 0356 06000000 		.4byte	.LVL129
 8348 035a 0100     		.2byte	0x1
 8349 035c 50       		.byte	0x50
 8350 035d 06000000 		.4byte	.LVL129
 8351 0361 22000000 		.4byte	.LFE79
 8352 0365 0100     		.2byte	0x1
 8353 0367 54       		.byte	0x54
 8354 0368 00000000 		.4byte	0
 8355 036c 00000000 		.4byte	0
 8356              	.LLST19:
 8357 0370 38000000 		.4byte	.LVL161
ARM GAS  C:\Users\jaohe\AppData\Local\Temp\ccbQAV2C.s 			page 165


 8358 0374 3C000000 		.4byte	.LVL162
 8359 0378 0200     		.2byte	0x2
 8360 037a 30       		.byte	0x30
 8361 037b 9F       		.byte	0x9f
 8362 037c 3C000000 		.4byte	.LVL162
 8363 0380 5B000000 		.4byte	.LVL164-1
 8364 0384 0100     		.2byte	0x1
 8365 0386 53       		.byte	0x53
 8366 0387 00000000 		.4byte	0
 8367 038b 00000000 		.4byte	0
 8368              	.LLST20:
 8369 038f 2A000000 		.4byte	.LVL159
 8370 0393 2C000000 		.4byte	.LVL160
 8371 0397 0300     		.2byte	0x3
 8372 0399 73       		.byte	0x73
 8373 039a 7F       		.sleb128 -1
 8374 039b 9F       		.byte	0x9f
 8375 039c 2C000000 		.4byte	.LVL160
 8376 03a0 3C000000 		.4byte	.LVL162
 8377 03a4 0900     		.2byte	0x9
 8378 03a6 03       		.byte	0x3
 8379 03a7 00000000 		.4byte	numTasks
 8380 03ab 06       		.byte	0x6
 8381 03ac 31       		.byte	0x31
 8382 03ad 1C       		.byte	0x1c
 8383 03ae 9F       		.byte	0x9f
 8384 03af 00000000 		.4byte	0
 8385 03b3 00000000 		.4byte	0
 8386              	.LLST21:
 8387 03b7 38000000 		.4byte	.LVL161
 8388 03bb 2C010000 		.4byte	.LVL192
 8389 03bf 0200     		.2byte	0x2
 8390 03c1 75       		.byte	0x75
 8391 03c2 00       		.sleb128 0
 8392 03c3 00000000 		.4byte	0
 8393 03c7 00000000 		.4byte	0
 8394              	.LLST22:
 8395 03cb 5C000000 		.4byte	.LVL164
 8396 03cf 66000000 		.4byte	.LVL167
 8397 03d3 0200     		.2byte	0x2
 8398 03d5 30       		.byte	0x30
 8399 03d6 9F       		.byte	0x9f
 8400 03d7 E2000000 		.4byte	.LVL182
 8401 03db F2000000 		.4byte	.LVL183
 8402 03df 0100     		.2byte	0x1
 8403 03e1 52       		.byte	0x52
 8404 03e2 F2000000 		.4byte	.LVL183
 8405 03e6 F4000000 		.4byte	.LVL184
 8406 03ea 0100     		.2byte	0x1
 8407 03ec 50       		.byte	0x50
 8408 03ed F4000000 		.4byte	.LVL184
 8409 03f1 00010000 		.4byte	.LVL186
 8410 03f5 0100     		.2byte	0x1
 8411 03f7 52       		.byte	0x52
 8412 03f8 00000000 		.4byte	0
 8413 03fc 00000000 		.4byte	0
 8414              	.LLST23:
ARM GAS  C:\Users\jaohe\AppData\Local\Temp\ccbQAV2C.s 			page 166


 8415 0400 5C000000 		.4byte	.LVL164
 8416 0404 66000000 		.4byte	.LVL167
 8417 0408 0200     		.2byte	0x2
 8418 040a 30       		.byte	0x30
 8419 040b 9F       		.byte	0x9f
 8420 040c 66000000 		.4byte	.LVL167
 8421 0410 96000000 		.4byte	.LVL173
 8422 0414 0100     		.2byte	0x1
 8423 0416 54       		.byte	0x54
 8424 0417 AA000000 		.4byte	.LVL175
 8425 041b B2000000 		.4byte	.LVL176
 8426 041f 0100     		.2byte	0x1
 8427 0421 54       		.byte	0x54
 8428 0422 C6000000 		.4byte	.LVL178
 8429 0426 26010000 		.4byte	.LVL191
 8430 042a 0100     		.2byte	0x1
 8431 042c 54       		.byte	0x54
 8432 042d 00000000 		.4byte	0
 8433 0431 00000000 		.4byte	0
 8434              	.LLST24:
 8435 0435 00000000 		.4byte	.LVL216
 8436 0439 05000000 		.4byte	.LVL217-1
 8437 043d 0100     		.2byte	0x1
 8438 043f 50       		.byte	0x50
 8439 0440 05000000 		.4byte	.LVL217-1
 8440 0444 12000000 		.4byte	.LFE77
 8441 0448 0400     		.2byte	0x4
 8442 044a F3       		.byte	0xf3
 8443 044b 01       		.uleb128 0x1
 8444 044c 50       		.byte	0x50
 8445 044d 9F       		.byte	0x9f
 8446 044e 00000000 		.4byte	0
 8447 0452 00000000 		.4byte	0
 8448              	.LLST25:
 8449 0456 20000000 		.4byte	.LVL223
 8450 045a 23000000 		.4byte	.LVL224-1
 8451 045e 0100     		.2byte	0x1
 8452 0460 50       		.byte	0x50
 8453 0461 00000000 		.4byte	0
 8454 0465 00000000 		.4byte	0
 8455              		.section	.debug_aranges,"",%progbits
 8456 0000 AC000000 		.4byte	0xac
 8457 0004 0200     		.2byte	0x2
 8458 0006 00000000 		.4byte	.Ldebug_info0
 8459 000a 04       		.byte	0x4
 8460 000b 00       		.byte	0
 8461 000c 0000     		.2byte	0
 8462 000e 0000     		.2byte	0
 8463 0010 00000000 		.4byte	.LFB63
 8464 0014 10000000 		.4byte	.LFE63-.LFB63
 8465 0018 00000000 		.4byte	.LFB64
 8466 001c 40000000 		.4byte	.LFE64-.LFB64
 8467 0020 00000000 		.4byte	.LFB67
 8468 0024 80000000 		.4byte	.LFE67-.LFB67
 8469 0028 00000000 		.4byte	.LFB68
 8470 002c 38000000 		.4byte	.LFE68-.LFB68
 8471 0030 00000000 		.4byte	.LFB70
ARM GAS  C:\Users\jaohe\AppData\Local\Temp\ccbQAV2C.s 			page 167


 8472 0034 E0000000 		.4byte	.LFE70-.LFB70
 8473 0038 00000000 		.4byte	.LFB71
 8474 003c 16000000 		.4byte	.LFE71-.LFB71
 8475 0040 00000000 		.4byte	.LFB73
 8476 0044 88000000 		.4byte	.LFE73-.LFB73
 8477 0048 00000000 		.4byte	.LFB75
 8478 004c 84010000 		.4byte	.LFE75-.LFB75
 8479 0050 00000000 		.4byte	.LFB74
 8480 0054 C0010000 		.4byte	.LFE74-.LFB74
 8481 0058 00000000 		.4byte	.LFB76
 8482 005c A8000000 		.4byte	.LFE76-.LFB76
 8483 0060 00000000 		.4byte	.LFB78
 8484 0064 44000000 		.4byte	.LFE78-.LFB78
 8485 0068 00000000 		.4byte	.LFB79
 8486 006c 22000000 		.4byte	.LFE79-.LFB79
 8487 0070 00000000 		.4byte	.LFB65
 8488 0074 5C010000 		.4byte	.LFE65-.LFB65
 8489 0078 00000000 		.4byte	.LFB66
 8490 007c 6C000000 		.4byte	.LFE66-.LFB66
 8491 0080 00000000 		.4byte	.LFB72
 8492 0084 50010000 		.4byte	.LFE72-.LFB72
 8493 0088 00000000 		.4byte	.LFB69
 8494 008c C8000000 		.4byte	.LFE69-.LFB69
 8495 0090 00000000 		.4byte	.LFB77
 8496 0094 12000000 		.4byte	.LFE77-.LFB77
 8497 0098 00000000 		.4byte	.LFB80
 8498 009c 24000000 		.4byte	.LFE80-.LFB80
 8499 00a0 00000000 		.4byte	.LFB81
 8500 00a4 2E000000 		.4byte	.LFE81-.LFB81
 8501 00a8 00000000 		.4byte	0
 8502 00ac 00000000 		.4byte	0
 8503              		.section	.debug_ranges,"",%progbits
 8504              	.Ldebug_ranges0:
 8505 0000 00000000 		.4byte	.LFB63
 8506 0004 10000000 		.4byte	.LFE63
 8507 0008 00000000 		.4byte	.LFB64
 8508 000c 40000000 		.4byte	.LFE64
 8509 0010 00000000 		.4byte	.LFB67
 8510 0014 80000000 		.4byte	.LFE67
 8511 0018 00000000 		.4byte	.LFB68
 8512 001c 38000000 		.4byte	.LFE68
 8513 0020 00000000 		.4byte	.LFB70
 8514 0024 E0000000 		.4byte	.LFE70
 8515 0028 00000000 		.4byte	.LFB71
 8516 002c 16000000 		.4byte	.LFE71
 8517 0030 00000000 		.4byte	.LFB73
 8518 0034 88000000 		.4byte	.LFE73
 8519 0038 00000000 		.4byte	.LFB75
 8520 003c 84010000 		.4byte	.LFE75
 8521 0040 00000000 		.4byte	.LFB74
 8522 0044 C0010000 		.4byte	.LFE74
 8523 0048 00000000 		.4byte	.LFB76
 8524 004c A8000000 		.4byte	.LFE76
 8525 0050 00000000 		.4byte	.LFB78
 8526 0054 44000000 		.4byte	.LFE78
 8527 0058 00000000 		.4byte	.LFB79
 8528 005c 22000000 		.4byte	.LFE79
ARM GAS  C:\Users\jaohe\AppData\Local\Temp\ccbQAV2C.s 			page 168


 8529 0060 00000000 		.4byte	.LFB65
 8530 0064 5C010000 		.4byte	.LFE65
 8531 0068 00000000 		.4byte	.LFB66
 8532 006c 6C000000 		.4byte	.LFE66
 8533 0070 00000000 		.4byte	.LFB72
 8534 0074 50010000 		.4byte	.LFE72
 8535 0078 00000000 		.4byte	.LFB69
 8536 007c C8000000 		.4byte	.LFE69
 8537 0080 00000000 		.4byte	.LFB77
 8538 0084 12000000 		.4byte	.LFE77
 8539 0088 00000000 		.4byte	.LFB80
 8540 008c 24000000 		.4byte	.LFE80
 8541 0090 00000000 		.4byte	.LFB81
 8542 0094 2E000000 		.4byte	.LFE81
 8543 0098 00000000 		.4byte	0
 8544 009c 00000000 		.4byte	0
 8545              		.section	.debug_line,"",%progbits
 8546              	.Ldebug_line0:
 8547 0000 0B060000 		.section	.debug_str,"MS",%progbits,1
 8547      02003403 
 8547      00000201 
 8547      FB0E0D00 
 8547      01010101 
 8548              	.LASF18:
 8549 0000 7066436F 		.ascii	"pfColor2Index\000"
 8549      6C6F7232 
 8549      496E6465 
 8549      7800
 8550              	.LASF110:
 8551 000e 696E7438 		.ascii	"int8_t\000"
 8551      5F7400
 8552              	.LASF124:
 8553 0015 4E4F545F 		.ascii	"NOT_SET\000"
 8553      53455400 
 8554              	.LASF187:
 8555 001d 75736572 		.ascii	"user_start_task\000"
 8555      5F737461 
 8555      72745F74 
 8555      61736B00 
 8556              	.LASF2:
 8557 002d 73697A65 		.ascii	"size_t\000"
 8557      5F7400
 8558              	.LASF245:
 8559 0034 4755495F 		.ascii	"GUI_DrawBitmap\000"
 8559      44726177 
 8559      4269746D 
 8559      617000
 8560              	.LASF100:
 8561 0043 73697A65 		.ascii	"sizetype\000"
 8561      74797065 
 8561      00
 8562              	.LASF87:
 8563 004c 70616645 		.ascii	"pafEncode\000"
 8563      6E636F64 
 8563      6500
 8564              	.LASF140:
 8565 0056 73746172 		.ascii	"start\000"
ARM GAS  C:\Users\jaohe\AppData\Local\Temp\ccbQAV2C.s 			page 169


 8565      7400
 8566              	.LASF65:
 8567 005c 4755495F 		.ascii	"GUI_FONT_PROP_EXT\000"
 8567      464F4E54 
 8567      5F50524F 
 8567      505F4558 
 8567      5400
 8568              	.LASF256:
 8569 006e 4144435F 		.ascii	"ADC_DelSig_1_StartConvert\000"
 8569      44656C53 
 8569      69675F31 
 8569      5F537461 
 8569      7274436F 
 8570              	.LASF113:
 8571 0088 696E7433 		.ascii	"int32_t\000"
 8571      325F7400 
 8572              	.LASF204:
 8573 0090 6E756D41 		.ascii	"numAlarms\000"
 8573      6C61726D 
 8573      7300
 8574              	.LASF273:
 8575 009a 7469636B 		.ascii	"tick_isr_init\000"
 8575      5F697372 
 8575      5F696E69 
 8575      7400
 8576              	.LASF33:
 8577 00a8 4755495F 		.ascii	"GUI_LOGPALETTE\000"
 8577      4C4F4750 
 8577      414C4554 
 8577      544500
 8578              	.LASF144:
 8579 00b7 6163745F 		.ascii	"act_start\000"
 8579      73746172 
 8579      7400
 8580              	.LASF116:
 8581 00c1 75696E74 		.ascii	"uint32\000"
 8581      333200
 8582              	.LASF278:
 8583 00c8 696E6974 		.ascii	"init_globals\000"
 8583      5F676C6F 
 8583      62616C73 
 8583      00
 8584              	.LASF238:
 8585 00d5 55415254 		.ascii	"UART_2_GetChar\000"
 8585      5F325F47 
 8585      65744368 
 8585      617200
 8586              	.LASF207:
 8587 00e4 63757272 		.ascii	"current_alarm\000"
 8587      656E745F 
 8587      616C6172 
 8587      6D00
 8588              	.LASF168:
 8589 00f2 7461736B 		.ascii	"task_complete\000"
 8589      5F636F6D 
 8589      706C6574 
 8589      6500
ARM GAS  C:\Users\jaohe\AppData\Local\Temp\ccbQAV2C.s 			page 170


 8590              	.LASF27:
 8591 0100 74526563 		.ascii	"tRect2TextRect\000"
 8591      74325465 
 8591      78745265 
 8591      637400
 8592              	.LASF84:
 8593 010f 70664765 		.ascii	"pfGetFontInfo\000"
 8593      74466F6E 
 8593      74496E66 
 8593      6F00
 8594              	.LASF232:
 8595 011d 44726177 		.ascii	"DrawTaskMetric\000"
 8595      5461736B 
 8595      4D657472 
 8595      696300
 8596              	.LASF6:
 8597 012c 4C43445F 		.ascii	"LCD_RECT\000"
 8597      52454354 
 8597      00
 8598              	.LASF148:
 8599 0135 73746174 		.ascii	"state\000"
 8599      6500
 8600              	.LASF45:
 8601 013b 704D6574 		.ascii	"pMethods\000"
 8601      686F6473 
 8601      00
 8602              	.LASF39:
 8603 0144 5853697A 		.ascii	"XSize\000"
 8603      6500
 8604              	.LASF14:
 8605 014a 744C4344 		.ascii	"tLCDDEV_Color2Index\000"
 8605      4445565F 
 8605      436F6C6F 
 8605      7232496E 
 8605      64657800 
 8606              	.LASF8:
 8607 015e 48617354 		.ascii	"HasTrans\000"
 8607      72616E73 
 8607      00
 8608              	.LASF237:
 8609 0167 5254435F 		.ascii	"RTC_now\000"
 8609      6E6F7700 
 8610              	.LASF195:
 8611 016f 63757272 		.ascii	"current_task\000"
 8611      656E745F 
 8611      7461736B 
 8611      00
 8612              	.LASF23:
 8613 017c 7066496E 		.ascii	"pfIndex2ColorBulk\000"
 8613      64657832 
 8613      436F6C6F 
 8613      7242756C 
 8613      6B00
 8614              	.LASF276:
 8615 018e 433A5C55 		.ascii	"C:\\Users\\jaohe\\EghosaOneDrive\\OneDrive\\Documen"
 8615      73657273 
 8615      5C6A616F 
ARM GAS  C:\Users\jaohe\AppData\Local\Temp\ccbQAV2C.s 			page 171


 8615      68655C45 
 8615      67686F73 
 8616 01bc 74735C53 		.ascii	"ts\\Spring 2025\\6.115\\final_project\\taskassistan"
 8616      7072696E 
 8616      67203230 
 8616      32355C36 
 8616      2E313135 
 8617 01eb 745C5446 		.ascii	"t\\TFT_with_emWin\\TFT_with_emWin.cydsn\000"
 8617      545F7769 
 8617      74685F65 
 8617      6D57696E 
 8617      5C544654 
 8618              	.LASF263:
 8619 0211 49324352 		.ascii	"I2CRTC_Start\000"
 8619      54435F53 
 8619      74617274 
 8619      00
 8620              	.LASF265:
 8621 021e 4C43445F 		.ascii	"LCD_Char_1_Start\000"
 8621      43686172 
 8621      5F315F53 
 8621      74617274 
 8621      00
 8622              	.LASF155:
 8623 022f 56494557 		.ascii	"VIEW_METRICS\000"
 8623      5F4D4554 
 8623      52494353 
 8623      00
 8624              	.LASF88:
 8625 023c 59446973 		.ascii	"YDist\000"
 8625      7400
 8626              	.LASF217:
 8627 0242 4755495F 		.ascii	"GUI_DispStringAt\000"
 8627      44697370 
 8627      53747269 
 8627      6E674174 
 8627      00
 8628              	.LASF106:
 8629 0253 5F5F7569 		.ascii	"__uint8_t\000"
 8629      6E74385F 
 8629      7400
 8630              	.LASF120:
 8631 025d 63686172 		.ascii	"char8\000"
 8631      3800
 8632              	.LASF26:
 8633 0263 744C4344 		.ascii	"tLCD_DrawBitmap\000"
 8633      5F447261 
 8633      77426974 
 8633      6D617000 
 8634              	.LASF21:
 8635 0273 4E6F416C 		.ascii	"NoAlpha\000"
 8635      70686100 
 8636              	.LASF169:
 8637 027b 52656374 		.ascii	"Rect\000"
 8637      00
 8638              	.LASF160:
 8639 0280 6D656E75 		.ascii	"menu\000"
ARM GAS  C:\Users\jaohe\AppData\Local\Temp\ccbQAV2C.s 			page 172


 8639      00
 8640              	.LASF97:
 8641 0285 704D6F6E 		.ascii	"pMono\000"
 8641      6F00
 8642              	.LASF37:
 8643 028b 70436F6C 		.ascii	"pColorConvAPI\000"
 8643      6F72436F 
 8643      6E764150 
 8643      4900
 8644              	.LASF25:
 8645 0299 6C6F6E67 		.ascii	"long int\000"
 8645      20696E74 
 8645      00
 8646              	.LASF267:
 8647 02a2 55415254 		.ascii	"UART_1_Start\000"
 8647      5F315F53 
 8647      74617274 
 8647      00
 8648              	.LASF227:
 8649 02af 4755495F 		.ascii	"GUI_DrawRect\000"
 8649      44726177 
 8649      52656374 
 8649      00
 8650              	.LASF191:
 8651 02bc 6D61696E 		.ascii	"main\000"
 8651      00
 8652              	.LASF200:
 8653 02c1 696E5F61 		.ascii	"in_alarm\000"
 8653      6C61726D 
 8653      00
 8654              	.LASF154:
 8655 02ca 5441534B 		.ascii	"TASK_SCHEDULER\000"
 8655      5F534348 
 8655      4544554C 
 8655      455200
 8656              	.LASF192:
 8657 02d9 6572726F 		.ascii	"error\000"
 8657      7200
 8658              	.LASF77:
 8659 02df 70664765 		.ascii	"pfGetLineDistX\000"
 8659      744C696E 
 8659      65446973 
 8659      745800
 8660              	.LASF63:
 8661 02ee 70614368 		.ascii	"paCharInfo\000"
 8661      6172496E 
 8661      666F00
 8662              	.LASF85:
 8663 02f9 70664973 		.ascii	"pfIsInFont\000"
 8663      496E466F 
 8663      6E7400
 8664              	.LASF173:
 8665 0304 7465726D 		.ascii	"terminal_buff\000"
 8665      696E616C 
 8665      5F627566 
 8665      6600
 8666              	.LASF35:
ARM GAS  C:\Users\jaohe\AppData\Local\Temp\ccbQAV2C.s 			page 173


 8667 0312 70664472 		.ascii	"pfDraw\000"
 8667      617700
 8668              	.LASF269:
 8669 0319 55415254 		.ascii	"UART_2_Start\000"
 8669      5F325F53 
 8669      74617274 
 8669      00
 8670              	.LASF57:
 8671 0326 7369676E 		.ascii	"signed char\000"
 8671      65642063 
 8671      68617200 
 8672              	.LASF111:
 8673 0332 75696E74 		.ascii	"uint8_t\000"
 8673      385F7400 
 8674              	.LASF211:
 8675 033a 55415254 		.ascii	"UART_1_GetChar\000"
 8675      5F315F47 
 8675      65744368 
 8675      617200
 8676              	.LASF274:
 8677 0349 474E5520 		.ascii	"GNU C 4.9.3 20150303 (release) [ARM/embedded-4_9-br"
 8677      4320342E 
 8677      392E3320 
 8677      32303135 
 8677      30333033 
 8678 037c 616E6368 		.ascii	"anch revision 221220] -mcpu=cortex-m3 -mthumb -g -O"
 8678      20726576 
 8678      6973696F 
 8678      6E203232 
 8678      31323230 
 8679 03af 67202D66 		.ascii	"g -ffunction-sections -ffat-lto-objects\000"
 8679      66756E63 
 8679      74696F6E 
 8679      2D736563 
 8679      74696F6E 
 8680              	.LASF12:
 8681 03d7 756E7369 		.ascii	"unsigned char\000"
 8681      676E6564 
 8681      20636861 
 8681      7200
 8682              	.LASF242:
 8683 03e5 7374726C 		.ascii	"strlen\000"
 8683      656E00
 8684              	.LASF268:
 8685 03ec 55415254 		.ascii	"UART_2_Init\000"
 8685      5F325F49 
 8685      6E697400 
 8686              	.LASF159:
 8687 03f8 616C6172 		.ascii	"alarmCheck\000"
 8687      6D436865 
 8687      636B00
 8688              	.LASF71:
 8689 0403 4C486569 		.ascii	"LHeight\000"
 8689      67687400 
 8690              	.LASF136:
 8691 040b 5F426F6F 		.ascii	"_Bool\000"
 8691      6C00
ARM GAS  C:\Users\jaohe\AppData\Local\Temp\ccbQAV2C.s 			page 174


 8692              	.LASF127:
 8693 0411 46494E49 		.ascii	"FINISHED\000"
 8693      53484544 
 8693      00
 8694              	.LASF94:
 8695 041a 4755495F 		.ascii	"GUI_ISINFONT\000"
 8695      4953494E 
 8695      464F4E54 
 8695      00
 8696              	.LASF89:
 8697 0427 584D6167 		.ascii	"XMag\000"
 8697      00
 8698              	.LASF69:
 8699 042c 466C6167 		.ascii	"Flags\000"
 8699      7300
 8700              	.LASF10:
 8701 0432 63686172 		.ascii	"char\000"
 8701      00
 8702              	.LASF53:
 8703 0437 58446973 		.ascii	"XDist\000"
 8703      7400
 8704              	.LASF64:
 8705 043d 704E6578 		.ascii	"pNext\000"
 8705      7400
 8706              	.LASF58:
 8707 0443 4755495F 		.ascii	"GUI_CHARINFO_EXT\000"
 8707      43484152 
 8707      494E464F 
 8707      5F455854 
 8707      00
 8708              	.LASF107:
 8709 0454 5F5F7569 		.ascii	"__uint16_t\000"
 8709      6E743136 
 8709      5F7400
 8710              	.LASF32:
 8711 045f 4755495F 		.ascii	"GUI_COLOR\000"
 8711      434F4C4F 
 8711      5200
 8712              	.LASF98:
 8713 0469 7050726F 		.ascii	"pProp\000"
 8713      7000
 8714              	.LASF246:
 8715 046f 4C43445F 		.ascii	"LCD_Char_1_WriteControl\000"
 8715      43686172 
 8715      5F315F57 
 8715      72697465 
 8715      436F6E74 
 8716              	.LASF215:
 8717 0487 4755495F 		.ascii	"GUI_SetBkColor\000"
 8717      53657442 
 8717      6B436F6C 
 8717      6F7200
 8718              	.LASF49:
 8719 0496 46697273 		.ascii	"FirstChar\000"
 8719      74436861 
 8719      7200
 8720              	.LASF236:
ARM GAS  C:\Users\jaohe\AppData\Local\Temp\ccbQAV2C.s 			page 175


 8721 04a0 4755495F 		.ascii	"GUI_ClearRectEx\000"
 8721      436C6561 
 8721      72526563 
 8721      74457800 
 8722              	.LASF271:
 8723 04b0 5254435F 		.ascii	"RTC_setAlarmTime\000"
 8723      73657441 
 8723      6C61726D 
 8723      54696D65 
 8723      00
 8724              	.LASF93:
 8725 04c1 4755495F 		.ascii	"GUI_GETFONTINFO\000"
 8725      47455446 
 8725      4F4E5449 
 8725      4E464F00 
 8726              	.LASF55:
 8727 04d1 58506F73 		.ascii	"XPos\000"
 8727      00
 8728              	.LASF48:
 8729 04d6 4755495F 		.ascii	"GUI_FONT_TRANSLIST\000"
 8729      464F4E54 
 8729      5F545241 
 8729      4E534C49 
 8729      535400
 8730              	.LASF260:
 8731 04e9 54696D65 		.ascii	"Timer_1_Start\000"
 8731      725F315F 
 8731      53746172 
 8731      7400
 8732              	.LASF132:
 8733 04f7 48414E44 		.ascii	"HANDLED\000"
 8733      4C454400 
 8734              	.LASF103:
 8735 04ff 4755495F 		.ascii	"GUI_WRAPMODE_CHAR\000"
 8735      57524150 
 8735      4D4F4445 
 8735      5F434841 
 8735      5200
 8736              	.LASF16:
 8737 0511 744C4344 		.ascii	"tLCDDEV_Index2ColorBulk\000"
 8737      4445565F 
 8737      496E6465 
 8737      7832436F 
 8737      6C6F7242 
 8738              	.LASF143:
 8739 0529 7461736B 		.ascii	"task\000"
 8739      00
 8740              	.LASF241:
 8741 052e 4C43445F 		.ascii	"LCD_Char_1_PrintString\000"
 8741      43686172 
 8741      5F315F50 
 8741      72696E74 
 8741      53747269 
 8742              	.LASF172:
 8743 0545 62756666 		.ascii	"buffer\000"
 8743      657200
 8744              	.LASF218:
ARM GAS  C:\Users\jaohe\AppData\Local\Temp\ccbQAV2C.s 			page 176


 8745 054c 44726177 		.ascii	"DrawTaskList\000"
 8745      5461736B 
 8745      4C697374 
 8745      00
 8746              	.LASF249:
 8747 0559 736E6F6F 		.ascii	"snooze_alarm\000"
 8747      7A655F61 
 8747      6C61726D 
 8747      00
 8748              	.LASF196:
 8749 0566 4755495F 		.ascii	"GUI_Font8x16\000"
 8749      466F6E74 
 8749      38783136 
 8749      00
 8750              	.LASF92:
 8751 0573 4755495F 		.ascii	"GUI_GETCHARDISTX\000"
 8751      47455443 
 8751      48415244 
 8751      49535458 
 8751      00
 8752              	.LASF149:
 8753 0584 416C6172 		.ascii	"Alarm\000"
 8753      6D00
 8754              	.LASF52:
 8755 058a 4755495F 		.ascii	"GUI_FONT_TRANSINFO\000"
 8755      464F4E54 
 8755      5F545241 
 8755      4E53494E 
 8755      464F00
 8756              	.LASF102:
 8757 059d 4755495F 		.ascii	"GUI_WRAPMODE_WORD\000"
 8757      57524150 
 8757      4D4F4445 
 8757      5F574F52 
 8757      4400
 8758              	.LASF212:
 8759 05af 55415254 		.ascii	"UART_1_GetRxBufferSize\000"
 8759      5F315F47 
 8759      65745278 
 8759      42756666 
 8759      65725369 
 8760              	.LASF247:
 8761 05c6 4C45445F 		.ascii	"LED_1_Read\000"
 8761      315F5265 
 8761      616400
 8762              	.LASF4:
 8763 05d1 6C6F6E67 		.ascii	"long unsigned int\000"
 8763      20756E73 
 8763      69676E65 
 8763      6420696E 
 8763      7400
 8764              	.LASF205:
 8765 05e3 6E756D54 		.ascii	"numTasks\000"
 8765      61736B73 
 8765      00
 8766              	.LASF31:
 8767 05ec 744C4344 		.ascii	"tLCD_APIList\000"
ARM GAS  C:\Users\jaohe\AppData\Local\Temp\ccbQAV2C.s 			page 177


 8767      5F415049 
 8767      4C697374 
 8767      00
 8768              	.LASF139:
 8769 05f9 73746174 		.ascii	"status\000"
 8769      757300
 8770              	.LASF222:
 8771 0600 4A4F5953 		.ascii	"JOYSTICK_D_Read\000"
 8771      5449434B 
 8771      5F445F52 
 8771      65616400 
 8772              	.LASF54:
 8773 0610 4755495F 		.ascii	"GUI_CHARINFO\000"
 8773      43484152 
 8773      494E464F 
 8773      00
 8774              	.LASF251:
 8775 061d 656E6441 		.ascii	"endAlarm\000"
 8775      6C61726D 
 8775      00
 8776              	.LASF253:
 8777 0626 4144435F 		.ascii	"ADC_DelSig_1_GetResult16\000"
 8777      44656C53 
 8777      69675F31 
 8777      5F476574 
 8777      52657375 
 8778              	.LASF201:
 8779 063f 626D6375 		.ascii	"bmcute_mascot_closed\000"
 8779      74655F6D 
 8779      6173636F 
 8779      745F636C 
 8779      6F736564 
 8780              	.LASF190:
 8781 0654 7365676D 		.ascii	"segment\000"
 8781      656E7400 
 8782              	.LASF261:
 8783 065c 7469636B 		.ascii	"tick_isr_StartEx\000"
 8783      5F697372 
 8783      5F537461 
 8783      72744578 
 8783      00
 8784              	.LASF193:
 8785 066d 4D61696E 		.ascii	"MainTask\000"
 8785      5461736B 
 8785      00
 8786              	.LASF170:
 8787 0676 6C696E65 		.ascii	"line\000"
 8787      00
 8788              	.LASF229:
 8789 067b 73707269 		.ascii	"sprintf\000"
 8789      6E746600 
 8790              	.LASF75:
 8791 0683 74475549 		.ascii	"tGUI_GetLineLen\000"
 8791      5F476574 
 8791      4C696E65 
 8791      4C656E00 
 8792              	.LASF157:
ARM GAS  C:\Users\jaohe\AppData\Local\Temp\ccbQAV2C.s 			page 178


 8793 0693 4552524F 		.ascii	"ERROR\000"
 8793      5200
 8794              	.LASF151:
 8795 0699 4D454E55 		.ascii	"MENU\000"
 8795      00
 8796              	.LASF22:
 8797 069e 7066436F 		.ascii	"pfColor2IndexBulk\000"
 8797      6C6F7232 
 8797      496E6465 
 8797      7842756C 
 8797      6B00
 8798              	.LASF175:
 8799 06b0 74696D65 		.ascii	"time_rect\000"
 8799      5F726563 
 8799      7400
 8800              	.LASF182:
 8801 06ba 6E6F7469 		.ascii	"notification\000"
 8801      66696361 
 8801      74696F6E 
 8801      00
 8802              	.LASF272:
 8803 06c7 6932635F 		.ascii	"i2c_status\000"
 8803      73746174 
 8803      757300
 8804              	.LASF231:
 8805 06d2 736E7072 		.ascii	"snprintf\000"
 8805      696E7466 
 8805      00
 8806              	.LASF142:
 8807 06db 54696D65 		.ascii	"TimedTask\000"
 8807      64546173 
 8807      6B00
 8808              	.LASF86:
 8809 06e5 70664765 		.ascii	"pfGetCharInfo\000"
 8809      74436861 
 8809      72496E66 
 8809      6F00
 8810              	.LASF109:
 8811 06f3 6C6F6E67 		.ascii	"long long int\000"
 8811      206C6F6E 
 8811      6720696E 
 8811      7400
 8812              	.LASF270:
 8813 0701 4755495F 		.ascii	"GUI_Init\000"
 8813      496E6974 
 8813      00
 8814              	.LASF177:
 8815 070a 6D696E75 		.ascii	"minutes\000"
 8815      74657300 
 8816              	.LASF219:
 8817 0712 4A4F5953 		.ascii	"JOYSTICK_U_Read\000"
 8817      5449434B 
 8817      5F555F52 
 8817      65616400 
 8818              	.LASF42:
 8819 0722 42697473 		.ascii	"BitsPerPixel\000"
 8819      50657250 
ARM GAS  C:\Users\jaohe\AppData\Local\Temp\ccbQAV2C.s 			page 179


 8819      6978656C 
 8819      00
 8820              	.LASF34:
 8821 072f 4755495F 		.ascii	"GUI_RECT\000"
 8821      52454354 
 8821      00
 8822              	.LASF119:
 8823 0738 646F7562 		.ascii	"double\000"
 8823      6C6500
 8824              	.LASF213:
 8825 073f 4C45445F 		.ascii	"LED_3_Read\000"
 8825      335F5265 
 8825      616400
 8826              	.LASF221:
 8827 074a 44726177 		.ascii	"DrawSelectedListItem\000"
 8827      53656C65 
 8827      63746564 
 8827      4C697374 
 8827      4974656D 
 8828              	.LASF145:
 8829 075f 74696D65 		.ascii	"time_left\000"
 8829      5F6C6566 
 8829      7400
 8830              	.LASF199:
 8831 0769 49544D5F 		.ascii	"ITM_RxBuffer\000"
 8831      52784275 
 8831      66666572 
 8831      00
 8832              	.LASF216:
 8833 0776 4755495F 		.ascii	"GUI_SetColor\000"
 8833      53657443 
 8833      6F6C6F72 
 8833      00
 8834              	.LASF180:
 8835 0783 61635465 		.ascii	"acText\000"
 8835      787400
 8836              	.LASF118:
 8837 078a 666C6F61 		.ascii	"float\000"
 8837      7400
 8838              	.LASF230:
 8839 0790 74696D65 		.ascii	"time_spent\000"
 8839      5F737065 
 8839      6E7400
 8840              	.LASF178:
 8841 079b 7365636F 		.ascii	"seconds\000"
 8841      6E647300 
 8842              	.LASF248:
 8843 07a3 4C45445F 		.ascii	"LED_1_Write\000"
 8843      315F5772 
 8843      69746500 
 8844              	.LASF181:
 8845 07af 636F756E 		.ascii	"count\000"
 8845      7400
 8846              	.LASF128:
 8847 07b5 5461736B 		.ascii	"TaskState\000"
 8847      53746174 
 8847      6500
ARM GAS  C:\Users\jaohe\AppData\Local\Temp\ccbQAV2C.s 			page 180


 8848              	.LASF186:
 8849 07bf 536E6F6F 		.ascii	"Snooze_Btn_Handler\000"
 8849      7A655F42 
 8849      746E5F48 
 8849      616E646C 
 8849      657200
 8850              	.LASF28:
 8851 07d2 70664472 		.ascii	"pfDrawBitmap\000"
 8851      61774269 
 8851      746D6170 
 8851      00
 8852              	.LASF147:
 8853 07df 5461736B 		.ascii	"TaskStats\000"
 8853      53746174 
 8853      7300
 8854              	.LASF1:
 8855 07e9 756E7369 		.ascii	"unsigned int\000"
 8855      676E6564 
 8855      20696E74 
 8855      00
 8856              	.LASF61:
 8857 07f6 46697273 		.ascii	"First\000"
 8857      7400
 8858              	.LASF74:
 8859 07fc 74475549 		.ascii	"tGUI_GetLineDistX\000"
 8859      5F476574 
 8859      4C696E65 
 8859      44697374 
 8859      5800
 8860              	.LASF197:
 8861 080e 4755495F 		.ascii	"GUI_Font8x16x2x2\000"
 8861      466F6E74 
 8861      38783136 
 8861      78327832 
 8861      00
 8862              	.LASF82:
 8863 081f 70664469 		.ascii	"pfDispChar\000"
 8863      73704368 
 8863      617200
 8864              	.LASF179:
 8865 082a 686F6D65 		.ascii	"home\000"
 8865      00
 8866              	.LASF254:
 8867 082f 4755495F 		.ascii	"GUI_Clear\000"
 8867      436C6561 
 8867      7200
 8868              	.LASF68:
 8869 0839 4755495F 		.ascii	"GUI_FONT_MONO\000"
 8869      464F4E54 
 8869      5F4D4F4E 
 8869      4F00
 8870              	.LASF9:
 8871 0847 7050616C 		.ascii	"pPalEntries\000"
 8871      456E7472 
 8871      69657300 
 8872              	.LASF51:
 8873 0853 704C6973 		.ascii	"pList\000"
ARM GAS  C:\Users\jaohe\AppData\Local\Temp\ccbQAV2C.s 			page 181


 8873      7400
 8874              	.LASF153:
 8875 0859 5441534B 		.ascii	"TASK_START\000"
 8875      5F535441 
 8875      525400
 8876              	.LASF76:
 8877 0864 74474C5F 		.ascii	"tGL_DispLine\000"
 8877      44697370 
 8877      4C696E65 
 8877      00
 8878              	.LASF258:
 8879 0871 7469636B 		.ascii	"tick_isr_ClearPending\000"
 8879      5F697372 
 8879      5F436C65 
 8879      61725065 
 8879      6E64696E 
 8880              	.LASF223:
 8881 0887 4A4F5953 		.ascii	"JOYSTICK_M_Read\000"
 8881      5449434B 
 8881      5F4D5F52 
 8881      65616400 
 8882              	.LASF162:
 8883 0897 73656C65 		.ascii	"selected\000"
 8883      63746564 
 8883      00
 8884              	.LASF266:
 8885 08a0 55415254 		.ascii	"UART_1_Init\000"
 8885      5F315F49 
 8885      6E697400 
 8886              	.LASF277:
 8887 08ac 7072696E 		.ascii	"printResponse\000"
 8887      74526573 
 8887      706F6E73 
 8887      6500
 8888              	.LASF167:
 8889 08ba 72656374 		.ascii	"rect\000"
 8889      00
 8890              	.LASF184:
 8891 08bf 7072696E 		.ascii	"print\000"
 8891      7400
 8892              	.LASF220:
 8893 08c5 44726177 		.ascii	"DrawUnselectedListItem\000"
 8893      556E7365 
 8893      6C656374 
 8893      65644C69 
 8893      73744974 
 8894              	.LASF233:
 8895 08dc 55415254 		.ascii	"UART_2_PutString\000"
 8895      5F325F50 
 8895      75745374 
 8895      72696E67 
 8895      00
 8896              	.LASF164:
 8897 08ed 73656E64 		.ascii	"sendCommand\000"
 8897      436F6D6D 
 8897      616E6400 
 8898              	.LASF214:
ARM GAS  C:\Users\jaohe\AppData\Local\Temp\ccbQAV2C.s 			page 182


 8899 08f9 4C45445F 		.ascii	"LED_3_Write\000"
 8899      335F5772 
 8899      69746500 
 8900              	.LASF209:
 8901 0905 55415254 		.ascii	"UART_1_PutString\000"
 8901      5F315F50 
 8901      75745374 
 8901      72696E67 
 8901      00
 8902              	.LASF203:
 8903 0916 7461736B 		.ascii	"tasks\000"
 8903      7300
 8904              	.LASF20:
 8905 091c 70664765 		.ascii	"pfGetIndexMask\000"
 8905      74496E64 
 8905      65784D61 
 8905      736B00
 8906              	.LASF104:
 8907 092b 4755495F 		.ascii	"GUI_WRAPMODE\000"
 8907      57524150 
 8907      4D4F4445 
 8907      00
 8908              	.LASF73:
 8909 0938 4755495F 		.ascii	"GUI_FONTINFO\000"
 8909      464F4E54 
 8909      494E464F 
 8909      00
 8910              	.LASF133:
 8911 0945 44617954 		.ascii	"DayTime\000"
 8911      696D6500 
 8912              	.LASF121:
 8913 094d 63796973 		.ascii	"cyisraddress\000"
 8913      72616464 
 8913      72657373 
 8913      00
 8914              	.LASF105:
 8915 095a 5F5F696E 		.ascii	"__int8_t\000"
 8915      74385F74 
 8915      00
 8916              	.LASF30:
 8917 0963 70665472 		.ascii	"pfTransformRect\000"
 8917      616E7366 
 8917      6F726D52 
 8917      65637400 
 8918              	.LASF15:
 8919 0973 744C4344 		.ascii	"tLCDDEV_GetIndexMask\000"
 8919      4445565F 
 8919      47657449 
 8919      6E646578 
 8919      4D61736B 
 8920              	.LASF0:
 8921 0988 6C6F6E67 		.ascii	"long long unsigned int\000"
 8921      206C6F6E 
 8921      6720756E 
 8921      7369676E 
 8921      65642069 
 8922              	.LASF210:
ARM GAS  C:\Users\jaohe\AppData\Local\Temp\ccbQAV2C.s 			page 183


 8923 099f 43794465 		.ascii	"CyDelay\000"
 8923      6C617900 
 8924              	.LASF112:
 8925 09a7 75696E74 		.ascii	"uint16_t\000"
 8925      31365F74 
 8925      00
 8926              	.LASF194:
 8927 09b0 636F6E66 		.ascii	"configure_rtc_tick\000"
 8927      69677572 
 8927      655F7274 
 8927      635F7469 
 8927      636B00
 8928              	.LASF206:
 8929 09c3 66736D53 		.ascii	"fsmState\000"
 8929      74617465 
 8929      00
 8930              	.LASF17:
 8931 09cc 744C4344 		.ascii	"tLCDDEV_Color2IndexBulk\000"
 8931      4445565F 
 8931      436F6C6F 
 8931      7232496E 
 8931      64657842 
 8932              	.LASF156:
 8933 09e4 5345434F 		.ascii	"SECOND_MOVE\000"
 8933      4E445F4D 
 8933      4F564500 
 8934              	.LASF189:
 8935 09f0 61646352 		.ascii	"adcResult\000"
 8935      6573756C 
 8935      7400
 8936              	.LASF29:
 8937 09fa 70665265 		.ascii	"pfRect2TextRect\000"
 8937      63743254 
 8937      65787452 
 8937      65637400 
 8938              	.LASF91:
 8939 0a0a 4755495F 		.ascii	"GUI_DISPCHAR\000"
 8939      44495350 
 8939      43484152 
 8939      00
 8940              	.LASF3:
 8941 0a17 4C43445F 		.ascii	"LCD_COLOR\000"
 8941      434F4C4F 
 8941      5200
 8942              	.LASF198:
 8943 0a21 4755495F 		.ascii	"GUI_Font8x16_ASCII\000"
 8943      466F6E74 
 8943      38783136 
 8943      5F415343 
 8943      494900
 8944              	.LASF101:
 8945 0a34 4755495F 		.ascii	"GUI_WRAPMODE_NONE\000"
 8945      57524150 
 8945      4D4F4445 
 8945      5F4E4F4E 
 8945      4500
 8946              	.LASF67:
ARM GAS  C:\Users\jaohe\AppData\Local\Temp\ccbQAV2C.s 			page 184


 8947 0a46 70547261 		.ascii	"pTrans\000"
 8947      6E7300
 8948              	.LASF165:
 8949 0a4d 44726177 		.ascii	"DrawButton\000"
 8949      42757474 
 8949      6F6E00
 8950              	.LASF60:
 8951 0a58 4755495F 		.ascii	"GUI_FONT_PROP\000"
 8951      464F4E54 
 8951      5F50524F 
 8951      5000
 8952              	.LASF24:
 8953 0a66 4C43445F 		.ascii	"LCD_API_COLOR_CONV\000"
 8953      4150495F 
 8953      434F4C4F 
 8953      525F434F 
 8953      4E5600
 8954              	.LASF79:
 8955 0a79 70664469 		.ascii	"pfDispLine\000"
 8955      73704C69 
 8955      6E6500
 8956              	.LASF95:
 8957 0a84 4755495F 		.ascii	"GUI_GETCHARINFO\000"
 8957      47455443 
 8957      48415249 
 8957      4E464F00 
 8958              	.LASF224:
 8959 0a94 4755495F 		.ascii	"GUI_FillRect\000"
 8959      46696C6C 
 8959      52656374 
 8959      00
 8960              	.LASF134:
 8961 0aa1 74696D65 		.ascii	"time\000"
 8961      00
 8962              	.LASF90:
 8963 0aa6 594D6167 		.ascii	"YMag\000"
 8963      00
 8964              	.LASF188:
 8965 0aab 7461736B 		.ascii	"task_names\000"
 8965      5F6E616D 
 8965      657300
 8966              	.LASF108:
 8967 0ab6 5F5F696E 		.ascii	"__int32_t\000"
 8967      7433325F 
 8967      7400
 8968              	.LASF78:
 8969 0ac0 70664765 		.ascii	"pfGetLineLen\000"
 8969      744C696E 
 8969      654C656E 
 8969      00
 8970              	.LASF244:
 8971 0acd 55415254 		.ascii	"UART_2_GetRxBufferSize\000"
 8971      5F325F47 
 8971      65745278 
 8971      42756666 
 8971      65725369 
 8972              	.LASF72:
ARM GAS  C:\Users\jaohe\AppData\Local\Temp\ccbQAV2C.s 			page 185


 8973 0ae4 43486569 		.ascii	"CHeight\000"
 8973      67687400 
 8974              	.LASF138:
 8975 0aec 6E616D65 		.ascii	"name\000"
 8975      00
 8976              	.LASF59:
 8977 0af1 744C4344 		.ascii	"tLCD_APIList_struct\000"
 8977      5F415049 
 8977      4C697374 
 8977      5F737472 
 8977      75637400 
 8978              	.LASF114:
 8979 0b05 75696E74 		.ascii	"uint8\000"
 8979      3800
 8980              	.LASF5:
 8981 0b0b 73686F72 		.ascii	"short int\000"
 8981      7420696E 
 8981      7400
 8982              	.LASF80:
 8983 0b15 74475549 		.ascii	"tGUI_ENC_APIList\000"
 8983      5F454E43 
 8983      5F415049 
 8983      4C697374 
 8983      00
 8984              	.LASF122:
 8985 0b26 794F6666 		.ascii	"yOff\000"
 8985      00
 8986              	.LASF141:
 8987 0b2b 74696D65 		.ascii	"time_est\000"
 8987      5F657374 
 8987      00
 8988              	.LASF161:
 8989 0b34 6D656E75 		.ascii	"menu_options\000"
 8989      5F6F7074 
 8989      696F6E73 
 8989      00
 8990              	.LASF234:
 8991 0b41 55415254 		.ascii	"UART_2_PutCRLF\000"
 8991      5F325F50 
 8991      75744352 
 8991      4C4600
 8992              	.LASF81:
 8993 0b50 4755495F 		.ascii	"GUI_FONT\000"
 8993      464F4E54 
 8993      00
 8994              	.LASF62:
 8995 0b59 4C617374 		.ascii	"Last\000"
 8995      00
 8996              	.LASF174:
 8997 0b5e 73797374 		.ascii	"system_start_task\000"
 8997      656D5F73 
 8997      74617274 
 8997      5F746173 
 8997      6B00
 8998              	.LASF56:
 8999 0b70 59506F73 		.ascii	"YPos\000"
 8999      00
ARM GAS  C:\Users\jaohe\AppData\Local\Temp\ccbQAV2C.s 			page 186


 9000              	.LASF262:
 9001 0b75 5377496E 		.ascii	"SwInt_StartEx\000"
 9001      745F5374 
 9001      61727445 
 9001      7800
 9002              	.LASF252:
 9003 0b83 54696D65 		.ascii	"Timer_1_ReadStatusRegister\000"
 9003      725F315F 
 9003      52656164 
 9003      53746174 
 9003      75735265 
 9004              	.LASF99:
 9005 0b9e 7050726F 		.ascii	"pPropExt\000"
 9005      70457874 
 9005      00
 9006              	.LASF235:
 9007 0ba7 464F5257 		.ascii	"FORWARD_BTN_Read\000"
 9007      4152445F 
 9007      42544E5F 
 9007      52656164 
 9007      00
 9008              	.LASF257:
 9009 0bb8 4144435F 		.ascii	"ADC_DelSig_1_IsEndConversion\000"
 9009      44656C53 
 9009      69675F31 
 9009      5F497345 
 9009      6E64436F 
 9010              	.LASF36:
 9011 0bd5 70664472 		.ascii	"pfDrawHW\000"
 9011      61774857 
 9011      00
 9012              	.LASF171:
 9013 0bde 72656374 		.ascii	"rectangle\000"
 9013      616E676C 
 9013      6500
 9014              	.LASF158:
 9015 0be8 72657370 		.ascii	"response\000"
 9015      6F6E7365 
 9015      00
 9016              	.LASF185:
 9017 0bf1 54696D65 		.ascii	"Timer_1_Handler\000"
 9017      725F315F 
 9017      48616E64 
 9017      6C657200 
 9018              	.LASF250:
 9019 0c01 616C6172 		.ascii	"alarmHandler\000"
 9019      6D48616E 
 9019      646C6572 
 9019      00
 9020              	.LASF117:
 9021 0c0e 696E7431 		.ascii	"int16\000"
 9021      3600
 9022              	.LASF96:
 9023 0c14 70466F6E 		.ascii	"pFontData\000"
 9023      74446174 
 9023      6100
 9024              	.LASF83:
ARM GAS  C:\Users\jaohe\AppData\Local\Temp\ccbQAV2C.s 			page 187


 9025 0c1e 70664765 		.ascii	"pfGetCharDistX\000"
 9025      74436861 
 9025      72446973 
 9025      745800
 9026              	.LASF70:
 9027 0c2d 42617365 		.ascii	"Baseline\000"
 9027      6C696E65 
 9027      00
 9028              	.LASF225:
 9029 0c36 4755495F 		.ascii	"GUI_SetFont\000"
 9029      53657446 
 9029      6F6E7400 
 9030              	.LASF150:
 9031 0c42 53637265 		.ascii	"Screens\000"
 9031      656E7300 
 9032              	.LASF38:
 9033 0c4a 4755495F 		.ascii	"GUI_BITMAP_METHODS\000"
 9033      4249544D 
 9033      41505F4D 
 9033      4554484F 
 9033      445300
 9034              	.LASF131:
 9035 0c5d 50415553 		.ascii	"PAUSED\000"
 9035      454400
 9036              	.LASF176:
 9037 0c64 686F7572 		.ascii	"hours\000"
 9037      7300
 9038              	.LASF146:
 9039 0c6a 6F766572 		.ascii	"overtime\000"
 9039      74696D65 
 9039      00
 9040              	.LASF126:
 9041 0c73 494E5F50 		.ascii	"IN_PROGRESS\000"
 9041      524F4752 
 9041      45535300 
 9042              	.LASF152:
 9043 0c7f 484F4D45 		.ascii	"HOME\000"
 9043      00
 9044              	.LASF259:
 9045 0c84 5377496E 		.ascii	"SwInt_ClearPending\000"
 9045      745F436C 
 9045      65617250 
 9045      656E6469 
 9045      6E6700
 9046              	.LASF40:
 9047 0c97 5953697A 		.ascii	"YSize\000"
 9047      6500
 9048              	.LASF135:
 9049 0c9d 69734F6E 		.ascii	"isOn\000"
 9049      00
 9050              	.LASF19:
 9051 0ca2 7066496E 		.ascii	"pfIndex2Color\000"
 9051      64657832 
 9051      436F6C6F 
 9051      7200
 9052              	.LASF275:
 9053 0cb0 2E5C6D61 		.ascii	".\\main.c\000"
ARM GAS  C:\Users\jaohe\AppData\Local\Temp\ccbQAV2C.s 			page 188


 9053      696E2E63 
 9053      00
 9054              	.LASF50:
 9055 0cb9 4C617374 		.ascii	"LastChar\000"
 9055      43686172 
 9055      00
 9056              	.LASF226:
 9057 0cc2 4755495F 		.ascii	"GUI_SetPenSize\000"
 9057      53657450 
 9057      656E5369 
 9057      7A6500
 9058              	.LASF46:
 9059 0cd1 73686F72 		.ascii	"short unsigned int\000"
 9059      7420756E 
 9059      7369676E 
 9059      65642069 
 9059      6E7400
 9060              	.LASF66:
 9061 0ce4 70547261 		.ascii	"pTransData\000"
 9061      6E734461 
 9061      746100
 9062              	.LASF123:
 9063 0cef 44617465 		.ascii	"DateTime\000"
 9063      54696D65 
 9063      00
 9064              	.LASF183:
 9065 0cf8 6D657373 		.ascii	"message\000"
 9065      61676500 
 9066              	.LASF243:
 9067 0d00 4755495F 		.ascii	"GUI_DispStringInRectEx\000"
 9067      44697370 
 9067      53747269 
 9067      6E67496E 
 9067      52656374 
 9068              	.LASF130:
 9069 0d17 4245464F 		.ascii	"BEFORE_TIME\000"
 9069      52455F54 
 9069      494D4500 
 9070              	.LASF166:
 9071 0d23 6C616265 		.ascii	"label\000"
 9071      6C00
 9072              	.LASF41:
 9073 0d29 42797465 		.ascii	"BytesPerLine\000"
 9073      73506572 
 9073      4C696E65 
 9073      00
 9074              	.LASF11:
 9075 0d36 4C43445F 		.ascii	"LCD_LOGPALETTE\000"
 9075      4C4F4750 
 9075      414C4554 
 9075      544500
 9076              	.LASF228:
 9077 0d45 4755495F 		.ascii	"GUI_DispStringInRectWrap\000"
 9077      44697370 
 9077      53747269 
 9077      6E67496E 
 9077      52656374 
ARM GAS  C:\Users\jaohe\AppData\Local\Temp\ccbQAV2C.s 			page 189


 9078              	.LASF47:
 9079 0d5e 4755495F 		.ascii	"GUI_BITMAP\000"
 9079      4249544D 
 9079      415000
 9080              	.LASF240:
 9081 0d69 4C43445F 		.ascii	"LCD_Char_1_Position\000"
 9081      43686172 
 9081      5F315F50 
 9081      6F736974 
 9081      696F6E00 
 9082              	.LASF43:
 9083 0d7d 70446174 		.ascii	"pData\000"
 9083      6100
 9084              	.LASF125:
 9085 0d83 4E4F545F 		.ascii	"NOT_STARTED\000"
 9085      53544152 
 9085      54454400 
 9086              	.LASF202:
 9087 0d8f 616C6172 		.ascii	"alarms\000"
 9087      6D7300
 9088              	.LASF239:
 9089 0d96 55415254 		.ascii	"UART_2_PutChar\000"
 9089      5F325F50 
 9089      75744368 
 9089      617200
 9090              	.LASF255:
 9091 0da5 4144435F 		.ascii	"ADC_DelSig_1_Start\000"
 9091      44656C53 
 9091      69675F31 
 9091      5F537461 
 9091      727400
 9092              	.LASF163:
 9093 0db8 73656E64 		.ascii	"send_2_second\000"
 9093      5F325F73 
 9093      65636F6E 
 9093      6400
 9094              	.LASF115:
 9095 0dc6 75696E74 		.ascii	"uint16\000"
 9095      313600
 9096              	.LASF129:
 9097 0dcd 416C6172 		.ascii	"AlarmState\000"
 9097      6D537461 
 9097      746500
 9098              	.LASF137:
 9099 0dd8 5461736B 		.ascii	"TaskDuration\000"
 9099      44757261 
 9099      74696F6E 
 9099      00
 9100              	.LASF44:
 9101 0de5 7050616C 		.ascii	"pPal\000"
 9101      00
 9102              	.LASF7:
 9103 0dea 4E756D45 		.ascii	"NumEntries\000"
 9103      6E747269 
 9103      657300
 9104              	.LASF208:
 9105 0df5 6973725F 		.ascii	"isr_flag\000"
ARM GAS  C:\Users\jaohe\AppData\Local\Temp\ccbQAV2C.s 			page 190


 9105      666C6167 
 9105      00
 9106              	.LASF264:
 9107 0dfe 5350494D 		.ascii	"SPIM_1_Start\000"
 9107      5F315F53 
 9107      74617274 
 9107      00
 9108              	.LASF13:
 9109 0e0b 744C4344 		.ascii	"tLCDDEV_Index2Color\000"
 9109      4445565F 
 9109      496E6465 
 9109      7832436F 
 9109      6C6F7200 
 9110              		.ident	"GCC: (GNU Tools for ARM Embedded Processors) 4.9.3 20150303 (release) [ARM/embedded-4_9-br
