ARM GAS  C:\Users\jaohe\AppData\Local\Temp\cc0yXn1R.s 			page 1


   1              		.syntax unified
   2              		.cpu cortex-m3
   3              		.fpu softvfp
   4              		.eabi_attribute 20, 1
   5              		.eabi_attribute 21, 1
   6              		.eabi_attribute 23, 3
   7              		.eabi_attribute 24, 1
   8              		.eabi_attribute 25, 1
   9              		.eabi_attribute 26, 1
  10              		.eabi_attribute 30, 1
  11              		.eabi_attribute 34, 1
  12              		.eabi_attribute 18, 4
  13              		.thumb
  14              		.file	"start_menu.c"
  15              		.text
  16              	.Ltext0:
  17              		.cfi_sections	.debug_frame
  18              		.section	.text.mainTask,"ax",%progbits
  19              		.align	2
  20              		.global	mainTask
  21              		.thumb
  22              		.thumb_func
  23              		.type	mainTask, %function
  24              	mainTask:
  25              	.LFB65:
  26              		.file 1 ".\\start_menu.c"
   1:.\start_menu.c **** /* ========================================
   2:.\start_menu.c ****  *
   3:.\start_menu.c ****  * Copyright YOUR COMPANY, THE YEAR
   4:.\start_menu.c ****  * All Rights Reserved
   5:.\start_menu.c ****  * UNPUBLISHED, LICENSED SOFTWARE.
   6:.\start_menu.c ****  *
   7:.\start_menu.c ****  * CONFIDENTIAL AND PROPRIETARY INFORMATION
   8:.\start_menu.c ****  * WHICH IS THE PROPERTY OF your company.
   9:.\start_menu.c ****  *
  10:.\start_menu.c ****  * ========================================
  11:.\start_menu.c **** */
  12:.\start_menu.c **** 
  13:.\start_menu.c **** /* [] END OF FILE */
  14:.\start_menu.c **** 
  15:.\start_menu.c **** #include "GUI.h"
  16:.\start_menu.c **** #include "DIALOG.h"
  17:.\start_menu.c **** #include <project.h>
  18:.\start_menu.c **** #include "tft.h"
  19:.\start_menu.c **** #include "screens.h"
  20:.\start_menu.c **** #include "WM.h"
  21:.\start_menu.c **** // array of strings holding the names of the actions.
  22:.\start_menu.c **** #define NUM_ACTIONS 6
  23:.\start_menu.c **** 
  24:.\start_menu.c **** 
  25:.\start_menu.c **** static int selected = 0;
  26:.\start_menu.c **** char * menuOptions[] = {
  27:.\start_menu.c ****  "Input Task",
  28:.\start_menu.c ****  "Start Task",
  29:.\start_menu.c ****  "Schedule a Task",
  30:.\start_menu.c ****  "View Today's Calendar",
  31:.\start_menu.c ****  "View Metrics"
ARM GAS  C:\Users\jaohe\AppData\Local\Temp\cc0yXn1R.s 			page 2


  32:.\start_menu.c **** };
  33:.\start_menu.c **** 
  34:.\start_menu.c **** int start(){
  35:.\start_menu.c ****     return mainTask();
  36:.\start_menu.c **** }
  37:.\start_menu.c **** 
  38:.\start_menu.c **** static void _cbTaskWindow(WM_MESSAGE* pMsg) {
  39:.\start_menu.c ****     switch (pMsg->MsgId) {
  40:.\start_menu.c ****         case WM_PAINT:
  41:.\start_menu.c ****                 
  42:.\start_menu.c ****             
  43:.\start_menu.c ****             
  44:.\start_menu.c **** //            GUI_SetBkColor(GUI_MAKE_COLOR(COLOR_BG_LIGHT));
  45:.\start_menu.c **** 
  46:.\start_menu.c ****             GUI_SetFont(&GUI_Font16_1);
  47:.\start_menu.c ****             int i;
  48:.\start_menu.c ****             char * string;
  49:.\start_menu.c ****             for (i = 0; i < NUM_ACTIONS; i++) {
  50:.\start_menu.c ****                 string = *(menuOptions + i );
  51:.\start_menu.c ****                 int y = 30 + i * 40;
  52:.\start_menu.c **** 
  53:.\start_menu.c ****                 if (i == selected) {
  54:.\start_menu.c ****                     GUI_SetColor(GUI_MAKE_COLOR(COLOR_ACCENT_PURPLE));
  55:.\start_menu.c ****                     GUI_FillRect(10, y - 5, 230, y + 25);
  56:.\start_menu.c ****                     GUI_SetColor(GUI_WHITE);
  57:.\start_menu.c ****                 } else {
  58:.\start_menu.c ****                     GUI_SetColor(GUI_MAKE_COLOR(COLOR_ACCENT_PURPLE));
  59:.\start_menu.c ****                     GUI_FillRect(10, y - 5, 230, y + 25);
  60:.\start_menu.c ****                     GUI_SetColor(GUI_MAKE_COLOR(COLOR_TEXT_PRIMARY));
  61:.\start_menu.c ****                 }
  62:.\start_menu.c ****                 
  63:.\start_menu.c ****                 GUI_DispStringAt(string, 20, y);
  64:.\start_menu.c ****             }
  65:.\start_menu.c ****             break;
  66:.\start_menu.c ****         default:
  67:.\start_menu.c ****             
  68:.\start_menu.c **** //            GUI_SetBkColor(GUI_MAKE_COLOR(COLOR_BG_LIGHT));
  69:.\start_menu.c **** 
  70:.\start_menu.c ****             GUI_SetFont(&GUI_Font16_1);
  71:.\start_menu.c ****             
  72:.\start_menu.c ****             for (i = 0; i < NUM_ACTIONS; i++) {
  73:.\start_menu.c ****                 string = *(menuOptions + i );
  74:.\start_menu.c ****                 int y = 30 + i * 40;
  75:.\start_menu.c **** 
  76:.\start_menu.c ****                 if (i == selected) {
  77:.\start_menu.c ****                     GUI_SetColor(GUI_MAKE_COLOR(COLOR_ACCENT_PURPLE));
  78:.\start_menu.c ****                     GUI_FillRect(10, y - 5, 230, y + 25);
  79:.\start_menu.c ****                     GUI_SetColor(GUI_WHITE);
  80:.\start_menu.c ****                 } else {
  81:.\start_menu.c ****                     GUI_SetColor(GUI_MAKE_COLOR(COLOR_ACCENT_PURPLE));
  82:.\start_menu.c ****                     GUI_FillRect(10, y - 5, 230, y + 25);
  83:.\start_menu.c ****                     GUI_SetColor(GUI_MAKE_COLOR(COLOR_TEXT_PRIMARY));
  84:.\start_menu.c ****                 }
  85:.\start_menu.c ****                 
  86:.\start_menu.c ****                 GUI_DispStringAt(string, 20, y);
  87:.\start_menu.c ****             }
  88:.\start_menu.c ****             break;
ARM GAS  C:\Users\jaohe\AppData\Local\Temp\cc0yXn1R.s 			page 3


  89:.\start_menu.c ****     }
  90:.\start_menu.c **** }
  91:.\start_menu.c **** //GUI_DispStringHCenterAt("Start Screen \nshows how to use a WINDOW widget", CENTERX, 5)
  92:.\start_menu.c **** 
  93:.\start_menu.c **** static uint16 adcResult = 0;
  94:.\start_menu.c **** 
  95:.\start_menu.c **** static WM_HWIN hWin;
  96:.\start_menu.c **** int mainTask(void) {
  27              		.loc 1 96 0
  28              		.cfi_startproc
  29              		@ args = 0, pretend = 0, frame = 0
  30              		@ frame_needed = 0, uses_anonymous_args = 0
  31 0000 10B5     		push	{r4, lr}
  32              		.cfi_def_cfa_offset 8
  33              		.cfi_offset 4, -8
  34              		.cfi_offset 14, -4
  97:.\start_menu.c ****     
  98:.\start_menu.c ****     GUI_Clear();
  35              		.loc 1 98 0
  36 0002 FFF7FEFF 		bl	GUI_Clear
  37              	.LVL0:
  99:.\start_menu.c ****     
 100:.\start_menu.c ****     GUI_SetFont(&GUI_Font8x16);
  38              		.loc 1 100 0
  39 0006 2C4C     		ldr	r4, .L13
  40 0008 2046     		mov	r0, r4
  41 000a FFF7FEFF 		bl	GUI_SetFont
  42              	.LVL1:
 101:.\start_menu.c ****     GUI_SetColor(GUI_MAKE_COLOR(COLOR_TEXT_PRIMARY));
  43              		.loc 1 101 0
  44 000e 2B48     		ldr	r0, .L13+4
  45 0010 FFF7FEFF 		bl	GUI_SetColor
  46              	.LVL2:
 102:.\start_menu.c ****     GUI_DispStringHCenterAt("Start Menu", CENTERX, 5);
  47              		.loc 1 102 0
  48 0014 2A48     		ldr	r0, .L13+8
  49 0016 7821     		movs	r1, #120
  50 0018 0522     		movs	r2, #5
  51 001a FFF7FEFF 		bl	GUI_DispStringHCenterAt
  52              	.LVL3:
 103:.\start_menu.c ****     CyDelay(500);
  53              		.loc 1 103 0
  54 001e 4FF4FA70 		mov	r0, #500
  55 0022 FFF7FEFF 		bl	CyDelay
  56              	.LVL4:
 104:.\start_menu.c ****     GUI_SetFont(&GUI_Font8x16);
  57              		.loc 1 104 0
  58 0026 2046     		mov	r0, r4
  59 0028 FFF7FEFF 		bl	GUI_SetFont
  60              	.LVL5:
 105:.\start_menu.c ****     GUI_DispStringHCenterAt("Select Function", CENTERX, 30);
  61              		.loc 1 105 0
  62 002c 2548     		ldr	r0, .L13+12
  63 002e 7821     		movs	r1, #120
  64 0030 1E22     		movs	r2, #30
  65 0032 FFF7FEFF 		bl	GUI_DispStringHCenterAt
  66              	.LVL6:
ARM GAS  C:\Users\jaohe\AppData\Local\Temp\cc0yXn1R.s 			page 4


 106:.\start_menu.c ****     //hWin = WM_CreateWindow(0, 30, 240, 300, WM_CF_SHOW, _cbTaskWindow, 0);
 107:.\start_menu.c **** 
 108:.\start_menu.c ****     //WM_SetCreateFlags(WM_CF_MEMDEV);  // For smooth redraws
 109:.\start_menu.c ****     
 110:.\start_menu.c **** 
 111:.\start_menu.c ****     ADC_DelSig_1_Start();				// start the ADC_DelSig_1
  67              		.loc 1 111 0
  68 0036 FFF7FEFF 		bl	ADC_DelSig_1_Start
  69              	.LVL7:
 112:.\start_menu.c **** 	ADC_DelSig_1_StartConvert();		// start the ADC_DelSig_1 conversion
  70              		.loc 1 112 0
  71 003a FFF7FEFF 		bl	ADC_DelSig_1_StartConvert
  72              	.LVL8:
  73              	.L5:
 113:.\start_menu.c ****     
 114:.\start_menu.c **** 
 115:.\start_menu.c ****   
 116:.\start_menu.c ****    
 117:.\start_menu.c ****    
 118:.\start_menu.c ****    while(1){
 119:.\start_menu.c ****        if( BACK_BTN_Read() == 0){
  74              		.loc 1 119 0
  75 003e FFF7FEFF 		bl	BACK_BTN_Read
  76              	.LVL9:
  77 0042 0028     		cmp	r0, #0
  78 0044 34D0     		beq	.L9
 120:.\start_menu.c ****                 return HOME;								// delay in milliseconds
 121:.\start_menu.c ****         }
 122:.\start_menu.c ****         if(FORWARD_BTN_Read() == 0){
  79              		.loc 1 122 0
  80 0046 FFF7FEFF 		bl	FORWARD_BTN_Read
  81              	.LVL10:
  82 004a 28B9     		cbnz	r0, .L3
 123:.\start_menu.c ****             switch(selected){
  83              		.loc 1 123 0
  84 004c 1E4B     		ldr	r3, .L13+16
  85 004e 1B68     		ldr	r3, [r3]
  86 0050 012B     		cmp	r3, #1
  87 0052 2FD1     		bne	.L11
 124:.\start_menu.c ****                 case 1:
 125:.\start_menu.c ****                     return TASK_START;
  88              		.loc 1 125 0
  89 0054 0220     		movs	r0, #2
  90 0056 10BD     		pop	{r4, pc}
  91              	.L3:
 126:.\start_menu.c ****                 // need to add the other functionalities
 127:.\start_menu.c ****                 default:
 128:.\start_menu.c ****                     return HOME;
 129:.\start_menu.c ****             }
 130:.\start_menu.c ****             
 131:.\start_menu.c ****         }
 132:.\start_menu.c ****        if( ADC_DelSig_1_IsEndConversion(ADC_DelSig_1_WAIT_FOR_RESULT) )
  92              		.loc 1 132 0
  93 0058 0020     		movs	r0, #0
  94 005a FFF7FEFF 		bl	ADC_DelSig_1_IsEndConversion
  95              	.LVL11:
  96 005e 0028     		cmp	r0, #0
ARM GAS  C:\Users\jaohe\AppData\Local\Temp\cc0yXn1R.s 			page 5


  97 0060 EDD0     		beq	.L5
  98              	.LBB2:
 133:.\start_menu.c **** 		{
 134:.\start_menu.c ****             
 135:.\start_menu.c **** 			
 136:.\start_menu.c **** 			adcResult = ADC_DelSig_1_GetResult16();		// read the adc and assign the value adcResult 
  99              		.loc 1 136 0
 100 0062 FFF7FEFF 		bl	ADC_DelSig_1_GetResult16
 101              	.LVL12:
 102 0066 83B2     		uxth	r3, r0
 103 0068 174A     		ldr	r2, .L13+16
 104 006a 9380     		strh	r3, [r2, #4]	@ movhi
 137:.\start_menu.c ****        		if (adcResult & 0x8000)
 105              		.loc 1 137 0
 106 006c 0028     		cmp	r0, #0
 107 006e 03DA     		bge	.L6
 138:.\start_menu.c ****        		{
 139:.\start_menu.c ****         		adcResult = 0;       // ignore negative ADC results
 108              		.loc 1 139 0
 109 0070 0022     		movs	r2, #0
 110 0072 154B     		ldr	r3, .L13+16
 111 0074 9A80     		strh	r2, [r3, #4]	@ movhi
 112 0076 07E0     		b	.L7
 113              	.L6:
 140:.\start_menu.c ****        		}
 141:.\start_menu.c ****        		else if (adcResult >= 0xfff)
 114              		.loc 1 141 0
 115 0078 40F6FE72 		movw	r2, #4094
 116 007c 9342     		cmp	r3, r2
 117 007e 03D9     		bls	.L7
 142:.\start_menu.c ****        		{
 143:.\start_menu.c ****         		adcResult = 0xfff;      // ignore high ADC results
 118              		.loc 1 143 0
 119 0080 40F6FF72 		movw	r2, #4095
 120 0084 104B     		ldr	r3, .L13+16
 121 0086 9A80     		strh	r2, [r3, #4]	@ movhi
 122              	.L7:
 144:.\start_menu.c ****        		}
 145:.\start_menu.c ****             selected = adcResult / NUM_ACTIONS; // Assuming ADC value is between 0 and 4095
 123              		.loc 1 145 0
 124 0088 0F4A     		ldr	r2, .L13+16
 125 008a 9388     		ldrh	r3, [r2, #4]
 126 008c 0F49     		ldr	r1, .L13+20
 127 008e A1FB0313 		umull	r1, r3, r1, r3
 128 0092 9B08     		lsrs	r3, r3, #2
 129 0094 1360     		str	r3, [r2]
 146:.\start_menu.c ****             char * selectedAction = menuOptions[selected];
 130              		.loc 1 146 0
 131 0096 0E4A     		ldr	r2, .L13+24
 132 0098 52F82340 		ldr	r4, [r2, r3, lsl #2]
 133              	.LVL13:
 147:.\start_menu.c **** 
 148:.\start_menu.c ****             GUI_SetFont(GUI_FONT_13_1); 
 134              		.loc 1 148 0
 135 009c 0D48     		ldr	r0, .L13+28
 136 009e FFF7FEFF 		bl	GUI_SetFont
 137              	.LVL14:
ARM GAS  C:\Users\jaohe\AppData\Local\Temp\cc0yXn1R.s 			page 6


 149:.\start_menu.c ****             GUI_DispStringHCenterAt(selectedAction, CENTERX, 340); // Display the status below the 
 138              		.loc 1 149 0
 139 00a2 2046     		mov	r0, r4
 140 00a4 7821     		movs	r1, #120
 141 00a6 4FF4AA72 		mov	r2, #340
 142 00aa FFF7FEFF 		bl	GUI_DispStringHCenterAt
 143              	.LVL15:
 144 00ae C6E7     		b	.L5
 145              	.LVL16:
 146              	.L9:
 147              	.LBE2:
 120:.\start_menu.c ****         }
 148              		.loc 1 120 0
 149 00b0 0120     		movs	r0, #1
 150 00b2 10BD     		pop	{r4, pc}
 151              	.L11:
 128:.\start_menu.c ****             }
 152              		.loc 1 128 0
 153 00b4 0120     		movs	r0, #1
 150:.\start_menu.c ****             
 151:.\start_menu.c ****         }
 152:.\start_menu.c ****     
 153:.\start_menu.c ****    }
 154:.\start_menu.c ****    error("Error in start.c");
 155:.\start_menu.c ****    return ERROR;
 156:.\start_menu.c ****     
 157:.\start_menu.c **** }...
 154              		.loc 1 157 0
 155 00b6 10BD     		pop	{r4, pc}
 156              	.L14:
 157              		.align	2
 158              	.L13:
 159 00b8 00000000 		.word	GUI_Font8x16
 160 00bc 25141800 		.word	1578021
 161 00c0 00000000 		.word	.LC0
 162 00c4 0C000000 		.word	.LC1
 163 00c8 00000000 		.word	.LANCHOR0
 164 00cc ABAAAAAA 		.word	-1431655765
 165 00d0 00000000 		.word	.LANCHOR1
 166 00d4 00000000 		.word	GUI_Font13_1
 167              		.cfi_endproc
 168              	.LFE65:
 169              		.size	mainTask, .-mainTask
 170              		.section	.text.start,"ax",%progbits
 171              		.align	2
 172              		.global	start
 173              		.thumb
 174              		.thumb_func
 175              		.type	start, %function
 176              	start:
 177              	.LFB63:
  34:.\start_menu.c **** int start(){
 178              		.loc 1 34 0
 179              		.cfi_startproc
 180              		@ args = 0, pretend = 0, frame = 0
 181              		@ frame_needed = 0, uses_anonymous_args = 0
 182 0000 08B5     		push	{r3, lr}
ARM GAS  C:\Users\jaohe\AppData\Local\Temp\cc0yXn1R.s 			page 7


 183              		.cfi_def_cfa_offset 8
 184              		.cfi_offset 3, -8
 185              		.cfi_offset 14, -4
  35:.\start_menu.c ****     return mainTask();
 186              		.loc 1 35 0
 187 0002 FFF7FEFF 		bl	mainTask
 188              	.LVL17:
  36:.\start_menu.c **** }
 189              		.loc 1 36 0
 190 0006 08BD     		pop	{r3, pc}
 191              		.cfi_endproc
 192              	.LFE63:
 193              		.size	start, .-start
 194              		.global	menuOptions
 195              		.data
 196              		.align	2
 197              		.set	.LANCHOR1,. + 0
 198              		.type	menuOptions, %object
 199              		.size	menuOptions, 20
 200              	menuOptions:
 201 0000 1C000000 		.word	.LC2
 202 0004 28000000 		.word	.LC3
 203 0008 34000000 		.word	.LC4
 204 000c 44000000 		.word	.LC5
 205 0010 5C000000 		.word	.LC6
 206              		.section	.rodata.str1.4,"aMS",%progbits,1
 207              		.align	2
 208              	.LC0:
 209 0000 53746172 		.ascii	"Start Menu\000"
 209      74204D65 
 209      6E7500
 210 000b 00       		.space	1
 211              	.LC1:
 212 000c 53656C65 		.ascii	"Select Function\000"
 212      63742046 
 212      756E6374 
 212      696F6E00 
 213              	.LC2:
 214 001c 496E7075 		.ascii	"Input Task\000"
 214      74205461 
 214      736B00
 215 0027 00       		.space	1
 216              	.LC3:
 217 0028 53746172 		.ascii	"Start Task\000"
 217      74205461 
 217      736B00
 218 0033 00       		.space	1
 219              	.LC4:
 220 0034 53636865 		.ascii	"Schedule a Task\000"
 220      64756C65 
 220      20612054 
 220      61736B00 
 221              	.LC5:
 222 0044 56696577 		.ascii	"View Today's Calendar\000"
 222      20546F64 
 222      61792773 
 222      2043616C 
ARM GAS  C:\Users\jaohe\AppData\Local\Temp\cc0yXn1R.s 			page 8


 222      656E6461 
 223 005a 0000     		.space	2
 224              	.LC6:
 225 005c 56696577 		.ascii	"View Metrics\000"
 225      204D6574 
 225      72696373 
 225      00
 226 0069 000000   		.bss
 227              		.align	2
 228              		.set	.LANCHOR0,. + 0
 229              		.type	selected, %object
 230              		.size	selected, 4
 231              	selected:
 232 0000 00000000 		.space	4
 233              		.type	adcResult, %object
 234              		.size	adcResult, 2
 235              	adcResult:
 236 0004 0000     		.space	2
 237 0006 0000     		.text
 238              	.Letext0:
 239              		.file 2 "..\\..\\emWinGraphics_v5_46\\Code\\Include\\PSoC4_5/LCD.h"
 240              		.file 3 "..\\..\\emWinGraphics_v5_46\\Code\\Include\\PSoC4_5/GUI_Type.h"
 241              		.file 4 "c:\\program files (x86)\\cypress\\psoc creator\\3.3\\psoc creator\\import\\gnu\\arm\\4.9.
 242              		.file 5 "c:\\program files (x86)\\cypress\\psoc creator\\3.3\\psoc creator\\import\\gnu\\arm\\4.9.
 243              		.file 6 "Generated_Source\\PSoC5/cytypes.h"
 244              		.file 7 "..\\..\\emWinGraphics_v5_46\\Code\\Include\\PSoC4_5/GUI.h"
 245              		.file 8 "Generated_Source\\PSoC5/core_cm3.h"
 246              		.file 9 "Generated_Source\\PSoC5/CyLib.h"
 247              		.file 10 "Generated_Source\\PSoC5/ADC_DelSig_1.h"
 248              		.file 11 "Generated_Source\\PSoC5/BACK_BTN.h"
 249              		.file 12 "Generated_Source\\PSoC5/FORWARD_BTN.h"
 250              		.file 13 ".\\screens.h"