ARM GAS  C:\Users\jaohe\AppData\Local\Temp\ccmD3t9X.s 			page 1


   1              		.syntax unified
   2              		.cpu cortex-m3
   3              		.fpu softvfp
   4              		.eabi_attribute 20, 1
   5              		.eabi_attribute 21, 1
   6              		.eabi_attribute 23, 3
   7              		.eabi_attribute 24, 1
   8              		.eabi_attribute 25, 1
   9              		.eabi_attribute 26, 1
  10              		.eabi_attribute 30, 1
  11              		.eabi_attribute 34, 1
  12              		.eabi_attribute 18, 4
  13              		.thumb
  14              		.file	"start.c"
  15              		.text
  16              	.Ltext0:
  17              		.cfi_sections	.debug_frame
  18              		.section	.text.mainTask,"ax",%progbits
  19              		.align	2
  20              		.global	mainTask
  21              		.thumb
  22              		.thumb_func
  23              		.type	mainTask, %function
  24              	mainTask:
  25              	.LFB64:
  26              		.file 1 ".\\start.c"
   1:.\start.c     **** /* ========================================
   2:.\start.c     ****  *
   3:.\start.c     ****  * Copyright YOUR COMPANY, THE YEAR
   4:.\start.c     ****  * All Rights Reserved
   5:.\start.c     ****  * UNPUBLISHED, LICENSED SOFTWARE.
   6:.\start.c     ****  *
   7:.\start.c     ****  * CONFIDENTIAL AND PROPRIETARY INFORMATION
   8:.\start.c     ****  * WHICH IS THE PROPERTY OF your company.
   9:.\start.c     ****  *
  10:.\start.c     ****  * ========================================
  11:.\start.c     **** */
  12:.\start.c     **** 
  13:.\start.c     **** /* [] END OF FILE */
  14:.\start.c     **** 
  15:.\start.c     **** #include "GUI.h"
  16:.\start.c     **** #include "DIALOG.h"
  17:.\start.c     **** #include <project.h>
  18:.\start.c     **** #include "tft.h"
  19:.\start.c     **** #include "screens.h"
  20:.\start.c     **** #include "WM.h"
  21:.\start.c     **** int mainTask(void);
  22:.\start.c     **** int start(){
  23:.\start.c     ****     return mainTask();
  24:.\start.c     **** }
  25:.\start.c     **** //GUI_DispStringHCenterAt("Start Screen \nshows how to use a WINDOW widget", CENTERX, 5)
  26:.\start.c     **** 
  27:.\start.c     **** 
  28:.\start.c     **** int mainTask(void) {
  27              		.loc 1 28 0
  28              		.cfi_startproc
  29              		@ args = 0, pretend = 0, frame = 0
ARM GAS  C:\Users\jaohe\AppData\Local\Temp\ccmD3t9X.s 			page 2


  30              		@ frame_needed = 0, uses_anonymous_args = 0
  31 0000 08B5     		push	{r3, lr}
  32              		.cfi_def_cfa_offset 8
  33              		.cfi_offset 3, -8
  34              		.cfi_offset 14, -4
  29:.\start.c     **** 
  30:.\start.c     ****  GUI_Init();
  35              		.loc 1 30 0
  36 0002 FFF7FEFF 		bl	GUI_Init
  37              	.LVL0:
  31:.\start.c     ****  //WM_SetDesktopColor(GUI_BLACK);
  32:.\start.c     ****     GUI_DispStringHCenterAt("Start Screen \n Welcome to PEPE\n\n Productivity Assistant", CENTERX, 
  38              		.loc 1 32 0
  39 0006 0D48     		ldr	r0, .L5
  40 0008 7821     		movs	r1, #120
  41 000a 0522     		movs	r2, #5
  42 000c FFF7FEFF 		bl	GUI_DispStringHCenterAt
  43              	.LVL1:
  44              	.L3:
  33:.\start.c     **** 
  34:.\start.c     ****     while (1) {
  35:.\start.c     ****         
  36:.\start.c     ****         if (FORWARD_BTN_Read() == 0 || BACK_BTN_Read() == 0){
  45              		.loc 1 36 0
  46 0010 FFF7FEFF 		bl	FORWARD_BTN_Read
  47              	.LVL2:
  48 0014 18B1     		cbz	r0, .L2
  49              		.loc 1 36 0 is_stmt 0 discriminator 1
  50 0016 FFF7FEFF 		bl	BACK_BTN_Read
  51              	.LVL3:
  52 001a 0028     		cmp	r0, #0
  53 001c F8D1     		bne	.L3
  54              	.L2:
  37:.\start.c     ****             GUI_Clear();
  55              		.loc 1 37 0 is_stmt 1
  56 001e FFF7FEFF 		bl	GUI_Clear
  57              	.LVL4:
  38:.\start.c     ****             GUI_DispStringHCenterAt("Dialog has been closed", CENTERX, 5);
  58              		.loc 1 38 0
  59 0022 0748     		ldr	r0, .L5+4
  60 0024 7821     		movs	r1, #120
  61 0026 0522     		movs	r2, #5
  62 0028 FFF7FEFF 		bl	GUI_DispStringHCenterAt
  63              	.LVL5:
  39:.\start.c     ****             GUI_Delay(1000);
  64              		.loc 1 39 0
  65 002c 4FF47A70 		mov	r0, #1000
  66 0030 FFF7FEFF 		bl	GUI_Delay
  67              	.LVL6:
  40:.\start.c     ****             GUI_Clear();
  68              		.loc 1 40 0
  69 0034 FFF7FEFF 		bl	GUI_Clear
  70              	.LVL7:
  41:.\start.c     ****             return HOME;
  42:.\start.c     ****         }
  43:.\start.c     ****         
  44:.\start.c     **** 
ARM GAS  C:\Users\jaohe\AppData\Local\Temp\ccmD3t9X.s 			page 3


  45:.\start.c     ****     }
  46:.\start.c     ****     error("Error in start.c");
  47:.\start.c     ****     return ERROR;
  48:.\start.c     **** }
  71              		.loc 1 48 0
  72 0038 0120     		movs	r0, #1
  73 003a 08BD     		pop	{r3, pc}
  74              	.L6:
  75              		.align	2
  76              	.L5:
  77 003c 00000000 		.word	.LC0
  78 0040 38000000 		.word	.LC1
  79              		.cfi_endproc
  80              	.LFE64:
  81              		.size	mainTask, .-mainTask
  82              		.section	.text.start,"ax",%progbits
  83              		.align	2
  84              		.global	start
  85              		.thumb
  86              		.thumb_func
  87              		.type	start, %function
  88              	start:
  89              	.LFB63:
  22:.\start.c     ****     return mainTask();
  90              		.loc 1 22 0
  91              		.cfi_startproc
  92              		@ args = 0, pretend = 0, frame = 0
  93              		@ frame_needed = 0, uses_anonymous_args = 0
  94 0000 08B5     		push	{r3, lr}
  95              		.cfi_def_cfa_offset 8
  96              		.cfi_offset 3, -8
  97              		.cfi_offset 14, -4
  23:.\start.c     **** }
  98              		.loc 1 23 0
  99 0002 FFF7FEFF 		bl	mainTask
 100              	.LVL8:
  24:.\start.c     **** //GUI_DispStringHCenterAt("Start Screen \nshows how to use a WINDOW widget", CENTERX, 5)
 101              		.loc 1 24 0
 102 0006 08BD     		pop	{r3, pc}
 103              		.cfi_endproc
 104              	.LFE63:
 105              		.size	start, .-start
 106              		.section	.rodata.str1.4,"aMS",%progbits,1
 107              		.align	2
 108              	.LC0:
 109 0000 53746172 		.ascii	"Start Screen \012 Welcome to PEPE\012\012 Productiv"
 109      74205363 
 109      7265656E 
 109      200A2057 
 109      656C636F 
 110 002a 69747920 		.ascii	"ity Assistant\000"
 110      41737369 
 110      7374616E 
 110      7400
 111              	.LC1:
 112 0038 4469616C 		.ascii	"Dialog has been closed\000"
 112      6F672068 
ARM GAS  C:\Users\jaohe\AppData\Local\Temp\ccmD3t9X.s 			page 4


 112      61732062 
 112      65656E20 
 112      636C6F73 
 113 004f 00       		.text
 114              	.Letext0:
 115              		.file 2 "c:\\program files (x86)\\cypress\\psoc creator\\3.3\\psoc creator\\import\\gnu\\arm\\4.9.
 116              		.file 3 "c:\\program files (x86)\\cypress\\psoc creator\\3.3\\psoc creator\\import\\gnu\\arm\\4.9.
 117              		.file 4 "Generated_Source\\PSoC5/cytypes.h"
 118              		.file 5 "..\\..\\emWinGraphics_v5_46\\Code\\Include\\PSoC4_5/GUI.h"
 119              		.file 6 "Generated_Source\\PSoC5/FORWARD_BTN.h"
 120              		.file 7 "Generated_Source\\PSoC5/BACK_BTN.h"
 121              		.file 8 ".\\screens.h"
 122              		.file 9 "Generated_Source\\PSoC5/core_cm3.h"