ARM GAS  C:\Users\jaohe\AppData\Local\Temp\ccDqxAFX.s 			page 1


   1              		.syntax unified
   2              		.cpu cortex-m3
   3              		.fpu softvfp
   4              		.eabi_attribute 20, 1
   5              		.eabi_attribute 21, 1
   6              		.eabi_attribute 23, 3
   7              		.eabi_attribute 24, 1
   8              		.eabi_attribute 25, 1
   9              		.eabi_attribute 26, 1
  10              		.eabi_attribute 30, 1
  11              		.eabi_attribute 34, 1
  12              		.eabi_attribute 18, 4
  13              		.thumb
  14              		.file	"Switches.c"
  15              		.text
  16              	.Ltext0:
  17              		.cfi_sections	.debug_frame
  18              		.section	.text.Switches_Write,"ax",%progbits
  19              		.align	2
  20              		.global	Switches_Write
  21              		.thumb
  22              		.thumb_func
  23              		.type	Switches_Write, %function
  24              	Switches_Write:
  25              	.LFB0:
  26              		.file 1 ".\\Generated_Source\\PSoC5\\Switches.c"
   1:.\Generated_Source\PSoC5/Switches.c **** /*******************************************************************************
   2:.\Generated_Source\PSoC5/Switches.c **** * File Name: Switches.c  
   3:.\Generated_Source\PSoC5/Switches.c **** * Version 2.20
   4:.\Generated_Source\PSoC5/Switches.c **** *
   5:.\Generated_Source\PSoC5/Switches.c **** * Description:
   6:.\Generated_Source\PSoC5/Switches.c **** *  This file contains API to enable firmware control of a Pins component.
   7:.\Generated_Source\PSoC5/Switches.c **** *
   8:.\Generated_Source\PSoC5/Switches.c **** * Note:
   9:.\Generated_Source\PSoC5/Switches.c **** *
  10:.\Generated_Source\PSoC5/Switches.c **** ********************************************************************************
  11:.\Generated_Source\PSoC5/Switches.c **** * Copyright 2008-2015, Cypress Semiconductor Corporation.  All rights reserved.
  12:.\Generated_Source\PSoC5/Switches.c **** * You may use this file only in accordance with the license, terms, conditions, 
  13:.\Generated_Source\PSoC5/Switches.c **** * disclaimers, and limitations in the end user license agreement accompanying 
  14:.\Generated_Source\PSoC5/Switches.c **** * the software package with which this file was provided.
  15:.\Generated_Source\PSoC5/Switches.c **** *******************************************************************************/
  16:.\Generated_Source\PSoC5/Switches.c **** 
  17:.\Generated_Source\PSoC5/Switches.c **** #include "cytypes.h"
  18:.\Generated_Source\PSoC5/Switches.c **** #include "Switches.h"
  19:.\Generated_Source\PSoC5/Switches.c **** 
  20:.\Generated_Source\PSoC5/Switches.c **** /* APIs are not generated for P15[7:6] on PSoC 5 */
  21:.\Generated_Source\PSoC5/Switches.c **** #if !(CY_PSOC5A &&\
  22:.\Generated_Source\PSoC5/Switches.c **** 	 Switches__PORT == 15 && ((Switches__MASK & 0xC0) != 0))
  23:.\Generated_Source\PSoC5/Switches.c **** 
  24:.\Generated_Source\PSoC5/Switches.c **** 
  25:.\Generated_Source\PSoC5/Switches.c **** /*******************************************************************************
  26:.\Generated_Source\PSoC5/Switches.c **** * Function Name: Switches_Write
  27:.\Generated_Source\PSoC5/Switches.c **** ****************************************************************************//**
  28:.\Generated_Source\PSoC5/Switches.c **** *
  29:.\Generated_Source\PSoC5/Switches.c **** * \brief Writes the value to the physical port (data output register), masking
  30:.\Generated_Source\PSoC5/Switches.c **** *  and shifting the bits appropriately. 
  31:.\Generated_Source\PSoC5/Switches.c **** *
ARM GAS  C:\Users\jaohe\AppData\Local\Temp\ccDqxAFX.s 			page 2


  32:.\Generated_Source\PSoC5/Switches.c **** * The data output register controls the signal applied to the physical pin in 
  33:.\Generated_Source\PSoC5/Switches.c **** * conjunction with the drive mode parameter. This function avoids changing 
  34:.\Generated_Source\PSoC5/Switches.c **** * other bits in the port by using the appropriate method (read-modify-write or
  35:.\Generated_Source\PSoC5/Switches.c **** * bit banding).
  36:.\Generated_Source\PSoC5/Switches.c **** *
  37:.\Generated_Source\PSoC5/Switches.c **** * <b>Note</b> This function should not be used on a hardware digital output pin 
  38:.\Generated_Source\PSoC5/Switches.c **** * as it is driven by the hardware signal attached to it.
  39:.\Generated_Source\PSoC5/Switches.c **** *
  40:.\Generated_Source\PSoC5/Switches.c **** * \param value
  41:.\Generated_Source\PSoC5/Switches.c **** *  Value to write to the component instance.
  42:.\Generated_Source\PSoC5/Switches.c **** *
  43:.\Generated_Source\PSoC5/Switches.c **** * \return 
  44:.\Generated_Source\PSoC5/Switches.c **** *  None 
  45:.\Generated_Source\PSoC5/Switches.c **** *
  46:.\Generated_Source\PSoC5/Switches.c **** * \sideeffect
  47:.\Generated_Source\PSoC5/Switches.c **** *  If you use read-modify-write operations that are not atomic; the Interrupt 
  48:.\Generated_Source\PSoC5/Switches.c **** *  Service Routines (ISR) can cause corruption of this function. An ISR that 
  49:.\Generated_Source\PSoC5/Switches.c **** *  interrupts this function and performs writes to the Pins component data 
  50:.\Generated_Source\PSoC5/Switches.c **** *  register can cause corrupted port data. To avoid this issue, you should 
  51:.\Generated_Source\PSoC5/Switches.c **** *  either use the Per-Pin APIs (primary method) or disable interrupts around 
  52:.\Generated_Source\PSoC5/Switches.c **** *  this function.
  53:.\Generated_Source\PSoC5/Switches.c **** *
  54:.\Generated_Source\PSoC5/Switches.c **** * \funcusage
  55:.\Generated_Source\PSoC5/Switches.c **** *  \snippet Switches_SUT.c usage_Switches_Write
  56:.\Generated_Source\PSoC5/Switches.c **** *******************************************************************************/
  57:.\Generated_Source\PSoC5/Switches.c **** void Switches_Write(uint8 value)
  58:.\Generated_Source\PSoC5/Switches.c **** {
  27              		.loc 1 58 0
  28              		.cfi_startproc
  29              		@ args = 0, pretend = 0, frame = 0
  30              		@ frame_needed = 0, uses_anonymous_args = 0
  31              		@ link register save eliminated.
  32              	.LVL0:
  59:.\Generated_Source\PSoC5/Switches.c ****     uint8 staticBits = (Switches_DR & (uint8)(~Switches_MASK));
  33              		.loc 1 59 0
  34 0000 044A     		ldr	r2, .L2
  35 0002 1378     		ldrb	r3, [r2]	@ zero_extendqisi2
  36 0004 03F07F03 		and	r3, r3, #127
  37              	.LVL1:
  60:.\Generated_Source\PSoC5/Switches.c ****     Switches_DR = staticBits | ((uint8)(value << Switches_SHIFT) & Switches_MASK);
  38              		.loc 1 60 0
  39 0008 C001     		lsls	r0, r0, #7
  40              	.LVL2:
  41 000a C0B2     		uxtb	r0, r0
  42 000c 0343     		orrs	r3, r3, r0
  43              	.LVL3:
  44 000e 1370     		strb	r3, [r2]
  45 0010 7047     		bx	lr
  46              	.L3:
  47 0012 00BF     		.align	2
  48              	.L2:
  49 0014 30510040 		.word	1073762608
  50              		.cfi_endproc
  51              	.LFE0:
  52              		.size	Switches_Write, .-Switches_Write
  53              		.section	.text.Switches_SetDriveMode,"ax",%progbits
  54              		.align	2
ARM GAS  C:\Users\jaohe\AppData\Local\Temp\ccDqxAFX.s 			page 3


  55              		.global	Switches_SetDriveMode
  56              		.thumb
  57              		.thumb_func
  58              		.type	Switches_SetDriveMode, %function
  59              	Switches_SetDriveMode:
  60              	.LFB1:
  61:.\Generated_Source\PSoC5/Switches.c **** }
  62:.\Generated_Source\PSoC5/Switches.c **** 
  63:.\Generated_Source\PSoC5/Switches.c **** 
  64:.\Generated_Source\PSoC5/Switches.c **** /*******************************************************************************
  65:.\Generated_Source\PSoC5/Switches.c **** * Function Name: Switches_SetDriveMode
  66:.\Generated_Source\PSoC5/Switches.c **** ****************************************************************************//**
  67:.\Generated_Source\PSoC5/Switches.c **** *
  68:.\Generated_Source\PSoC5/Switches.c **** * \brief Sets the drive mode for each of the Pins component's pins.
  69:.\Generated_Source\PSoC5/Switches.c **** * 
  70:.\Generated_Source\PSoC5/Switches.c **** * <b>Note</b> This affects all pins in the Pins component instance. Use the
  71:.\Generated_Source\PSoC5/Switches.c **** * Per-Pin APIs if you wish to control individual pin's drive modes.
  72:.\Generated_Source\PSoC5/Switches.c **** *
  73:.\Generated_Source\PSoC5/Switches.c **** * \param mode
  74:.\Generated_Source\PSoC5/Switches.c **** *  Mode for the selected signals. Valid options are documented in 
  75:.\Generated_Source\PSoC5/Switches.c **** *  \ref driveMode.
  76:.\Generated_Source\PSoC5/Switches.c **** *
  77:.\Generated_Source\PSoC5/Switches.c **** * \return
  78:.\Generated_Source\PSoC5/Switches.c **** *  None
  79:.\Generated_Source\PSoC5/Switches.c **** *
  80:.\Generated_Source\PSoC5/Switches.c **** * \sideeffect
  81:.\Generated_Source\PSoC5/Switches.c **** *  If you use read-modify-write operations that are not atomic, the ISR can
  82:.\Generated_Source\PSoC5/Switches.c **** *  cause corruption of this function. An ISR that interrupts this function 
  83:.\Generated_Source\PSoC5/Switches.c **** *  and performs writes to the Pins component Drive Mode registers can cause 
  84:.\Generated_Source\PSoC5/Switches.c **** *  corrupted port data. To avoid this issue, you should either use the Per-Pin
  85:.\Generated_Source\PSoC5/Switches.c **** *  APIs (primary method) or disable interrupts around this function.
  86:.\Generated_Source\PSoC5/Switches.c **** *
  87:.\Generated_Source\PSoC5/Switches.c **** * \funcusage
  88:.\Generated_Source\PSoC5/Switches.c **** *  \snippet Switches_SUT.c usage_Switches_SetDriveMode
  89:.\Generated_Source\PSoC5/Switches.c **** *******************************************************************************/
  90:.\Generated_Source\PSoC5/Switches.c **** void Switches_SetDriveMode(uint8 mode)
  91:.\Generated_Source\PSoC5/Switches.c **** {
  61              		.loc 1 91 0
  62              		.cfi_startproc
  63              		@ args = 0, pretend = 0, frame = 0
  64              		@ frame_needed = 0, uses_anonymous_args = 0
  65              		@ link register save eliminated.
  66              	.LVL4:
  92:.\Generated_Source\PSoC5/Switches.c **** 	CyPins_SetPinDriveMode(Switches_0, mode);
  67              		.loc 1 92 0
  68 0000 044A     		ldr	r2, .L5
  69 0002 1378     		ldrb	r3, [r2]	@ zero_extendqisi2
  70 0004 03F0F103 		and	r3, r3, #241
  71 0008 00F00E00 		and	r0, r0, #14
  72              	.LVL5:
  73 000c 1843     		orrs	r0, r0, r3
  74 000e 1070     		strb	r0, [r2]
  75 0010 7047     		bx	lr
  76              	.L6:
  77 0012 00BF     		.align	2
  78              	.L5:
  79 0014 1F500040 		.word	1073762335
ARM GAS  C:\Users\jaohe\AppData\Local\Temp\ccDqxAFX.s 			page 4


  80              		.cfi_endproc
  81              	.LFE1:
  82              		.size	Switches_SetDriveMode, .-Switches_SetDriveMode
  83              		.section	.text.Switches_Read,"ax",%progbits
  84              		.align	2
  85              		.global	Switches_Read
  86              		.thumb
  87              		.thumb_func
  88              		.type	Switches_Read, %function
  89              	Switches_Read:
  90              	.LFB2:
  93:.\Generated_Source\PSoC5/Switches.c **** }
  94:.\Generated_Source\PSoC5/Switches.c **** 
  95:.\Generated_Source\PSoC5/Switches.c **** 
  96:.\Generated_Source\PSoC5/Switches.c **** /*******************************************************************************
  97:.\Generated_Source\PSoC5/Switches.c **** * Function Name: Switches_Read
  98:.\Generated_Source\PSoC5/Switches.c **** ****************************************************************************//**
  99:.\Generated_Source\PSoC5/Switches.c **** *
 100:.\Generated_Source\PSoC5/Switches.c **** * \brief Reads the associated physical port (pin status register) and masks 
 101:.\Generated_Source\PSoC5/Switches.c **** *  the required bits according to the width and bit position of the component
 102:.\Generated_Source\PSoC5/Switches.c **** *  instance. 
 103:.\Generated_Source\PSoC5/Switches.c **** *
 104:.\Generated_Source\PSoC5/Switches.c **** * The pin's status register returns the current logic level present on the 
 105:.\Generated_Source\PSoC5/Switches.c **** * physical pin.
 106:.\Generated_Source\PSoC5/Switches.c **** *
 107:.\Generated_Source\PSoC5/Switches.c **** * \return 
 108:.\Generated_Source\PSoC5/Switches.c **** *  The current value for the pins in the component as a right justified number.
 109:.\Generated_Source\PSoC5/Switches.c **** *
 110:.\Generated_Source\PSoC5/Switches.c **** * \funcusage
 111:.\Generated_Source\PSoC5/Switches.c **** *  \snippet Switches_SUT.c usage_Switches_Read  
 112:.\Generated_Source\PSoC5/Switches.c **** *******************************************************************************/
 113:.\Generated_Source\PSoC5/Switches.c **** uint8 Switches_Read(void)
 114:.\Generated_Source\PSoC5/Switches.c **** {
  91              		.loc 1 114 0
  92              		.cfi_startproc
  93              		@ args = 0, pretend = 0, frame = 0
  94              		@ frame_needed = 0, uses_anonymous_args = 0
  95              		@ link register save eliminated.
 115:.\Generated_Source\PSoC5/Switches.c ****     return (Switches_PS & Switches_MASK) >> Switches_SHIFT;
  96              		.loc 1 115 0
  97 0000 014B     		ldr	r3, .L8
  98 0002 1878     		ldrb	r0, [r3]	@ zero_extendqisi2
 116:.\Generated_Source\PSoC5/Switches.c **** }
  99              		.loc 1 116 0
 100 0004 C009     		lsrs	r0, r0, #7
 101 0006 7047     		bx	lr
 102              	.L9:
 103              		.align	2
 104              	.L8:
 105 0008 31510040 		.word	1073762609
 106              		.cfi_endproc
 107              	.LFE2:
 108              		.size	Switches_Read, .-Switches_Read
 109              		.section	.text.Switches_ReadDataReg,"ax",%progbits
 110              		.align	2
 111              		.global	Switches_ReadDataReg
 112              		.thumb
ARM GAS  C:\Users\jaohe\AppData\Local\Temp\ccDqxAFX.s 			page 5


 113              		.thumb_func
 114              		.type	Switches_ReadDataReg, %function
 115              	Switches_ReadDataReg:
 116              	.LFB3:
 117:.\Generated_Source\PSoC5/Switches.c **** 
 118:.\Generated_Source\PSoC5/Switches.c **** 
 119:.\Generated_Source\PSoC5/Switches.c **** /*******************************************************************************
 120:.\Generated_Source\PSoC5/Switches.c **** * Function Name: Switches_ReadDataReg
 121:.\Generated_Source\PSoC5/Switches.c **** ****************************************************************************//**
 122:.\Generated_Source\PSoC5/Switches.c **** *
 123:.\Generated_Source\PSoC5/Switches.c **** * \brief Reads the associated physical port's data output register and masks 
 124:.\Generated_Source\PSoC5/Switches.c **** *  the correct bits according to the width and bit position of the component 
 125:.\Generated_Source\PSoC5/Switches.c **** *  instance. 
 126:.\Generated_Source\PSoC5/Switches.c **** *
 127:.\Generated_Source\PSoC5/Switches.c **** * The data output register controls the signal applied to the physical pin in 
 128:.\Generated_Source\PSoC5/Switches.c **** * conjunction with the drive mode parameter. This is not the same as the 
 129:.\Generated_Source\PSoC5/Switches.c **** * preferred Switches_Read() API because the 
 130:.\Generated_Source\PSoC5/Switches.c **** * Switches_ReadDataReg() reads the data register instead of the status 
 131:.\Generated_Source\PSoC5/Switches.c **** * register. For output pins this is a useful function to determine the value 
 132:.\Generated_Source\PSoC5/Switches.c **** * just written to the pin.
 133:.\Generated_Source\PSoC5/Switches.c **** *
 134:.\Generated_Source\PSoC5/Switches.c **** * \return 
 135:.\Generated_Source\PSoC5/Switches.c **** *  The current value of the data register masked and shifted into a right 
 136:.\Generated_Source\PSoC5/Switches.c **** *  justified number for the component instance.
 137:.\Generated_Source\PSoC5/Switches.c **** *
 138:.\Generated_Source\PSoC5/Switches.c **** * \funcusage
 139:.\Generated_Source\PSoC5/Switches.c **** *  \snippet Switches_SUT.c usage_Switches_ReadDataReg 
 140:.\Generated_Source\PSoC5/Switches.c **** *******************************************************************************/
 141:.\Generated_Source\PSoC5/Switches.c **** uint8 Switches_ReadDataReg(void)
 142:.\Generated_Source\PSoC5/Switches.c **** {
 117              		.loc 1 142 0
 118              		.cfi_startproc
 119              		@ args = 0, pretend = 0, frame = 0
 120              		@ frame_needed = 0, uses_anonymous_args = 0
 121              		@ link register save eliminated.
 143:.\Generated_Source\PSoC5/Switches.c ****     return (Switches_DR & Switches_MASK) >> Switches_SHIFT;
 122              		.loc 1 143 0
 123 0000 014B     		ldr	r3, .L11
 124 0002 1878     		ldrb	r0, [r3]	@ zero_extendqisi2
 144:.\Generated_Source\PSoC5/Switches.c **** }
 125              		.loc 1 144 0
 126 0004 C009     		lsrs	r0, r0, #7
 127 0006 7047     		bx	lr
 128              	.L12:
 129              		.align	2
 130              	.L11:
 131 0008 30510040 		.word	1073762608
 132              		.cfi_endproc
 133              	.LFE3:
 134              		.size	Switches_ReadDataReg, .-Switches_ReadDataReg
 135              		.section	.text.Switches_SetInterruptMode,"ax",%progbits
 136              		.align	2
 137              		.global	Switches_SetInterruptMode
 138              		.thumb
 139              		.thumb_func
 140              		.type	Switches_SetInterruptMode, %function
 141              	Switches_SetInterruptMode:
ARM GAS  C:\Users\jaohe\AppData\Local\Temp\ccDqxAFX.s 			page 6


 142              	.LFB4:
 145:.\Generated_Source\PSoC5/Switches.c **** 
 146:.\Generated_Source\PSoC5/Switches.c **** 
 147:.\Generated_Source\PSoC5/Switches.c **** /* If interrupt is connected for this Pins component */ 
 148:.\Generated_Source\PSoC5/Switches.c **** #if defined(Switches_INTSTAT) 
 149:.\Generated_Source\PSoC5/Switches.c **** 
 150:.\Generated_Source\PSoC5/Switches.c ****     /*******************************************************************************
 151:.\Generated_Source\PSoC5/Switches.c ****     * Function Name: Switches_SetInterruptMode
 152:.\Generated_Source\PSoC5/Switches.c ****     ****************************************************************************//**
 153:.\Generated_Source\PSoC5/Switches.c ****     *
 154:.\Generated_Source\PSoC5/Switches.c ****     * \brief Configures the interrupt mode for each of the Pins component's
 155:.\Generated_Source\PSoC5/Switches.c ****     *  pins. Alternatively you may set the interrupt mode for all the pins
 156:.\Generated_Source\PSoC5/Switches.c ****     *  specified in the Pins component.
 157:.\Generated_Source\PSoC5/Switches.c ****     *
 158:.\Generated_Source\PSoC5/Switches.c ****     *  <b>Note</b> The interrupt is port-wide and therefore any enabled pin
 159:.\Generated_Source\PSoC5/Switches.c ****     *  interrupt may trigger it.
 160:.\Generated_Source\PSoC5/Switches.c ****     *
 161:.\Generated_Source\PSoC5/Switches.c ****     * \param position
 162:.\Generated_Source\PSoC5/Switches.c ****     *  The pin position as listed in the Pins component. You may OR these to be 
 163:.\Generated_Source\PSoC5/Switches.c ****     *  able to configure the interrupt mode of multiple pins within a Pins 
 164:.\Generated_Source\PSoC5/Switches.c ****     *  component. Or you may use Switches_INTR_ALL to configure the
 165:.\Generated_Source\PSoC5/Switches.c ****     *  interrupt mode of all the pins in the Pins component.       
 166:.\Generated_Source\PSoC5/Switches.c ****     *  - Switches_0_INTR       (First pin in the list)
 167:.\Generated_Source\PSoC5/Switches.c ****     *  - Switches_1_INTR       (Second pin in the list)
 168:.\Generated_Source\PSoC5/Switches.c ****     *  - ...
 169:.\Generated_Source\PSoC5/Switches.c ****     *  - Switches_INTR_ALL     (All pins in Pins component)
 170:.\Generated_Source\PSoC5/Switches.c ****     *
 171:.\Generated_Source\PSoC5/Switches.c ****     * \param mode
 172:.\Generated_Source\PSoC5/Switches.c ****     *  Interrupt mode for the selected pins. Valid options are documented in
 173:.\Generated_Source\PSoC5/Switches.c ****     *  \ref intrMode.
 174:.\Generated_Source\PSoC5/Switches.c ****     *
 175:.\Generated_Source\PSoC5/Switches.c ****     * \return 
 176:.\Generated_Source\PSoC5/Switches.c ****     *  None
 177:.\Generated_Source\PSoC5/Switches.c ****     *  
 178:.\Generated_Source\PSoC5/Switches.c ****     * \sideeffect
 179:.\Generated_Source\PSoC5/Switches.c ****     *  It is recommended that the interrupt be disabled before calling this 
 180:.\Generated_Source\PSoC5/Switches.c ****     *  function to avoid unintended interrupt requests. Note that the interrupt
 181:.\Generated_Source\PSoC5/Switches.c ****     *  type is port wide, and therefore will trigger for any enabled pin on the 
 182:.\Generated_Source\PSoC5/Switches.c ****     *  port.
 183:.\Generated_Source\PSoC5/Switches.c ****     *
 184:.\Generated_Source\PSoC5/Switches.c ****     * \funcusage
 185:.\Generated_Source\PSoC5/Switches.c ****     *  \snippet Switches_SUT.c usage_Switches_SetInterruptMode
 186:.\Generated_Source\PSoC5/Switches.c ****     *******************************************************************************/
 187:.\Generated_Source\PSoC5/Switches.c ****     void Switches_SetInterruptMode(uint16 position, uint16 mode)
 188:.\Generated_Source\PSoC5/Switches.c ****     {
 143              		.loc 1 188 0
 144              		.cfi_startproc
 145              		@ args = 0, pretend = 0, frame = 0
 146              		@ frame_needed = 0, uses_anonymous_args = 0
 147              		@ link register save eliminated.
 148              	.LVL6:
 189:.\Generated_Source\PSoC5/Switches.c **** 		if((position & Switches_0_INTR) != 0u) 
 149              		.loc 1 189 0
 150 0000 00F08000 		and	r0, r0, #128
 151              	.LVL7:
 152 0004 80B2     		uxth	r0, r0
 153 0006 10B1     		cbz	r0, .L13
ARM GAS  C:\Users\jaohe\AppData\Local\Temp\ccDqxAFX.s 			page 7


 190:.\Generated_Source\PSoC5/Switches.c **** 		{ 
 191:.\Generated_Source\PSoC5/Switches.c **** 			 Switches_0_INTTYPE_REG = (uint8)mode; 
 154              		.loc 1 191 0
 155 0008 C9B2     		uxtb	r1, r1
 156              	.LVL8:
 157 000a 014B     		ldr	r3, .L15
 158 000c 1970     		strb	r1, [r3]
 159              	.L13:
 160 000e 7047     		bx	lr
 161              	.L16:
 162              		.align	2
 163              	.L15:
 164 0010 1F450040 		.word	1073759519
 165              		.cfi_endproc
 166              	.LFE4:
 167              		.size	Switches_SetInterruptMode, .-Switches_SetInterruptMode
 168              		.section	.text.Switches_ClearInterrupt,"ax",%progbits
 169              		.align	2
 170              		.global	Switches_ClearInterrupt
 171              		.thumb
 172              		.thumb_func
 173              		.type	Switches_ClearInterrupt, %function
 174              	Switches_ClearInterrupt:
 175              	.LFB5:
 192:.\Generated_Source\PSoC5/Switches.c **** 		}
 193:.\Generated_Source\PSoC5/Switches.c ****     }
 194:.\Generated_Source\PSoC5/Switches.c ****     
 195:.\Generated_Source\PSoC5/Switches.c ****     
 196:.\Generated_Source\PSoC5/Switches.c ****     /*******************************************************************************
 197:.\Generated_Source\PSoC5/Switches.c ****     * Function Name: Switches_ClearInterrupt
 198:.\Generated_Source\PSoC5/Switches.c ****     ****************************************************************************//**
 199:.\Generated_Source\PSoC5/Switches.c ****     *
 200:.\Generated_Source\PSoC5/Switches.c ****     * \brief Clears any active interrupts attached with the component and returns 
 201:.\Generated_Source\PSoC5/Switches.c ****     *  the value of the interrupt status register allowing determination of which
 202:.\Generated_Source\PSoC5/Switches.c ****     *  pins generated an interrupt event.
 203:.\Generated_Source\PSoC5/Switches.c ****     *
 204:.\Generated_Source\PSoC5/Switches.c ****     * \return 
 205:.\Generated_Source\PSoC5/Switches.c ****     *  The right-shifted current value of the interrupt status register. Each pin 
 206:.\Generated_Source\PSoC5/Switches.c ****     *  has one bit set if it generated an interrupt event. For example, bit 0 is 
 207:.\Generated_Source\PSoC5/Switches.c ****     *  for pin 0 and bit 1 is for pin 1 of the Pins component.
 208:.\Generated_Source\PSoC5/Switches.c ****     *  
 209:.\Generated_Source\PSoC5/Switches.c ****     * \sideeffect
 210:.\Generated_Source\PSoC5/Switches.c ****     *  Clears all bits of the physical port's interrupt status register, not just
 211:.\Generated_Source\PSoC5/Switches.c ****     *  those associated with the Pins component.
 212:.\Generated_Source\PSoC5/Switches.c ****     *
 213:.\Generated_Source\PSoC5/Switches.c ****     * \funcusage
 214:.\Generated_Source\PSoC5/Switches.c ****     *  \snippet Switches_SUT.c usage_Switches_ClearInterrupt
 215:.\Generated_Source\PSoC5/Switches.c ****     *******************************************************************************/
 216:.\Generated_Source\PSoC5/Switches.c ****     uint8 Switches_ClearInterrupt(void)
 217:.\Generated_Source\PSoC5/Switches.c ****     {
 176              		.loc 1 217 0
 177              		.cfi_startproc
 178              		@ args = 0, pretend = 0, frame = 0
 179              		@ frame_needed = 0, uses_anonymous_args = 0
 180              		@ link register save eliminated.
 218:.\Generated_Source\PSoC5/Switches.c ****         return (Switches_INTSTAT & Switches_MASK) >> Switches_SHIFT;
 181              		.loc 1 218 0
ARM GAS  C:\Users\jaohe\AppData\Local\Temp\ccDqxAFX.s 			page 8


 182 0000 014B     		ldr	r3, .L18
 183 0002 1878     		ldrb	r0, [r3]	@ zero_extendqisi2
 219:.\Generated_Source\PSoC5/Switches.c ****     }
 184              		.loc 1 219 0
 185 0004 C009     		lsrs	r0, r0, #7
 186 0006 7047     		bx	lr
 187              	.L19:
 188              		.align	2
 189              	.L18:
 190 0008 83450040 		.word	1073759619
 191              		.cfi_endproc
 192              	.LFE5:
 193              		.size	Switches_ClearInterrupt, .-Switches_ClearInterrupt
 194              		.text
 195              	.Letext0:
 196              		.file 2 ".\\Generated_Source\\PSoC5\\cytypes.h"