ARM GAS  C:\Users\jaohe\AppData\Local\Temp\ccXGyz2n.s 			page 1


   1              		.syntax unified
   2              		.cpu cortex-m3
   3              		.fpu softvfp
   4              		.eabi_attribute 20, 1
   5              		.eabi_attribute 21, 1
   6              		.eabi_attribute 23, 3
   7              		.eabi_attribute 24, 1
   8              		.eabi_attribute 25, 1
   9              		.eabi_attribute 26, 1
  10              		.eabi_attribute 30, 1
  11              		.eabi_attribute 34, 1
  12              		.eabi_attribute 18, 4
  13              		.thumb
  14              		.file	"main.c"
  15              		.text
  16              	.Ltext0:
  17              		.cfi_sections	.debug_frame
  18              		.section	.text.sendCommand,"ax",%progbits
  19              		.align	2
  20              		.global	sendCommand
  21              		.thumb
  22              		.thumb_func
  23              		.type	sendCommand, %function
  24              	sendCommand:
  25              	.LFB63:
  26              		.file 1 ".\\main.c"
   1:.\main.c      **** /* ========================================
   2:.\main.c      ****  *
   3:.\main.c      ****  * Copyright YOUR COMPANY, THE YEAR
   4:.\main.c      ****  * All Rights Reserved
   5:.\main.c      ****  * UNPUBLISHED, LICENSED SOFTWARE.
   6:.\main.c      ****  *
   7:.\main.c      ****  * CONFIDENTIAL AND PROPRIETARY INFORMATION
   8:.\main.c      ****  * WHICH IS THE PROPERTY OF your company.
   9:.\main.c      ****  *
  10:.\main.c      ****  * ========================================
  11:.\main.c      **** */
  12:.\main.c      **** /* ========================================
  13:.\main.c      ****  *
  14:.\main.c      ****  * Copyright YOUR COMPANY, THE YEAR
  15:.\main.c      ****  * All Rights Reserved
  16:.\main.c      ****  * UNPUBLISHED, LICENSED SOFTWARE.
  17:.\main.c      ****  *
  18:.\main.c      ****  * CONFIDENTIAL AND PROPRIETARY INFORMATION
  19:.\main.c      ****  * WHICH IS THE PROPERTY OF your company.
  20:.\main.c      ****  *
  21:.\main.c      ****  * ========================================
  22:.\main.c      **** */
  23:.\main.c      **** #include <project.h>
  24:.\main.c      **** 
  25:.\main.c      **** void sendCommand(const char* cmd) {
  27              		.loc 1 25 0
  28              		.cfi_startproc
  29              		@ args = 0, pretend = 0, frame = 0
  30              		@ frame_needed = 0, uses_anonymous_args = 0
  31              	.LVL0:
  32 0000 08B5     		push	{r3, lr}
ARM GAS  C:\Users\jaohe\AppData\Local\Temp\ccXGyz2n.s 			page 2


  33              		.cfi_def_cfa_offset 8
  34              		.cfi_offset 3, -8
  35              		.cfi_offset 14, -4
  26:.\main.c      ****     UART_BT_PutString(cmd);
  36              		.loc 1 26 0
  37 0002 FFF7FEFF 		bl	UART_BT_PutString
  38              	.LVL1:
  27:.\main.c      ****     CyDelay(1000);
  39              		.loc 1 27 0
  40 0006 4FF47A70 		mov	r0, #1000
  41 000a FFF7FEFF 		bl	CyDelay
  42              	.LVL2:
  43 000e 08BD     		pop	{r3, pc}
  44              		.cfi_endproc
  45              	.LFE63:
  46              		.size	sendCommand, .-sendCommand
  47              		.section	.text.printResponse,"ax",%progbits
  48              		.align	2
  49              		.global	printResponse
  50              		.thumb
  51              		.thumb_func
  52              		.type	printResponse, %function
  53              	printResponse:
  54              	.LFB64:
  28:.\main.c      **** }
  29:.\main.c      **** 
  30:.\main.c      **** void printResponse() {
  55              		.loc 1 30 0
  56              		.cfi_startproc
  57              		@ args = 0, pretend = 0, frame = 64
  58              		@ frame_needed = 0, uses_anonymous_args = 0
  59 0000 30B5     		push	{r4, r5, lr}
  60              		.cfi_def_cfa_offset 12
  61              		.cfi_offset 4, -12
  62              		.cfi_offset 5, -8
  63              		.cfi_offset 14, -4
  64 0002 91B0     		sub	sp, sp, #68
  65              		.cfi_def_cfa_offset 80
  66              	.LVL3:
  31:.\main.c      ****     char response[64];
  32:.\main.c      ****     int i = 0;
  33:.\main.c      ****     
  34:.\main.c      ****     CyDelay(100);
  67              		.loc 1 34 0
  68 0004 6420     		movs	r0, #100
  69 0006 FFF7FEFF 		bl	CyDelay
  70              	.LVL4:
  32:.\main.c      ****     
  71              		.loc 1 32 0
  72 000a 0024     		movs	r4, #0
  35:.\main.c      ****         
  36:.\main.c      ****     
  37:.\main.c      ****     while (UART_BT_GetRxBufferSize() > 0) {
  73              		.loc 1 37 0
  74 000c 0AE0     		b	.L4
  75              	.LVL5:
  76              	.L5:
ARM GAS  C:\Users\jaohe\AppData\Local\Temp\ccXGyz2n.s 			page 3


  38:.\main.c      ****         response[i++] = UART_BT_GetChar();
  77              		.loc 1 38 0
  78 000e 651C     		adds	r5, r4, #1
  79              	.LVL6:
  80 0010 FFF7FEFF 		bl	UART_BT_GetChar
  81              	.LVL7:
  82 0014 10AB     		add	r3, sp, #64
  83 0016 1C44     		add	r4, r4, r3
  84 0018 04F8400C 		strb	r0, [r4, #-64]
  39:.\main.c      ****         CyDelay(20);
  85              		.loc 1 39 0
  86 001c 1420     		movs	r0, #20
  87 001e FFF7FEFF 		bl	CyDelay
  88              	.LVL8:
  38:.\main.c      ****         response[i++] = UART_BT_GetChar();
  89              		.loc 1 38 0
  90 0022 2C46     		mov	r4, r5
  91              	.LVL9:
  92              	.L4:
  37:.\main.c      ****         response[i++] = UART_BT_GetChar();
  93              		.loc 1 37 0
  94 0024 FFF7FEFF 		bl	UART_BT_GetRxBufferSize
  95              	.LVL10:
  96 0028 0028     		cmp	r0, #0
  97 002a F0D1     		bne	.L5
  40:.\main.c      ****     }
  41:.\main.c      ****     
  42:.\main.c      ****     response[i] = '\0';
  98              		.loc 1 42 0
  99 002c 10AB     		add	r3, sp, #64
 100 002e 1C44     		add	r4, r4, r3
 101              	.LVL11:
 102 0030 0023     		movs	r3, #0
 103 0032 04F8403C 		strb	r3, [r4, #-64]
  43:.\main.c      ****     UART_BT_PutString(response);
 104              		.loc 1 43 0
 105 0036 6846     		mov	r0, sp
 106 0038 FFF7FEFF 		bl	UART_BT_PutString
 107              	.LVL12:
  44:.\main.c      **** }
 108              		.loc 1 44 0
 109 003c 11B0     		add	sp, sp, #68
 110              		.cfi_def_cfa_offset 12
 111              		@ sp needed
 112 003e 30BD     		pop	{r4, r5, pc}
 113              		.cfi_endproc
 114              	.LFE64:
 115              		.size	printResponse, .-printResponse
 116              		.section	.text.main,"ax",%progbits
 117              		.align	2
 118              		.global	main
 119              		.thumb
 120              		.thumb_func
 121              		.type	main, %function
 122              	main:
 123              	.LFB65:
  45:.\main.c      **** 
ARM GAS  C:\Users\jaohe\AppData\Local\Temp\ccXGyz2n.s 			page 4


  46:.\main.c      **** 
  47:.\main.c      **** 
  48:.\main.c      **** int main()
  49:.\main.c      **** {
 124              		.loc 1 49 0
 125              		.cfi_startproc
 126              		@ Volatile: function does not return.
 127              		@ args = 0, pretend = 0, frame = 0
 128              		@ frame_needed = 0, uses_anonymous_args = 0
 129 0000 08B5     		push	{r3, lr}
 130              		.cfi_def_cfa_offset 8
 131              		.cfi_offset 3, -8
 132              		.cfi_offset 14, -4
  50:.\main.c      ****     CyGlobalIntEnable; /* Enable global interrupts. */
 133              		.loc 1 50 0
 134              	@ 50 ".\main.c" 1
 135 0002 62B6     		CPSIE   i
 136              	@ 0 "" 2
  51:.\main.c      ****     UART_BT_Start();
 137              		.loc 1 51 0
 138              		.thumb
 139 0004 FFF7FEFF 		bl	UART_BT_Start
 140              	.LVL13:
  52:.\main.c      **** 
  53:.\main.c      ****     /* Place your initialization/startup code here (e.g. MyInst_Start()) */
  54:.\main.c      ****     // Slave Configuration Steps
  55:.\main.c      ****     
  56:.\main.c      ****     //sendCommand("AT+ROLE=0\r\n");
  57:.\main.c      ****     //printResponse();
  58:.\main.c      **** 
  59:.\main.c      ****     // sendCommand("AT+ROLE?\r\n");
  60:.\main.c      ****     // printResponse();
  61:.\main.c      ****     
  62:.\main.c      ****     // sendCommand("AT+ADDR?\r\n");
  63:.\main.c      ****     // printResponse();
  64:.\main.c      ****     
  65:.\main.c      ****     // Master Configuration Steps
  66:.\main.c      ****     
  67:.\main.c      **** //    sendCommand("AT+ADDR?\r\n");
  68:.\main.c      **** //    printResponse();
  69:.\main.c      **** //
  70:.\main.c      **** //     sendCommand("AT+ROLE?\r\n");
  71:.\main.c      **** //     printResponse();
  72:.\main.c      **** //    
  73:.\main.c      **** //     sendCommand("AT+CMODE=0\r\n");
  74:.\main.c      **** //     printResponse();
  75:.\main.c      **** //
  76:.\main.c      **** //    sendCommand("AT+BIND=0014,03,055d73\r\n");
  77:.\main.c      **** //    printResponse();
  78:.\main.c      **** 
  79:.\main.c      ****     sendCommand("AT+INIT\r\n");
 141              		.loc 1 79 0
 142 0008 0248     		ldr	r0, .L10
 143 000a FFF7FEFF 		bl	sendCommand
 144              	.LVL14:
  80:.\main.c      ****     printResponse();
 145              		.loc 1 80 0
ARM GAS  C:\Users\jaohe\AppData\Local\Temp\ccXGyz2n.s 			page 5


 146 000e FFF7FEFF 		bl	printResponse
 147              	.LVL15:
 148              	.L8:
  81:.\main.c      ****     
  82:.\main.c      ****     for(;;)
  83:.\main.c      ****     {
  84:.\main.c      ****         /* Place your application code here. */
  85:.\main.c      ****     }
 149              		.loc 1 85 0 discriminator 1
 150 0012 FEE7     		b	.L8
 151              	.L11:
 152              		.align	2
 153              	.L10:
 154 0014 00000000 		.word	.LC0
 155              		.cfi_endproc
 156              	.LFE65:
 157              		.size	main, .-main
 158              		.section	.rodata.str1.4,"aMS",%progbits,1
 159              		.align	2
 160              	.LC0:
 161 0000 41542B49 		.ascii	"AT+INIT\015\012\000"
 161      4E49540D 
 161      0A00
 162 000a 0000     		.text
 163              	.Letext0:
 164              		.file 2 "c:\\program files (x86)\\cypress\\psoc creator\\3.3\\psoc creator\\import\\gnu\\arm\\4.9.
 165              		.file 3 "c:\\program files (x86)\\cypress\\psoc creator\\3.3\\psoc creator\\import\\gnu\\arm\\4.9.
 166              		.file 4 "Generated_Source\\PSoC5/cytypes.h"
 167              		.file 5 "Generated_Source\\PSoC5/UART_BT.h"
 168              		.file 6 "Generated_Source\\PSoC5/CyLib.h"
 169              		.file 7 "Generated_Source\\PSoC5/core_cm3.h"